
miminal_app:     file format binary
miminal_app
architecture: UNKNOWN!, flags 0x00000000:

start address 0x00000000

Sections:
Idx Name          Size      VMA       LMA       File off  Algn
  0 .data         00008afd  00000000  00000000  00000000  2**0
                  CONTENTS, ALLOC, LOAD, DATA
SYMBOL TABLE:
no symbols


Contents of section .data:
 0000 eb004831 c04831db 4831c948 31d24831  ..H1.H1.H1.H1.H1
 0010 f64831ff 48c7c400 50050048 89e54889  .H1.H...P..H..H.
 0020 e64883e4 f04831c0 4831d2e9 901e0000  .H...H1.H1......
 0030 803f0074 14ba0400 00004889 f748c7c6  .?.t......H..H..
 0040 a5730000 e9c73800 00ba0500 00004889  .s....8.......H.
 0050 f748c7c6 e87a0000 e9b33800 00cccccc  .H...z....8.....
 0060 488b0748 8b10488b 7e20488b 7628e96d  H..H..H.~ H.v(.m
 0070 3f0000cc cccccccc cccccccc cccccccc  ?...............
 0080 4881ec88 0000008b 4634a810 753ea820  H.......F4..u>. 
 0090 757d0fb6 074883f8 640f82e8 0000000f  u}...H..d.......
 00a0 b6c88d14 898d0cd1 c1e90c6b d16428d0  ...........k.d(.
 00b0 0fb6c00f b7840020 7a000066 8944242d  ....... z..f.D$-
 00c0 ba240000 0089c8e9 c4000000 0fb60fba  .$..............
 00d0 81000000 b8300000 004189c8 0f1f4000  .....0...A....@.
 00e0 4889d789 ca80e20f 41c0e804 80fa0a41  H.......A......A
 00f0 b9570000 00440f42 c84100d1 44884c3c  .W...D.B.A..D.L<
 0100 06488d57 ff80f910 4489c173 d3eb3e0f  .H.W....D..s..>.
 0110 b60fba81 000000b8 30000000 4189c890  ........0...A...
 0120 4889d789 ca80e20f 41c0e804 80fa0a41  H.......A......A
 0130 b9370000 00440f42 c84100d1 44884c3c  .7...D.B.A..D.L<
 0140 06488d57 ff80f910 4489c173 d34883c7  .H.W....D..s.H..
 0150 fe4881ff 80000000 777a41b8 81000000  .H......wzA.....
 0160 4929d048 8d0c3c48 83c108ba 02000000  I).H..<H........
 0170 4889f748 c7c6b089 0000e8a1 33000048  H..H........3..H
 0180 81c48800 0000c3ba 26000000 3c0a7308  ........&...<.s.
 0190 0c308844 1408eb12 0fb78400 207a0000  .0.D........ z..
 01a0 66894424 2dba2500 0000488d 0c144883  f.D$-.%...H...H.
 01b0 c10841b8 27000000 4929d048 89f748c7  ..A.'...I).H..H.
 01c0 c6688800 0031d2e8 54330000 4881c488  .h...1..T3..H...
 01d0 000000c3 e8473200 000f0bcc cccccccc  .....G2.........
 01e0 55415741 56415541 54534883 ec584c8b  UAWAVAUATSH..XL.
 01f0 374c8b7f 08488b5e 204c8b66 28498b44  7L...H.^ L.f(I.D
 0200 24204889 dfbe2200 00004989 c5ffd084  $ H..."...I.....
 0210 c07411b0 014883c4 585b415c 415d415e  .t...H..X[A\A]A^
 0220 415f5dc3 4d85ff0f 845c0200 004c8964  A_].M....\...L.d
 0230 24304c89 7c24184b 8d043e48 89442450  $0L.|$.K..>H.D$P
 0240 4531ff4c 89f14531 e44c8974 2448eb23  E1.L..E1.L.t$H.#
 0250 4d01e74c 8b742448 488b4424 284929c4  M..L.t$HH.D$(I).
 0260 488b4c24 204901cc 483b4c24 500f844c  H.L$ I..H;L$P..L
 0270 0200000f b6294084 ed48894c 24287810  .....)@..H.L$(x.
 0280 488d4101 48894424 20eb750f 1f440000  H.A.H.D$ .u..D..
 0290 89e883e0 1f0fb651 0183e23f 4080fddf  .......Q...?@...
 02a0 7640488d 71030fb6 4902c1e2 0683e13f  v@H.q...I......?
 02b0 09d14080 fdf0723c 0fb62e83 e007c1e0  ..@...r<........
 02c0 12c1e106 83e53f09 cd09c581 fd000011  ......?.........
 02d0 000f84e8 01000048 8b442428 4883c004  .......H.D$(H...
 02e0 eba24883 c1024889 4c2420c1 e00609d0  ..H...H.L$ .....
 02f0 89c5eb0c 48897424 20c1e00c 09c189cd  ....H.t$ .......
 0300 488d7c24 3c89eeba 01000100 e8ef4a00  H.|$<.........J.
 0310 00807c24 3c800f84 3cffffff 0fb64424  ..|$<...<.....D$
 0320 472a4424 463c010f 842bffff ff4c89e2  G*D$F<...+...L..
 0330 4c29fa0f 82d80100 004d85ff 74194c3b  L).......M..t.L;
 0340 7c241873 0c43803c 3ec07d0b e9c00100  |$.s.C.<>.}.....
 0350 000f85ba 0100004d 85e47419 4c3b6424  .......M..t.L;d$
 0360 18730c43 803c26bf 7f0be9a2 0100000f  .s.C.<&.........
 0370 859c0100 004d01f7 4889df4c 89fe488b  .....M..H..L..H.
 0380 442430ff 501884c0 0f8585fe ffff8b44  D$0.P..........D
 0390 24448944 2410488b 44243c48 89442408  $D.D$.H.D$<H.D$.
 03a0 3c80756c 41b680eb 2d0f1f80 00000000  <.ulA...-.......
 03b0 8b74240c c7442410 00000000 48c74424  .t$..D$.....H.D$
 03c0 08000000 004531f6 4889df41 ffd584c0  .....E1.H..A....
 03d0 0f853dfe ffff4180 fe8074d4 440fb67c  ..=...A...t.D..|
 03e0 2412443a 7c241373 67418d47 01884424  $.D:|$.sgA.G..D$
 03f0 124180ff 0a0f8300 01000042 0fb6743c  .A.........B..t<
 0400 08ebc566 6666662e 0f1f8400 00000000  ...ffff.........
 0410 440fb674 2413440f b67c2412 0f1f4000  D..t$.D..|$...@.
 0420 4d39f773 2b418d47 01884424 124983ff  M9.s+A.G..D$.I..
 0430 090f87c4 00000042 0fb6743c 084889df  .......B..t<.H..
 0440 41ffd549 ffc784c0 74d6e9c4 fdffff90  A..I....t.......
 0450 41bf0100 000081fd 80000000 0f82eefd  A...............
 0460 ffff41bf 02000000 81fd0008 00000f82  ..A.............
 0470 dcfdffff 81fd0000 010041bf 04000000  ..........A.....
 0480 4983df00 e9c7fdff ff4531ff 31d24d01  I........E1.1.M.
 0490 fe4889df 4c89f641 ff542418 84c00f85  .H..L..A.T$.....
 04a0 6ffdffff 4889dfbe 22000000 4c89e848  o...H..."...L..H
 04b0 83c4585b 415c415d 415e415f 5dffe04d  ..X[A\A]A^A_]..M
 04c0 85ff741e 488b4c24 184889c8 4c29f84c  ..t.H.L$.H..L).L
 04d0 8b642430 761b4380 3c3ebf7e 504889c2  .d$0v.C.<>.~PH..
 04e0 ebac4531 ff488b54 24184c8b 642430eb  ..E1.H.T$.L.d$0.
 04f0 9d753a49 89cf4889 c2eb93be 0a000000  .u:I..H.........
 0500 4c89ff48 c7c2f084 0000e891 2f00000f  L..H......../...
 0510 0b4c89f7 488b7424 184c89fa 4c89e149  .L..H.t$.L..L..I
 0520 c7c0087b 0000e8b5 4c00000f 0b4c89f7  ...{....L....L..
 0530 4889ce4c 89fa49c7 c0f07a00 00e89e4c  H..L..I...z....L
 0540 00000f0b cccccccc cccccccc cccccccc  ................
 0550 488b3fe9 c8560000 cccccccc cccccccc  H.?..V..........
 0560 41574156 41554154 534883ec 204989f6  AWAVAUATSH.. I..
 0570 4c8b2f4d 8d65104d 8d7d1849 8d5d2049  L./M.e.M.}.I.] I
 0580 8d452148 89442418 488b7e20 488b4628  .E!H.D$.H.~ H.F(
 0590 ba090000 0048c7c6 10740000 ff50184c  .....H...t...P.L
 05a0 89742408 88442410 c6442411 004c8d74  .t$..D$..D$..L.t
 05b0 2408ba07 0000004c 89f748c7 c6197400  $......L..H...t.
 05c0 004c89e9 49c7c070 0e0000e8 b03e0000  .L..I..p.....>..
 05d0 ba070000 004c89f7 48c7c620 7400004c  .....L..H.. t..L
 05e0 89e149c7 c0e01400 00e8923e 0000ba08  ..I........>....
 05f0 0000004c 89f748c7 c6d07300 004c89f9  ...L..H...s..L..
 0600 49c7c070 0d0000e8 743e0000 ba0a0000  I..p....t>......
 0610 004c89f7 48c7c627 74000048 89d949c7  .L..H..'t..H..I.
 0620 c0300000 00e8563e 0000488d 4c2418ba  .0....V>..H.L$..
 0630 12000000 4c89f748 c7c63174 000049c7  ....L..H..1t..I.
 0640 c0c00800 00e8363e 0000807c 2411000f  ......6>...|$...
 0650 b6442410 743e84c0 b0017538 488b4424  .D$.t>....u8H.D$
 0660 08f64034 04751648 8b782048 8b4028ba  ..@4.u.H.x H.@(.
 0670 02000000 48c7c68a 790000eb 14488b78  ....H...y....H.x
 0680 20488b40 28ba0100 000048c7 c6897900   H.@(.....H...y.
 0690 00ff5018 84c00f95 c04883c4 205b415c  ..P......H.. [A\
 06a0 415d415e 415fc3cc cccccccc cccccccc  A]A^A_..........
 06b0 4881ec88 00000048 8b078b4e 34f6c110  H......H...N4...
 06c0 0f85e100 0000f6c1 200f8521 01000048  ........ ..!...H
 06d0 8b08b827 00000048 81f91027 00000f82  ...'...H...'....
 06e0 84010000 41b82700 000048bf 4b598638  ....A.'...H.KY.8
 06f0 d6c56d34 6666662e 0f1f8400 00000000  ..m4fff.........
 0700 4889c848 f7e748c1 ea0b69c2 10270000  H..H..H...i..'..
 0710 4189c941 29c14569 d17b1400 0041c1ea  A..A).Ei.{...A..
 0720 13416bc2 644129c1 450fb7c9 498d40fc  .Ak.dA).E...I.@.
 0730 470fb794 12207a00 00664689 54040447  G.... z..fF.T..G
 0740 0fb78c09 207a0000 6646894c 04064989  .... z..fF.L..I.
 0750 c04881f9 ffe0f505 4889d177 a34883fa  .H......H..w.H..
 0760 63762b0f b7cac1e9 0269c97b 140000c1  cv+......i.{....
 0770 e9116bf9 6429fa0f b7d20fb7 9412207a  ..k.d)........ z
 0780 00006689 54040648 83c0fe48 89ca4883  ..f.T..H...H..H.
 0790 fa0a0f83 e2000000 80c23088 54040748  ..........0.T..H
 07a0 ffc8e9e4 00000048 8b08ba81 000000b8  .......H........
 07b0 30000000 4989c866 0f1f8400 00000000  0...I..f........
 07c0 4889d749 c1e80489 ca80e20f 80fa0a41  H..I...........A
 07d0 b9570000 00440f42 c84100d1 44884c3c  .W...D.B.A..D.L<
 07e0 06488d57 ff4883f9 104c89c1 73d2eb3e  .H.W.H...L..s..>
 07f0 488b08ba 81000000 b8300000 004989c8  H........0...I..
 0800 4889d749 c1e80489 ca80e20f 80fa0a41  H..I...........A
 0810 b9370000 00440f42 c84100d1 44884c3c  .7...D.B.A..D.L<
 0820 06488d57 ff4883f9 104c89c1 73d24883  .H.W.H...L..s.H.
 0830 c7fe4881 ff800000 00777a41 b8810000  ..H......wzA....
 0840 004929d0 488d0c3c 4883c108 ba020000  .I).H..<H.......
 0850 004889f7 48c7c6b0 890000e8 c02c0000  .H..H........,..
 0860 4881c488 000000c3 4889ca48 83fa630f  H.......H..H..c.
 0870 87eefeff ffe914ff ffff0fb7 8c12207a  .............. z
 0880 00006689 4c040648 83c0fe48 8d0c0448  ..f.L..H...H...H
 0890 83c10841 b8270000 004929c0 4889f748  ...A.'...I).H..H
 08a0 c7c66888 000031d2 e8732c00 004881c4  ..h...1..s,..H..
 08b0 88000000 c3e8662b 00000f0b cccccccc  ......f+........
 08c0 488b0780 38007414 ba040000 004889f7  H...8.t......H..
 08d0 48c7c6a5 730000e9 34300000 ba050000  H...s...40......
 08e0 004889f7 48c7c6e8 7a0000e9 20300000  .H..H...z... 0..
 08f0 55415741 56415541 54534881 ec980000  UAWAVAUATSH.....
 0900 00488b07 4c8b284d 85ed0f84 9d010000  .H..L.(M........
 0910 488b4620 48890424 4c8b6628 b2014531  H.F H..$L.f(..E1
 0920 f64c89ed 4983fe08 0f87d000 00004885  .L..I.........H.
 0930 ed0f840c 0200004a 8d04f500 00000048  .......J.......H
 0940 8d0c4048 81c1d888 0000488d 04404805  ..@H......H..@H.
 0950 f0880000 4c89f6eb 250f1f80 00000000  ....L...%.......
 0960 4883fe08 b9000000 00480f42 c84883c0  H........H.B.H..
 0970 184c89f6 4983fe09 0f848000 00004c8d  .L..I.........L.
 0980 76014c8b 79084d85 ff74d548 8b591048  v.L.y.M..t.H.Y.H
 0990 85eb74cc 4889df4c 21ef4839 df75c148  ..t.H..L!.H9.u.H
 09a0 8b314c89 6424204d 8b642418 f6c20175  .1L.d$ M.d$....u
 09b0 25ba0300 0000488b 3c244889 74241848  %.....H.<$H.t$.H
 09c0 c7c6b289 000041ff d4488b74 241884c0  ......A..H.t$...
 09d0 0f85d000 000048f7 d34821dd 488b3c24  ......H..H!.H.<$
 09e0 4c89fa41 ffd489c1 b00131d2 84c94c8b  L..A......1...L.
 09f0 6424200f 842bffff ffe94701 00004889  d$ ..+....G...H.
 0a00 6c242848 85ed0f84 37010000 498b5c24  l$(H....7...I.\$
 0a10 18f6c201 7516ba03 00000048 8b3c2448  ....u......H.<$H
 0a20 c7c6b289 0000ffd3 84c0757a ba020000  ..........uz....
 0a30 00488b3c 2448c7c6 b0890000 ffd384c0  .H.<$H..........
 0a40 7564488d 44242848 89442408 488d4424  udH.D$(H.D$.H.D$
 0a50 08488944 246848c7 44247000 60000048  .H.D$hH.D$p.`..H
 0a60 c7442430 b8890000 48c74424 38010000  .D$0....H.D$8...
 0a70 0048c744 24500000 0000488d 44246848  .H.D$P....H.D$hH
 0a80 89442440 48c74424 48010000 00488d54  .D$@H.D$H....H.T
 0a90 2430488b 3c244c89 e6e84235 000084c0  $0H.<$L...B5....
 0aa0 0f849d00 0000b001 e9980000 0048c744  .............H.D
 0ab0 2408e073 000048c7 44241040 5a000048  $..s..H.D$.@Z..H
 0ac0 c7442430 02000000 48c74424 40020000  .D$0....H.D$@...
 0ad0 0048c744 24500000 000048b8 20000000  .H.D$P....H. ...
 0ae0 04000000 48894424 58c64424 600348c7  ....H.D$X.D$`.H.
 0af0 442468b8 89000048 c7442470 01000000  D$h....H.D$p....
 0b00 488d4424 30488984 24880000 0048c784  H.D$0H..$....H..
 0b10 24900000 00010000 00488d44 24084889  $........H.D$.H.
 0b20 44247848 c7842480 00000001 00000048  D$xH..$........H
 0b30 8b7e2048 8b762848 8d542468 e89f3400  .~ H.v(H.T$h..4.
 0b40 00eb0231 c04881c4 98000000 5b415c41  ...1.H......[A\A
 0b50 5d415e41 5f5dc3cc cccccccc cccccccc  ]A^A_]..........
 0b60 4881ec88 00000048 8b078b4e 34f6c110  H......H...N4...
 0b70 0f85e100 0000f6c1 200f8520 0100008b  ........ .. ....
 0b80 08b82700 00004881 f9102700 000f8284  ..'...H...'.....
 0b90 01000041 b8270000 0048bf4b 598638d6  ...A.'...H.KY.8.
 0ba0 c56d3466 6666662e 0f1f8400 00000000  .m4ffff.........
 0bb0 4889c848 f7e748c1 ea0b69c2 10270000  H..H..H...i..'..
 0bc0 4189c941 29c14569 d17b1400 0041c1ea  A..A).Ei.{...A..
 0bd0 13416bc2 644129c1 450fb7c9 498d40fc  .Ak.dA).E...I.@.
 0be0 470fb794 12207a00 00664689 54040447  G.... z..fF.T..G
 0bf0 0fb78c09 207a0000 6646894c 04064989  .... z..fF.L..I.
 0c00 c04881f9 ffe0f505 4889d177 a34883fa  .H......H..w.H..
 0c10 63762b0f b7cac1e9 0269c97b 140000c1  cv+......i.{....
 0c20 e9116bf9 6429fa0f b7d20fb7 9412207a  ..k.d)........ z
 0c30 00006689 54040648 83c0fe48 89ca4883  ..f.T..H...H..H.
 0c40 fa0a0f83 e1000000 80c23088 54040748  ..........0.T..H
 0c50 ffc8e9e3 0000008b 08ba8100 0000b830  ...............0
 0c60 00000041 89c8662e 0f1f8400 00000000  ...A..f.........
 0c70 4889d741 c1e80489 ca80e20f 80fa0a41  H..A...........A
 0c80 b9570000 00440f42 c84100d1 44884c3c  .W...D.B.A..D.L<
 0c90 06488d57 ff83f910 4489c173 d3eb3e8b  .H.W....D..s..>.
 0ca0 08ba8100 0000b830 00000041 89c86690  .......0...A..f.
 0cb0 4889d741 c1e80489 ca80e20f 80fa0a41  H..A...........A
 0cc0 b9370000 00440f42 c84100d1 44884c3c  .7...D.B.A..D.L<
 0cd0 06488d57 ff83f910 4489c173 d34883c7  .H.W....D..s.H..
 0ce0 fe4881ff 80000000 777a41b8 81000000  .H......wzA.....
 0cf0 4929d048 8d0c3c48 83c108ba 02000000  I).H..<H........
 0d00 4889f748 c7c6b089 0000e811 28000048  H..H........(..H
 0d10 81c48800 0000c348 89ca4883 fa630f87  .......H..H..c..
 0d20 effeffff e915ffff ff0fb78c 12207a00  ............. z.
 0d30 0066894c 04064883 c0fe488d 0c044883  .f.L..H...H...H.
 0d40 c10841b8 27000000 4929c048 89f748c7  ..A.'...I).H..H.
 0d50 c6688800 0031d2e8 c4270000 4881c488  .h...1...'..H...
 0d60 000000c3 e8b72600 000f0bcc cccccccc  ......&.........
 0d70 41574156 534883ec 204989f6 4c8b3f49  AWAVSH.. I..L.?I
 0d80 8d5f1049 8d471448 89442418 488b7e20  ._.I.G.H.D$.H.~ 
 0d90 488b4628 ba080000 0048c7c6 c8730000  H.F(.....H...s..
 0da0 ff50184c 89742408 88442410 c6442411  .P.L.t$..D$..D$.
 0db0 004c8d74 2408ba04 0000004c 89f748c7  .L.t$......L..H.
 0dc0 c6b57300 004c89f9 49c7c0e0 010000e8  ..s..L..I.......
 0dd0 ac360000 ba040000 004c89f7 48c7c6ad  .6.......L..H...
 0de0 73000048 89d949c7 c0801000 00e88e36  s..H..I........6
 0df0 0000488d 4c2418ba 03000000 4c89f748  ..H.L$......L..H
 0e00 c7c6e873 000049c7 c0600b00 00e86e36  ...s..I..`....n6
 0e10 0000807c 2411000f b6442410 743e84c0  ...|$....D$.t>..
 0e20 b0017538 488b4424 08f64034 04751648  ..u8H.D$..@4.u.H
 0e30 8b782048 8b4028ba 02000000 48c7c68a  .x H.@(.....H...
 0e40 790000eb 14488b78 20488b40 28ba0100  y....H.x H.@(...
 0e50 000048c7 c6897900 00ff5018 84c00f95  ..H...y...P.....
 0e60 c04883c4 205b415e 415fc3cc cccccccc  .H.. [A^A_......
 0e70 41565350 488b5e20 488b4628 488b4018  AVSPH.^ H.F(H.@.
 0e80 ba030000 004889df 48c7c6a0 78000049  .....H..H...x..I
 0e90 89c6ffd0 84c0740a b0014883 c4085b41  ......t...H...[A
 0ea0 5ec3ba07 00000048 89df48c7 c6827900  ^......H..H...y.
 0eb0 004c89f0 4883c408 5b415eff e0cccccc  .L..H...[A^.....
 0ec0 4881ec88 0000008b 4634a810 7567a820  H.......F4..ug. 
 0ed0 0f859e00 00000fb7 073d1027 00000f82  .........=.'....
 0ee0 0e010000 0fb7c8c1 e90469c9 47030000  ..........i.G...
 0ef0 c1e91369 d1102700 0029d00f b7d069d2  ...i..'..)....i.
 0f00 7b140000 c1ea136b fa6429f8 0fb7c00f  {......k.d).....
 0f10 b7941220 7a000066 8954242b 0fb78400  ... z..f.T$+....
 0f20 207a0000 66894424 2dba2300 000089c8   z..f.D$-.#.....
 0f30 e9f90000 000fb707 b9810000 00eb1c90  ................
 0f40 440fb7c0 41c1e804 00ca8854 3c06488d  D...A......T<.H.
 0f50 4fff6683 f8104489 c0725948 89cf89c1  O.f...D..rYH....
 0f60 80e10fba 30000000 80f90a72 d3ba5700  ....0......r..W.
 0f70 0000ebcc 0fb707b9 81000000 eb1d6690  ..............f.
 0f80 440fb7c0 41c1e804 00ca8854 3c06488d  D...A......T<.H.
 0f90 4fff6683 f8104489 c0721948 89cf89c1  O.f...D..r.H....
 0fa0 80e10fba 30000000 80f90a72 d3ba3700  ....0......r..7.
 0fb0 0000ebcc 4883c7fe 4881ff80 0000000f  ....H...H.......
 0fc0 87b20000 0041b881 00000049 29c8488d  .....A.....I).H.
 0fd0 0c3c4883 c108ba02 00000048 89f748c7  .<H........H..H.
 0fe0 c6b08900 00e83625 00004881 c4880000  ......6%..H.....
 0ff0 00c3ba27 00000066 83f86472 2b0fb7c8  ...'...f..dr+...
 1000 c1e90269 c97b1400 00c1e911 6bd16429  ...i.{......k.d)
 1010 d00fb7c0 0fb78400 207a0000 66894424  ........ z..f.D$
 1020 2dba2500 000089c8 6683f80a 730b0c30  -.%.....f...s..0
 1030 88441407 48ffcaeb 140fb7c0 0fb78400  .D..H...........
 1040 207a0000 66894414 064883c2 fe488d0c   z..f.D..H...H..
 1050 144883c1 0841b827 00000049 29d04889  .H...A.'...I).H.
 1060 f748c7c6 68880000 31d2e8b1 24000048  .H..h...1...$..H
 1070 81c48800 0000c3e8 a4230000 0f0bcccc  .........#......
 1080 4881ec88 0000008b 4634a810 0f85d500  H.......F4......
 1090 0000a820 0f851501 00008b0f b8270000  ... .........'..
 10a0 004881f9 10270000 0f827901 000041b8  .H...'....y...A.
 10b0 27000000 48bf4b59 8638d6c5 6d346690  '...H.KY.8..m4f.
 10c0 4889c848 f7e748c1 ea0b69c2 10270000  H..H..H...i..'..
 10d0 4189c941 29c14569 d17b1400 0041c1ea  A..A).Ei.{...A..
 10e0 13416bc2 644129c1 450fb7c9 498d40fc  .Ak.dA).E...I.@.
 10f0 470fb794 12207a00 00664689 54040447  G.... z..fF.T..G
 1100 0fb78c09 207a0000 6646894c 04064989  .... z..fF.L..I.
 1110 c04881f9 ffe0f505 4889d177 a34883fa  .H......H..w.H..
 1120 63762b0f b7cac1e9 0269c97b 140000c1  cv+......i.{....
 1130 e9116bf9 6429fa0f b7d20fb7 9412207a  ..k.d)........ z
 1140 00006689 54040648 83c0fe48 89ca4883  ..f.T..H...H..H.
 1150 fa0a0f83 e1000000 80c23088 54040748  ..........0.T..H
 1160 ffc8e9e3 0000008b 0fba8100 0000b830  ...............0
 1170 00000041 89c8662e 0f1f8400 00000000  ...A..f.........
 1180 4889d741 c1e80489 ca80e20f 80fa0a41  H..A...........A
 1190 b9570000 00440f42 c84100d1 44884c3c  .W...D.B.A..D.L<
 11a0 06488d57 ff83f910 4489c173 d3eb3e8b  .H.W....D..s..>.
 11b0 0fba8100 0000b830 00000041 89c86690  .......0...A..f.
 11c0 4889d741 c1e80489 ca80e20f 80fa0a41  H..A...........A
 11d0 b9370000 00440f42 c84100d1 44884c3c  .7...D.B.A..D.L<
 11e0 06488d57 ff83f910 4489c173 d34883c7  .H.W....D..s.H..
 11f0 fe4881ff 80000000 777a41b8 81000000  .H......wzA.....
 1200 4929d048 8d0c3c48 83c108ba 02000000  I).H..<H........
 1210 4889f748 c7c6b089 0000e801 23000048  H..H........#..H
 1220 81c48800 0000c348 89ca4883 fa630f87  .......H..H..c..
 1230 effeffff e915ffff ff0fb78c 12207a00  ............. z.
 1240 0066894c 04064883 c0fe488d 0c044883  .f.L..H...H...H.
 1250 c10841b8 27000000 4929c048 89f748c7  ..A.'...I).H..H.
 1260 c6688800 0031d2e8 b4220000 4881c488  .h...1..."..H...
 1270 000000c3 e8a72100 000f0bcc cccccccc  ......!.........
 1280 50c74424 04000000 0081fe80 00000073  P.D$...........s
 1290 0f408874 2404b801 000000e9 90000000  .@.t$...........
 12a0 89f081fe 00080000 731dc1e8 060cc088  ........s.......
 12b0 44240440 80e63f40 80ce8040 88742405  D$.@..?@...@.t$.
 12c0 b8020000 00eb6981 fe000001 00732ac1  ......i......s*.
 12d0 e80c0ce0 88442404 89f0c1e8 06243f0c  .....D$......$?.
 12e0 80884424 054080e6 3f4080ce 80408874  ..D$.@..?@...@.t
 12f0 2406b803 000000eb 37c1e812 24070cf0  $.......7...$...
 1300 88442404 89f0c1e8 0c243f0c 80884424  .D$......$?...D$
 1310 0589f0c1 e806243f 0c808844 24064080  ......$?...D$.@.
 1320 e63f4080 ce804088 742407b8 04000000  .?@...@.t$......
 1330 488d0c04 4883c104 488d7424 04eb0e90  H...H...H.t$....
 1340 48ffc666 ba0010ee 4839ce74 670fb606  H..f....H9.tg...
 1350 84c079ec 89c283e2 1f440fb6 46014183  ..y......D..F.A.
 1360 e03f3cdf 76330fb6 7e0241c1 e00683e7  .?<.v3..~.A.....
 1370 3f4409c7 3cf0722f 0fb64603 83e207c1  ?D..<.r/..F.....
 1380 e212c1e7 0683e03f 09f809d0 3d000011  .......?....=...
 1390 00742148 83c604eb aa4883c6 02c1e206  .t!H.....H......
 13a0 4409c289 d0eb9c48 83c603c1 e20c09d7  D......H........
 13b0 89f8eb8f 31c059c3 cccccccc cccccccc  ....1.Y.........
 13c0 4889f248 c7c64874 0000e911 2c0000cc  H..H..Ht....,...
 13d0 c3cccccc cccccccc cccccccc cccccccc  ................
 13e0 c3cccccc cccccccc cccccccc cccccccc  ................
 13f0 41574156 534883ec 204989f6 4889fb48  AWAVSH.. I..H..H
 1400 8b7e2048 8b4628ba 01000000 48c7c6a3  .~ H.F(.....H...
 1410 780000ff 50184c89 74241088 442418c6  x...P.L.t$..D$..
 1420 44241900 48895c24 084c8d74 24104c8d  D$..H.\$.L.t$.L.
 1430 7c24084c 89f74c89 fee87238 0000488d  |$.L..L...r8..H.
 1440 43014889 4424084c 89f74c89 fee85e38  C.H.D$.L..L...^8
 1450 0000488d 43024889 4424084c 89f74c89  ..H.C.H.D$.L..L.
 1460 fee84a38 00004883 c3034889 5c24084c  ..J8..H...H.\$.L
 1470 89f74c89 fee83638 0000b001 807c2418  ..L...68.....|$.
 1480 00751c48 8b442410 488b7820 488b4028  .u.H.D$.H.x H.@(
 1490 ba010000 0048c7c6 91790000 ff501848  .....H...y...P.H
 14a0 83c4205b 415e415f c3cccccc cccccccc  .. [A^A_........
 14b0 480fc7f1 b8010000 000f43c1 48890fc3  H.........C.H...
 14c0 488b7e20 488b4628 488b4018 ba050000  H.~ H.F(H.@.....
 14d0 0048c7c6 90730000 ffe0cccc cccccccc  .H...s..........
 14e0 41565348 83ec2848 89f34883 3f000f84  AVSH..(H..H.?...
 14f0 ad000000 48897c24 20488b7b 20488b43  ....H.|$ H.{ H.C
 1500 28ba0400 000048c7 c69d7300 00ff5018  (.....H...s...P.
 1510 48895c24 10884424 1848c744 24080000  H.\$..D$.H.D$...
 1520 0000c644 24190048 8d7c2408 488d7424  ...D$..H.|$.H.t$
 1530 2048c7c2 60000000 e8133600 00488b44   H..`.....6..H.D
 1540 24080fb6 4c241848 85c07476 b30184c9  $...L$.H..tv....
 1550 75724c8b 74241048 83f80175 29807c24  urL.t$.H...u).|$
 1560 19007422 41f64634 04751b49 8b7e2049  ..t"A.F4.u.I.~ I
 1570 8b4628ba 01000000 48c7c68f 790000ff  .F(.....H...y...
 1580 501884c0 753e498b 7e20498b 4628ba01  P...u>I.~ I.F(..
 1590 00000048 c7c61678 0000ff50 1889c3eb  ...H...x...P....
 15a0 23488b7b 20488b43 28488b40 18ba0400  #H.{ H.C(H.@....
 15b0 000048c7 c6a97300 004883c4 285b415e  ..H...s..H..([A^
 15c0 ffe089cb 84db0f95 c04883c4 285b415e  .........H..([A^
 15d0 c3cccccc cccccccc cccccccc cccccccc  ................
 15e0 41565348 83ec2848 89f34883 3f000f84  AVSH..(H..H.?...
 15f0 b1000000 4883c708 48897c24 20488b7b  ....H...H.|$ H.{
 1600 20488b43 28ba0400 000048c7 c69d7300   H.C(.....H...s.
 1610 00ff5018 48895c24 10884424 1848c744  ..P.H.\$..D$.H.D
 1620 24080000 0000c644 24190048 8d7c2408  $......D$..H.|$.
 1630 488d7424 2048c7c2 b0060000 e80f3500  H.t$ H........5.
 1640 00488b44 24080fb6 4c241848 85c07476  .H.D$...L$.H..tv
 1650 b30184c9 75724c8b 74241048 83f80175  ....urL.t$.H...u
 1660 29807c24 19007422 41f64634 04751b49  ).|$..t"A.F4.u.I
 1670 8b7e2049 8b4628ba 01000000 48c7c68f  .~ I.F(.....H...
 1680 790000ff 501884c0 753e498b 7e20498b  y...P...u>I.~ I.
 1690 4628ba01 00000048 c7c61678 0000ff50  F(.....H...x...P
 16a0 1889c3eb 23488b7b 20488b43 28488b40  ....#H.{ H.C(H.@
 16b0 18ba0400 000048c7 c6a97300 004883c4  ......H...s..H..
 16c0 285b415e ffe089cb 84db0f95 c04883c4  ([A^.........H..
 16d0 285b415e c3cccccc cccccccc cccccccc  ([A^............
 16e0 534883ec 304889f3 0fb70766 8944240e  SH..0H.....f.D$.
 16f0 488b4702 48894424 28488d44 24284889  H.G.H.D$(H.D$(H.
 1700 44242048 8b7e2048 8b4628ba 16000000  D$ H.~ H.F(.....
 1710 48c7c678 740000ff 50184889 5c241088  H..xt...P.H.\$..
 1720 442418c6 44241900 488d5c24 10488d4c  D$..D$..H.\$.H.L
 1730 240eba05 00000048 89df48c7 c68e7400  $......H..H...t.
 1740 0049c7c0 c00e0000 e8332d00 00488d4c  .I.......3-..H.L
 1750 2420ba04 00000048 89df48c7 c6997300  $ .....H..H...s.
 1760 0049c7c0 50050000 e8132d00 00807c24  .I..P.....-...|$
 1770 19000fb6 44241874 3e84c0b0 01753848  ....D$.t>....u8H
 1780 8b442410 f6403404 7516488b 7820488b  .D$..@4.u.H.x H.
 1790 4028ba02 00000048 c7c68a79 0000eb14  @(.....H...y....
 17a0 488b7820 488b4028 ba010000 0048c7c6  H.x H.@(.....H..
 17b0 89790000 ff501884 c00f95c0 4883c430  .y...P......H..0
 17c0 5bc3cccc cccccccc cccccccc cccccccc  [...............
 17d0 41565348 83ec2848 89f34889 7c242048  AVSH..(H..H.|$ H
 17e0 8b7e2048 8b4628ba 12000000 48c7c693  .~ H.F(.....H...
 17f0 740000ff 50184889 5c241088 44241848  t...P.H.\$..D$.H
 1800 c7442408 00000000 c6442419 00488d7c  .D$......D$..H.|
 1810 2408488d 74242048 c7c2f008 0000e82d  $.H.t$ H.......-
 1820 33000048 8b442408 0fb64c24 184885c0  3..H.D$...L$.H..
 1830 7455b301 84c97551 4c8b7424 104883f8  tU....uQL.t$.H..
 1840 01752980 7c241900 742241f6 46340475  .u).|$..t"A.F4.u
 1850 1b498b7e 20498b46 28ba0100 000048c7  .I.~ I.F(.....H.
 1860 c68f7900 00ff5018 84c0751d 498b7e20  ..y...P...u.I.~ 
 1870 498b4628 ba010000 0048c7c6 16780000  I.F(.....H...x..
 1880 ff501889 c3eb0289 cb84db0f 95c04883  .P............H.
 1890 c4285b41 5ec3cccc cccccccc cccccccc  .([A^...........
 18a0 41565348 83ec1849 89f64889 fb488b7e  AVSH...I..H..H.~
 18b0 20488b46 28ba1300 000048c7 c6a88a00   H.F(.....H.....
 18c0 00ff5018 4c893424 88442408 c6442409  ..P.L.4$.D$..D$.
 18d0 004989e6 ba130000 004c89f7 48c7c6bb  .I.......L..H...
 18e0 8a000048 89d949c7 c0205c00 00e88e2b  ...H..I.. \....+
 18f0 0000488d 4b08ba0c 0000004c 89f748c7  ..H.K......L..H.
 1900 c6ce8a00 0049c7c0 005e0000 e86f2b00  .....I...^...o+.
 1910 00488b43 10488944 2410488d 4c2410ba  .H.C.H.D$.H.L$..
 1920 09000000 4c89f748 c7c6da8a 000049c7  ....L..H......I.
 1930 c0705d00 00e8462b 0000488d 4b18ba0d  .p]...F+..H.K...
 1940 0000004c 89f748c7 c6e38a00 0049c7c0  ...L..H......I..
 1950 205c0000 e8272b00 004883c3 20ba0d00   \...'+..H.. ...
 1960 00004c89 f748c7c6 f08a0000 4889d949  ..L..H......H..I
 1970 c7c0005e 0000e805 2b000080 7c240900  ...^....+...|$..
 1980 0fb64424 08743d84 c0b00175 37488b04  ..D$.t=....u7H..
 1990 24f64034 04751648 8b782048 8b4028ba  $.@4.u.H.x H.@(.
 19a0 02000000 48c7c68a 790000eb 14488b78  ....H...y....H.x
 19b0 20488b40 28ba0100 000048c7 c6897900   H.@(.....H...y.
 19c0 00ff5018 84c00f95 c04883c4 185b415e  ..P......H...[A^
 19d0 c3cccccc cccccccc cccccccc cccccccc  ................
 19e0 4885d20f 848f0000 00504889 d14801f1  H........PH..H..
 19f0 eb1b6666 6666662e 0f1f8400 00000000  ..fffff.........
 1a00 48ffc666 ba0010ee 4839ce74 670fb606  H..f....H9.tg...
 1a10 84c079ec 89c283e2 1f440fb6 46014183  ..y......D..F.A.
 1a20 e03f3cdf 76330fb6 7e0241c1 e00683e7  .?<.v3..~.A.....
 1a30 3f4409c7 3cf0722f 0fb64603 83e207c1  ?D..<.r/..F.....
 1a40 e212c1e7 0683e03f 09f809d0 3d000011  .......?....=...
 1a50 00742148 83c604eb aa4883c6 02c1e206  .t!H.....H......
 1a60 4409c289 d0eb9c48 83c603c1 e20c09d7  D......H........
 1a70 89f8eb8f 4883c408 31c0c3cc cccccccc  ....H...1.......
 1a80 504889fa 488b0585 46000048 85c07539  PH..H...F..H..u9
 1a90 b9010000 0031c0f0 480fb10d 70460000  .....1..H...pF..
 1aa0 752766c7 056d4600 000100b8 02000000  u'f..mF.........
 1ab0 48870559 460000eb 1c0f1f80 00000000  H..YF...........
 1ac0 f390488b 05474600 004883f8 0174f148  ..H..GF..H...t.H
 1ad0 83f80275 55b10166 0f1f8400 00000000  ...uU..f........
 1ae0 31c0f00f b00d2f46 0000741e 0f1f4000  1...../F..t...@.
 1af0 0fb60522 46000084 c074e5f3 900fb605  ..."F....t......
 1b00 15460000 84c075f3 ebd648c7 c71a6100  .F....u...H...a.
 1b10 0048c7c6 48740000 e8c32400 0084c075  .H..Ht....$....u
 1b20 42c605f1 45000000 58c34885 c0751abe  B...E...X.H..u..
 1b30 28000000 48c7c7c0 72000048 c7c24873  (...H...r..H..Hs
 1b40 0000e819 2400000f 0bbe1100 000048c7  ....$.........H.
 1b50 c7607300 0048c7c2 78730000 e8ff2300  .`s..H..xs....#.
 1b60 000f0b48 8d542407 be2b0000 0048c7c7  ...H.T$..+...H..
 1b70 a5740000 48c7c1d0 74000049 c7c00075  .t..H...t..I...u
 1b80 0000e8e9 2d00000f 0bcccccc cccccccc  ....-...........
 1b90 50415341 52415141 50575652 51504883  PASARAQAPWVRQPH.
 1ba0 ec48fc48 8d842498 00000048 89442408  .H.H..$....H.D$.
 1bb0 48c74424 10205900 0048c744 24182875  H.D$. Y..H.D$.(u
 1bc0 000048c7 44242002 00000048 c7442438  ..H.D$ ....H.D$8
 1bd0 00000000 488d4424 08488944 242848c7  ....H.D$.H.D$(H.
 1be0 44243001 00000048 8d7c2418 e88ffeff  D$0....H.|$.....
 1bf0 ff66ba00 10b02eee b00aeeb0 2eeeb00a  .f..............
 1c00 eeb02eee b00aeeb0 2eeeb00a ee4883c4  .............H..
 1c10 4858595a 5e5f4158 4159415a 415b4883  HXYZ^_AXAYAZA[H.
 1c20 c41048cf cccccccc cccccccc cccccccc  ..H.............
 1c30 50415341 52415141 50575652 51504883  PASARAQAPWVRQPH.
 1c40 ec48fc48 8d842498 00000048 89442408  .H.H..$....H.D$.
 1c50 48c74424 10d01700 0048c744 24185875  H.D$.....H.D$.Xu
 1c60 000048c7 44242002 00000048 c7442438  ..H.D$ ....H.D$8
 1c70 00000000 488d4424 08488944 242848c7  ....H.D$.H.D$(H.
 1c80 44243001 00000048 8d7c2418 e8effdff  D$0....H.|$.....
 1c90 ff66ba00 10b02eee b00aeeb0 2eeeb00a  .f..............
 1ca0 eeb02eee b00aee48 83c44858 595a5e5f  .......H..HXYZ^_
 1cb0 41584159 415a415b 4883c410 48cfcccc  AXAYAZA[H...H...
 1cc0 50415341 52415141 50575652 51504883  PASARAQAPWVRQPH.
 1cd0 ec48fc48 8d842498 00000048 89442408  .H.H..$....H.D$.
 1ce0 48c74424 10205900 0048c744 24182875  H.D$. Y..H.D$.(u
 1cf0 000048c7 44242002 00000048 c7442438  ..H.D$ ....H.D$8
 1d00 00000000 488d4424 08488944 242848c7  ....H.D$.H.D$(H.
 1d10 44243001 00000048 8d7c2418 e85ffdff  D$0....H.|$.._..
 1d20 ff66ba00 10b02eee b00aeeb0 2eeeb00a  .f..............
 1d30 ee666666 6666662e 0f1f8400 00000000  .ffffff.........
 1d40 ebfecccc cccccccc cccccccc cccccccc  ................
 1d50 41534152 41514150 57565251 504881ec  ASARAQAPWVRQPH..
 1d60 80000000 fc488d84 24c80000 00488944  .....H..$....H.D
 1d70 240848c7 442410a0 18000048 c7442448  $.H.D$.....H.D$H
 1d80 02000000 48c74424 58020000 0048c744  ....H.D$X....H.D
 1d90 24680000 000048b8 20000000 04000000  $h....H. .......
 1da0 48894424 70c64424 780348c7 442418c8  H.D$p.D$x.H.D$..
 1db0 75000048 c7442420 02000000 488d4424  u..H.D$ ....H.D$
 1dc0 48488944 243848c7 44244001 00000048  HH.D$8H.D$@....H
 1dd0 8d442408 48894424 2848c744 24300100  .D$.H.D$(H.D$0..
 1de0 0000488d 7c2418e8 94fcffff 4881c480  ..H.|$......H...
 1df0 00000058 595a5e5f 41584159 415a415b  ...XYZ^_AXAYAZA[
 1e00 48cfcccc cccccccc cccccccc cccccccc  H...............
 1e10 4881ec88 00000048 897c2408 488d4424  H......H.|$.H.D$
 1e20 08488944 241048c7 44241860 05000048  .H.D$.H.D$.`...H
 1e30 c7442450 02000000 48c74424 60020000  .D$P....H.D$`...
 1e40 0048c744 24700000 000048b8 20000000  .H.D$p....H. ...
 1e50 04000000 48894424 78c68424 80000000  ....H.D$x..$....
 1e60 0348c744 2420f075 000048c7 44242802  .H.D$ .u..H.D$(.
 1e70 00000048 8d442450 48894424 4048c744  ...H.D$PH.D$@H.D
 1e80 24480100 0000488d 44241048 89442430  $H....H.D$.H.D$0
 1e90 48c74424 38010000 00488d7c 2420e8dd  H.D$8....H.|$ ..
 1ea0 fbffff66 6666662e 0f1f8400 00000000  ...ffff.........
 1eb0 ebfecccc cccccccc cccccccc cccccccc  ................
 1ec0 55415741 56415541 5453b838 1d0000e8  UAWAVAUATS.8....
 1ed0 bb410000 4829c49c 58a90002 00000f85  .A..H)..X.......
 1ee0 0f120000 b8010000 0031c948 89de0fa2  .........1.H....
 1ef0 4887f3f7 c1000000 400f858d 1200008c  H.......@.......
 1f00 c883e003 66894424 284c8d74 24284c89  ....f.D$(L.t$(L.
 1f10 b424300f 000048c7 8424380f 0000704a  .$0...H..$8...pJ
 1f20 000048c7 84243001 00007876 000048c7  ..H..$0...xv..H.
 1f30 84243801 00000200 000048c7 84245001  .$8.......H..$P.
 1f40 00000000 0000488d 9c24300f 00004889  ......H..$0...H.
 1f50 9c244001 000048c7 84244801 00000100  .$@...H..$H.....
 1f60 0000488d bc243001 0000e811 fbffff48  ..H..$0........H
 1f70 c7842430 0f000095 73000048 c7842438  ..$0....s..H..$8
 1f80 0f0000f0 13000048 c7842430 010000a8  .......H..$0....
 1f90 76000048 c7842438 01000002 00000048  v..H..$8.......H
 1fa0 c7842450 01000000 00000048 899c2440  ..$P.......H..$@
 1fb0 01000048 c7842448 01000001 00000048  ...H..$H.......H
 1fc0 8d9c2430 01000048 89dfe8b1 faffff48  ..$0...H.......H
 1fd0 c7c1c876 000048c7 c6dd7600 00eb0e90  ...v..H...v.....
 1fe0 48ffc166 ba0010ee 4839f174 670fb601  H..f....H9.tg...
 1ff0 84c079ec 89c283e2 1f440fb6 41014183  ..y......D..A.A.
 2000 e03f3cdf 76330fb6 790241c1 e00683e7  .?<.v3..y.A.....
 2010 3f4409c7 3cf0722f 0fb64103 83e207c1  ?D..<.r/..A.....
 2020 e212c1e7 0683e03f 09f809d0 3d000011  .......?....=...
 2030 00742148 83c104eb aa4883c1 02c1e206  .t!H.....H......
 2040 4409c289 d0eb9c48 83c103c1 e20c09d7  D......H........
 2050 89f8eb8f 488b05d5 50000048 85c00f85  ....H...P..H....
 2060 550b0000 b9010000 0031c0f0 480fb10d  U........1..H...
 2070 bc500000 0f853f0b 0000b81c 00000048  .P....?........H
 2080 b9000000 00000e00 000f1f80 00000000  ................
 2090 48898c04 14010000 48c78404 1c010000  H.......H.......
 20a0 00000000 48898c04 24010000 48c78404  ....H...$...H...
 20b0 2c010000 00000000 4883c020 483d1c0e  ,.......H.. H=..
 20c0 000075cc 488dbc24 300f0000 488db424  ..u.H..$0...H..$
 20d0 30010000 ba000e00 00e82240 000048c7  0........."@..H.
 20e0 44244830 1c000048 c7c0301c 000048c1  D$H0...H..0...H.
 20f0 e82f742f 48c7c030 1c000048 c1e82f3d  ./t/H..0...H../=
 2100 ffff0100 741d83f8 010f8557 12000048  ....t......W...H
 2110 c7c0301c 000048c1 e01048c1 f8104889  ..0...H...H...H.
 2120 44244848 c7442440 c01c0000 8ccb48c7  D$HH.D$@......H.
 2130 c0c01c00 0048c1e8 2f742f48 c7c0c01c  .....H../t/H....
 2140 000048c1 e82f3dff ff010074 1d83f801  ..H../=....t....
 2150 0f851e12 000048c7 c0c01c00 0048c1e0  ......H......H..
 2160 1048c1f8 10488944 244048c7 44243890  .H...H.D$@H.D$8.
 2170 1b000041 8cc848c7 c0901b00 0048c1e8  ...A..H......H..
 2180 2f49c7c1 901b0000 742448c7 c1901b00  /I......t$H.....
 2190 0048c1e9 2f81f9ff ff010074 1183f901  .H../......t....
 21a0 0f85b211 000049c1 e11049c1 f910418c  ......I...I...A.
 21b0 ca4885c0 742f48c7 c0901b00 0048c1e8  .H..t/H......H..
 21c0 2f3dffff 0100741d 83f8010f 85871100  /=....t.........
 21d0 0048c7c0 901b0000 48c1e010 48c1f810  .H......H...H...
 21e0 48894424 3848c784 24800000 00501d00  H.D$8H..$....P..
 21f0 00418ccd 48c7c050 1d000048 c1e82f48  .A..H..P...H../H
 2200 c7c5501d 00007424 48c7c150 1d000048  ..P...t$H..P...H
 2210 c1e92f81 f9ffff01 00741183 f9010f85  ../......t......
 2220 f1100000 48c1e510 48c1fd10 8ccf4885  ....H...H.....H.
 2230 c0743248 c7c0501d 000048c1 e82f3dff  .t2H..P...H../=.
 2240 ff010074 2083f801 0f85c710 000048c7  ...t .........H.
 2250 c0501d00 0048c1e0 1048c1f8 10488984  .P...H...H...H..
 2260 24800000 0049c7c7 501d0000 8cc86689  $....I..P.....f.
 2270 44242648 c7c0501d 000048c1 e82f49c7  D$&H..P...H../I.
 2280 c4501d00 00742448 c7c1501d 000048c1  .P...t$H..P...H.
 2290 e92f81f9 ffff0100 741183f9 010f8572  ./......t......r
 22a0 10000049 c1e41049 c1fc108c c94885c0  ...I...I.....H..
 22b0 742348c7 c0501d00 0048c1e8 2f3dffff  t#H..P...H../=..
 22c0 01007411 83f8010f 85481000 0049c1e7  ..t......H...I..
 22d0 1049c1ff 1066895c 24246689 4c242248  .I...f.\$$f.L$"H
 22e0 c7c3501d 00008cc8 66894424 2048c7c0  ..P.....f.D$ H..
 22f0 501d0000 48c1e82f 49c7c350 1d000074  P...H../I..P...t
 2300 2448c7c1 501d0000 48c1e92f 81f9ffff  $H..P...H../....
 2310 01007411 83f9010f 85f80f00 0049c1e3  ..t..........I..
 2320 1049c1fb 108cc948 85c07423 48c7c050  .I.....H..t#H..P
 2330 1d000048 c1e82f3d ffff0100 741183f8  ...H../=....t...
 2340 010f85ce 0f000048 c1e31048 c1fb1048  .......H...H...H
 2350 c7c6501d 00008cca 48c7c050 1d000048  ..P.....H..P...H
 2360 c1e82f74 2348c7c0 501d0000 48c1e82f  ../t#H..P...H../
 2370 3dffff01 00741183 f8010f85 950f0000  =....t..........
 2380 48c1e610 48c1fe10 66895424 1c66894c  H...H...f.T$.f.L
 2390 241e48c7 c2901b00 008cc866 8944241a  $.H........f.D$.
 23a0 48c7c090 1b000048 c1e82f49 c7c6901b  H......H../I....
 23b0 00007424 48c7c190 1b000048 c1e92f81  ..t$H......H../.
 23c0 f9ffff01 00741183 f9010f85 880f0000  .....t..........
 23d0 49c1e610 49c1fe10 8cc96689 4c241048  I...I.....f.L$.H
 23e0 85c06644 89442418 66448954 24166644  ..fD.D$.fD.T$.fD
 23f0 896c2414 66897c24 12742348 c7c0901b  .l$.f.|$.t#H....
 2400 000048c1 e82f3dff ff010074 1183f801  ..H../=....t....
 2410 0f85420f 000048c1 e21048c1 fa104c89  ..B...H...H...L.
 2420 b4242001 00004c89 f048c1e8 20488984  .$ ...L..H.. H..
 2430 24280100 004489f0 c1e81089 44247c48  $(...D......D$|H
 2440 89b424e8 00000048 89f048c1 e8204889  ..$....H..H.. H.
 2450 84240001 000089f0 c1e81089 44247048  .$..........D$pH
 2460 899c2408 01000048 89d848c1 e8204889  ..$....H..H.. H.
 2470 84241001 000089d8 c1e81089 4424744c  .$..........D$tL
 2480 899c24e0 0000004c 89d848c1 e8204889  ..$....L..H.. H.
 2490 8424f000 00004489 d8c1e810 89442468  .$....D......D$h
 24a0 4c89f848 c1e82048 898424f8 00000044  L..H.. H..$....D
 24b0 89f8c1e8 10894424 6c4c89e0 48c1e820  ......D$lL..H.. 
 24c0 48898424 d8000000 4489e0c1 e8108944  H..$....D......D
 24d0 24644c8b ac248000 00004c89 eb48c1eb  $dL..$....L..H..
 24e0 204589ee 41c1ee10 4c89a424 a0000000   E..A...L..$....
 24f0 4989ec49 c1ec204c 89bc24c0 00000041  I..I.. L..$....A
 2500 89ef41c1 ef10488b 4c243848 89c848c1  ..A...H.L$8H..H.
 2510 e8204889 84241801 000089c8 c1e81089  . H..$..........
 2520 4424784c 89c848c1 e8204889 8424d000  D$xL..H.. H..$..
 2530 00004489 c8c1e810 89442460 488b7424  ..D......D$`H.t$
 2540 404889f0 48c1e820 48898424 a8000000  @H..H.. H..$....
 2550 89f0c1e8 10894424 54488b44 24484889  ......D$TH.D$HH.
 2560 c648c1ee 204889b4 24c80000 0089c6c1  .H.. H..$.......
 2570 ee108974 24584889 d6488994 24b00000  ...t$XH..H..$...
 2580 00c1ea10 8954245c 4889f248 c1ea2048  .....T$\H..H.. H
 2590 899424b8 0000008c ca668954 240e48c7  ..$......f.T$.H.
 25a0 05fd3b00 00000000 0066c705 fc3b0000  ..;......f...;..
 25b0 000048c7 05093c00 00000000 0066c705  ..H...<......f..
 25c0 083c0000 000048c7 05153c00 00000000  .<....H...<.....
 25d0 0048c705 103c0000 00000000 48c7050f  .H...<......H...
 25e0 3c000000 00000066 c7050e3c 00000000  <......f...<....
 25f0 48c7052b 3c000000 00000048 c705263c  H..+<......H..&<
 2600 00000000 000048c7 05253c00 00000000  ......H..%<.....
 2610 0066c705 243c0000 000048c7 05313c00  .f..$<....H..1<.
 2620 00000000 0048c705 2c3c0000 00000000  .....H..,<......
 2630 48c70531 3c000000 00000048 c705203c  H..1<......H.. <
 2640 00000000 000066c7 052f3c00 00000048  ......f../<....H
 2650 c7051c3c 00000000 000048c7 05373c00  ...<......H..7<.
 2660 00000000 0048c705 263c0000 00000000  .....H..&<......
 2670 48c70531 3c000000 00000048 c705203c  H..1<......H.. <
 2680 00000000 000048c7 052b3c00 00000000  ......H..+<.....
 2690 0048c705 1a3c0000 00000000 48c70525  .H...<......H..%
 26a0 3c000000 00000048 c705143c 00000000  <......H...<....
 26b0 000048c7 051f3c00 00000000 0048c705  ..H...<......H..
 26c0 0e3c0000 00000000 48c70519 3c000000  .<......H...<...
 26d0 00000048 c705083c 00000000 000048c7  ...H...<......H.
 26e0 05133c00 00000000 0048c705 023c0000  ..<......H...<..
 26f0 00000000 48c7050d 3c000000 00000048  ....H...<......H
 2700 c705fc3b 00000000 000048c7 05073c00  ...;......H...<.
 2710 00000000 0048c705 f63b0000 00000000  .....H...;......
 2720 488dbc24 30010000 488db424 300f0000  H..$0...H..$0...
 2730 ba000e00 004c898c 24980000 00e8be39  .....L..$......9
 2740 0000c605 d7390000 01664489 2ddf3900  .....9...fD.-.9.
 2750 000fb744 24266689 05d53900 0066c705  ...D$&f...9..f..
 2760 ce390000 008e6644 8935c839 0000891d  .9....fD.5.9....
 2770 c4390000 c705be39 00000000 00006689  .9.....9......f.
 2780 2dbb3900 000fb744 24126689 05b13900  -.9....D$.f...9.
 2790 0066c705 aa390000 008e6644 893da439  .f...9....fD.=.9
 27a0 00004489 259f3900 00c70599 39000000  ..D.%.9.....9...
 27b0 00000048 8b8424e8 00000066 89058e39  ...H..$....f...9
 27c0 00000fb7 44241a66 89058439 000066c7  ....D$.f...9..f.
 27d0 057d3900 00008e8b 44247066 89057439  .}9.....D$pf..t9
 27e0 0000488b 84240001 00008905 68390000  ..H..$......h9..
 27f0 c7056239 00000000 0000488b 8424a000  ..b9......H..$..
 2800 00006689 05573900 000fb744 24226689  ..f..W9....D$"f.
 2810 054d3900 0066c705 46390000 008e8b44  .M9..f..F9.....D
 2820 24646689 053d3900 00488b84 24d80000  $df..=9..H..$...
 2830 00890531 390000c7 052b3900 00000000  ...19....+9.....
 2840 00488b84 24e00000 00668905 20390000  .H..$....f.. 9..
 2850 0fb74424 1e668905 16390000 66c7050f  ..D$.f...9..f...
 2860 39000000 8e8b4424 68668905 06390000  9.....D$hf...9..
 2870 488b8424 f0000000 8905fa38 0000c705  H..$.......8....
 2880 f4380000 00000000 488b8424 08010000  .8......H..$....
 2890 668905e9 3800000f b744241c 668905df  f...8....D$.f...
 28a0 38000066 c705d838 0000008e 8b442474  8..f...8.....D$t
 28b0 668905cf 38000048 8b842410 01000089  f...8..H..$.....
 28c0 05c33800 00c705bd 38000000 00000048  ..8.....8......H
 28d0 8b8424c0 00000066 8905b238 00000fb7  ..$....f...8....
 28e0 44242066 8905a838 000066c7 05a13800  D$ f...8..f...8.
 28f0 00008e8b 44246c66 89059838 0000488b  ....D$lf...8..H.
 2900 8424f800 00008905 8c380000 48c70585  .$.......8..H...
 2910 38000000 00000066 c7058438 0000000e  8......f...8....
 2920 488b4424 40668905 84380000 0fb74424  H.D$@f...8....D$
 2930 18668905 7a380000 66c70573 38000000  .f..z8..f..s8...
 2940 8e8b4424 54668905 6a380000 488b8424  ..D$Tf..j8..H..$
 2950 a8000000 89055e38 000048c7 05573800  ......^8..H..W8.
 2960 00000000 0066c705 56380000 000e488b  .....f..V8....H.
 2970 84249800 00006689 05533800 000fb744  .$....f..S8....D
 2980 24166689 05493800 0066c705 42380000  $.f..I8..f..B8..
 2990 008e8b44 24606689 05393800 00488b84  ...D$`f..98..H..
 29a0 24d00000 0089052d 38000048 c7052638  $......-8..H..&8
 29b0 00000000 000066c7 05253800 00000e66  ......f..%8....f
 29c0 c7052c38 0000000e 488b8424 20010000  ..,8....H..$ ...
 29d0 66890529 3800000f b7442410 6689051f  f..)8....D$.f...
 29e0 38000066 c7051838 0000008e 8b44247c  8..f...8.....D$|
 29f0 6689050f 38000048 8b842428 01000089  f...8..H..$(....
 2a00 05033800 00c705fd 37000000 00000048  ..8.....7......H
 2a10 8b442448 668905f5 3700000f b7442424  .D$Hf...7....D$$
 2a20 668905eb 37000066 c705e437 0000008e  f...7..f...7....
 2a30 8b442458 668905db 37000048 8b8424c8  .D$Xf...7..H..$.
 2a40 00000089 05cf3700 0048c705 c8370000  ......7..H...7..
 2a50 00000000 66c705c7 37000000 0e66c705  ....f...7....f..
 2a60 ce370000 000e488b 8424b000 00006689  .7....H..$....f.
 2a70 05cb3700 000fb744 240e6689 05c13700  ..7....D$.f...7.
 2a80 0066c705 ba370000 008e8b44 245c6689  .f...7.....D$\f.
 2a90 05b13700 00488b84 24b80000 008905a5  ..7..H..$.......
 2aa0 37000048 c7059e37 00000000 000066c7  7..H...7......f.
 2ab0 059d3700 00000e66 c705a437 0000000e  ..7....f...7....
 2ac0 66c705ab 37000000 0e488b44 24386689  f...7....H.D$8f.
 2ad0 05ab3700 000fb744 24146689 05a13700  ..7....D$.f...7.
 2ae0 0066c705 9a370000 008e8b44 24786689  .f...7.....D$xf.
 2af0 05913700 00488b84 24180100 00890585  ..7..H..$.......
 2b00 37000048 c7057e37 00000000 000066c7  7..H..~7......f.
 2b10 057d3700 00000e66 c7058437 0000000e  .}7....f...7....
 2b20 66c7058b 37000000 0e66c705 92370000  f...7....f...7..
 2b30 000e66c7 05993700 00000e66 c705a037  ..f...7....f...7
 2b40 0000000e 66c705a7 37000000 0e66c705  ....f...7....f..
 2b50 ae370000 000e66c7 05b53700 00000ec7  .7....f...7.....
 2b60 05bb3700 00000e00 0048c705 b4370000  ..7......H...7..
 2b70 00000000 ba000e00 0048c7c7 30630000  .........H..0c..
 2b80 488db424 30010000 e8733500 00b80200  H..$0....s5.....
 2b90 00004887 05974500 004c8d74 2428488d  ..H...E..L.t$(H.
 2ba0 9c243001 0000eb21 0f1f8400 00000000  .$0....!........
 2bb0 f390488b 05774500 004883f8 0174f148  ..H..wE..H...t.H
 2bc0 83f8020f 85130700 0048c7c0 30610000  .........H..0a..
 2bd0 48c7c130 61000048 c1e92f74 2448c7c1  H..0a..H../t$H..
 2be0 30610000 48c1e92f 81f9ffff 01007411  0a..H../......t.
 2bf0 83f9010f 852a0700 0048c1e0 1048c1f8  .....*...H...H..
 2c00 1066c784 24300100 00ff0f48 89842432  .f..$0.....H..$2
 2c10 0100000f 011bfb48 c7c1dd76 000048c7  .......H...v..H.
 2c20 c6fa7600 00eb1666 0f1f8400 00000000  ..v....f........
 2c30 48ffc166 ba0010ee 4839f174 670fb601  H..f....H9.tg...
 2c40 84c079ec 89c283e2 1f440fb6 41014183  ..y......D..A.A.
 2c50 e03f3cdf 76330fb6 790241c1 e00683e7  .?<.v3..y.A.....
 2c60 3f4409c7 3cf0722f 0fb64103 83e207c1  ?D..<.r/..A.....
 2c70 e212c1e7 0683e03f 09f809d0 3d000011  .......?....=...
 2c80 00742148 83c104eb aa4883c1 02c1e206  .t!H.....H......
 2c90 4409c289 d0eb9c48 83c103c1 e20c09d7  D......H........
 2ca0 89f8eb8f 48c78424 30010000 10770000  ....H..$0....w..
 2cb0 48c78424 38010000 01000000 48c78424  H..$8.......H..$
 2cc0 50010000 00000000 488d4424 08488984  P.......H.D$.H..
 2cd0 24400100 0048c784 24480100 00000000  $@...H..$H......
 2ce0 00488d9c 24300100 004889df e88fedff  .H..$0...H......
 2cf0 ff9c58a9 00020000 0f854605 000048c7  ..X.......F...H.
 2d00 c1207700 0048c7c6 3c770000 eb0f6690  . w..H..<w....f.
 2d10 48ffc166 ba0010ee 4839f174 670fb601  H..f....H9.tg...
 2d20 84c079ec 89c283e2 1f440fb6 41014183  ..y......D..A.A.
 2d30 e03f3cdf 76330fb6 790241c1 e00683e7  .?<.v3..y.A.....
 2d40 3f4409c7 3cf0722f 0fb64103 83e207c1  ?D..<.r/..A.....
 2d50 e212c1e7 0683e03f 09f809d0 3d000011  .......?....=...
 2d60 00742148 83c104eb aa4883c1 02c1e206  .t!H.....H......
 2d70 4409c289 d0eb9c48 83c103c1 e20c09d7  D......H........
 2d80 89f8eb8f 66ba0010 b048eeb0 65eeb06c  ....f....H..e..l
 2d90 eeeeb06f eeb020ee b077eeb0 6feeb072  ...o.. ..w..o..r
 2da0 eeb06cee b064eeb0 20eeb070 eeb06fee  ..l..d.. ..p..o.
 2db0 b072eeb0 74eeb02c eeb020ee b066eeb0  .r..t..,.. ..f..
 2dc0 72eeb06f eeb06dee b020eeb0 74eeb065  r..o..m.. ..t..e
 2dd0 eeb073ee b074eeb0 69eeb06e eeb067ee  ..s..t..i..n..g.
 2de0 b020eeb0 72eeb075 eeb073ee b074eeb0  . ..r..u..s..t..
 2df0 21eeeeb0 0aee48c7 c13c7700 0048c7c6  !.....H..<w..H..
 2e00 5a770000 eb17662e 0f1f8400 00000000  Zw....f.........
 2e10 48ffc166 ba0010ee 4839f174 670fb601  H..f....H9.tg...
 2e20 84c079ec 89c283e2 1f440fb6 41014183  ..y......D..A.A.
 2e30 e03f3cdf 76330fb6 790241c1 e00683e7  .?<.v3..y.A.....
 2e40 3f4409c7 3cf0722f 0fb64103 83e207c1  ?D..<.r/..A.....
 2e50 e212c1e7 0683e03f 09f809d0 3d000011  .......?....=...
 2e60 00742148 83c104eb aa4883c1 02c1e206  .t!H.....H......
 2e70 4409c289 d0eb9c48 83c103c1 e20c09d7  D......H........
 2e80 89f8eb8f 48c7c15a 77000048 c7c67477  ....H..Zw..H..tw
 2e90 0000eb19 6666662e 0f1f8400 00000000  ....fff.........
 2ea0 48ffc166 ba0010ee 4839f174 670fb601  H..f....H9.tg...
 2eb0 84c079ec 89c283e2 1f440fb6 41014183  ..y......D..A.A.
 2ec0 e03f3cdf 76330fb6 790241c1 e00683e7  .?<.v3..y.A.....
 2ed0 3f4409c7 3cf0722f 0fb64103 83e207c1  ?D..<.r/..A.....
 2ee0 e212c1e7 0683e03f 09f809d0 3d000011  .......?....=...
 2ef0 00742148 83c104eb aa4883c1 02c1e206  .t!H.....H......
 2f00 4409c289 d0eb9c48 83c103c1 e20c09d7  D......H........
 2f10 89f8eb8f 66c78424 30010000 000048c7  ....f..$0.....H.
 2f20 84243201 00000000 00000f01 0b0fb784  .$2.............
 2f30 24380100 00668984 24900000 00488b84  $8...f..$....H..
 2f40 24300100 00488984 24880000 00488d84  $0...H..$....H..
 2f50 24880000 00488944 242848c7 442430e0  $....H.D$(H.D$0.
 2f60 16000048 c7842430 01000002 00000048  ...H..$0.......H
 2f70 c7842440 01000002 00000048 c7842450  ..$@.......H..$P
 2f80 01000000 00000048 b8200000 00040000  .......H. ......
 2f90 00488984 24580100 00c68424 60010000  .H..$X.....$`...
 2fa0 0348c784 24300f00 00807700 0048c784  .H..$0....w..H..
 2fb0 24380f00 00020000 0048899c 24500f00  $8.......H..$P..
 2fc0 0048c784 24580f00 00010000 004c89b4  .H..$X.......L..
 2fd0 24400f00 0048c784 24480f00 00010000  $@...H..$H......
 2fe0 00488d9c 24300f00 004889df e88feaff  .H..$0...H......
 2ff0 ff0fb604 25014006 00884424 284c89b4  ....%.@...D$(L..
 3000 24300f00 0048c784 24380f00 00f04900  $0...H..$8....I.
 3010 0048c784 24300100 00b07700 0048c784  .H..$0....w..H..
 3020 24380100 00020000 0048c784 24500100  $8.......H..$P..
 3030 00000000 0048899c 24400100 0048c784  .....H..$@...H..
 3040 24480100 00010000 00488dbc 24300100  $H.......H..$0..
 3050 00e82aea ffff48c7 c1d07700 0048c7c6  ..*...H...w..H..
 3060 eb770000 eb17662e 0f1f8400 00000000  .w....f.........
 3070 48ffc166 ba0010ee 4839f174 730fb601  H..f....H9.ts...
 3080 84c079ec 89c283e2 1f440fb6 41014183  ..y......D..A.A.
 3090 e03f3cdf 76330fb6 790241c1 e00683e7  .?<.v3..y.A.....
 30a0 3f4409c7 3cf0722f 0fb64103 83e207c1  ?D..<.r/..A.....
 30b0 e212c1e7 0683e03f 09f809d0 3d000011  .......?....=...
 30c0 00742d48 83c104eb aa4883c1 02c1e206  .t-H.....H......
 30d0 4409c289 d0eb9c48 83c103c1 e20c09d7  D......H........
 30e0 89f8eb8f 6666662e 0f1f8400 00000000  ....fff.........
 30f0 f4ebfd48 c7c11076 000048c7 c6277600  ...H...v..H..'v.
 3100 00eb1e66 6666662e 0f1f8400 00000000  ...ffff.........
 3110 48ffc166 ba0010ee 4839f10f 84c3edff  H..f....H9......
 3120 ff0fb601 84c079e8 89c283e2 1f440fb6  ......y......D..
 3130 41014183 e03f3cdf 76370fb6 790241c1  A.A..?<.v7..y.A.
 3140 e00683e7 3f4409c7 3cf07233 0fb64103  ....?D..<.r3..A.
 3150 83e207c1 e212c1e7 0683e03f 09f809d0  ...........?....
 3160 3d000011 000f8479 edffff48 83c104eb  =......y...H....
 3170 a24883c1 02c1e206 4409c289 d0eb9448  .H......D......H
 3180 83c103c1 e20c09d7 89f8eb87 bd0a0000  ................
 3190 00488d9c 24300100 004c8db4 24300f00  .H..$0...L..$0..
 31a0 004c8d7c 2428eb7b 0f1f8400 00000000  .L.|$(.{........
 31b0 488b8424 30010000 48898424 380f0000  H..$0...H..$8...
 31c0 b8010000 00488984 24300f00 004c8974  .....H..$0...L.t
 31d0 242848c7 442430e0 15000048 c7842430  $(H.D$0....H..$0
 31e0 01000040 76000048 c7842438 01000002  ...@v..H..$8....
 31f0 00000048 c7842450 01000000 0000004c  ...H..$P.......L
 3200 89bc2440 01000048 c7842448 01000001  ..$@...H..$H....
 3210 00000048 89dfe865 e8ffffff cd0f84dc  ...H...e........
 3220 ecffff48 c7842430 01000000 00000048  ...H..$0.......H
 3230 89dfe879 e2ffff83 f8010f84 70ffffff  ...y........p...
 3240 31c0eb81 48c7c110 76000048 c7c62776  1...H...v..H..'v
 3250 0000eb1d 6666662e 0f1f8400 00000000  ....fff.........
 3260 48ffc166 ba0010ee 4839f10f 848dfaff  H..f....H9......
 3270 ff0fb601 84c079e8 89c283e2 1f440fb6  ......y......D..
 3280 41014183 e03f3cdf 76370fb6 790241c1  A.A..?<.v7..y.A.
 3290 e00683e7 3f4409c7 3cf07233 0fb64103  ....?D..<.r3..A.
 32a0 83e207c1 e212c1e7 0683e03f 09f809d0  ...........?....
 32b0 3d000011 000f8443 faffff48 83c104eb  =......C...H....
 32c0 a24883c1 02c1e206 4409c289 d0eb9448  .H......D......H
 32d0 83c103c1 e20c09d7 89f8eb87 4885c075  ............H..u
 32e0 1abe2800 000048c7 c7c07200 0048c7c2  ..(...H...r..H..
 32f0 48730000 e8670c00 000f0bbe 11000000  Hs...g..........
 3300 48c7c760 73000048 c7c27873 0000e84d  H..`s..H..xs...M
 3310 0c00000f 0b48c784 24300100 00501d00  .....H..$0...P..
 3320 00eb5d48 c7842430 01000030 61000048  ..]H..$0...0a..H
 3330 8d942430 010000be 4a000000 48c7c726  ..$0....J...H..&
 3340 8a000048 c7c1708a 000049c7 c0908a00  ...H..p...I.....
 3350 00e81a16 00000f0b 48c78424 30010000  ........H..$0...
 3360 901b0000 eb1a48c7 84243001 0000301c  ......H..$0...0.
 3370 0000eb0c 48c78424 30010000 c01c0000  ....H..$0.......
 3380 488d9424 30010000 be4a0000 0048c7c7  H..$0....J...H..
 3390 268a0000 48c7c1f0 73000049 c7c0908a  &...H...s..I....
 33a0 0000e8c9 1500000f 0bcccccc cccccccc  ................
 33b0 488b0766 6666662e 0f1f8400 00000000  H..ffff.........
 33c0 ebfecccc cccccccc cccccccc cccccccc  ................
 33d0 4883ec28 48c70424 68880000 48c74424  H..(H..$h...H.D$
 33e0 08a87800 0048897c 24104889 74241866  ..x..H.|$.H.t$.f
 33f0 c7442420 01004889 e7e812ea ffff0f0b  .D$ ..H.........
 3400 48b82b26 43a554b2 af9148ba 58c45ddc  H.+&C.T...H.X.].
 3410 7dac7ed1 c3cccccc cccccccc cccccccc  }.~.............
 3420 4883ec68 48897c24 0848c744 24108000  H..hH.|$.H.D$...
 3430 0000488d 44240848 89442418 48c74424  ..H.D$.H.D$.H.D$
 3440 20205900 00488d44 24104889 44242848    Y..H.D$.H.D$(H
 3450 c7442430 20590000 48c74424 38587b00  .D$0 Y..H.D$8X{.
 3460 0048c744 24400200 000048c7 44245800  .H.D$@....H.D$X.
 3470 00000048 8d442418 48894424 4848c744  ...H.D$.H.D$HH.D
 3480 24500200 0000488d 7c243848 c7c6087a  $P....H.|$8H...z
 3490 0000e839 ffffff0f 0bcccccc cccccccc  ...9............
 34a0 4883ec68 48897c24 08488974 2410488d  H..hH.|$.H.t$.H.
 34b0 44241048 89442418 48c74424 20205900  D$.H.D$.H.D$  Y.
 34c0 00488d44 24084889 44242848 c7442430  .H.D$.H.D$(H.D$0
 34d0 20590000 48c74424 38007900 0048c744   Y..H.D$8.y..H.D
 34e0 24400200 000048c7 44245800 00000048  $@....H.D$X....H
 34f0 8d442418 48894424 4848c744 24500200  .D$.H.D$HH.D$P..
 3500 0000488d 7c243848 89d6e8c1 feffff0f  ..H.|$8H........
 3510 0bcccccc cccccccc cccccccc cccccccc  ................
 3520 55415741 56415541 54534883 ec284c89  UAWAVAUATSH..(L.
 3530 c548894c 24104989 d34989f5 4989ff8b  .H.L$.I..I..I...
 3540 473489c1 83e101be 00001100 ba2b0000  G4...........+..
 3550 000f44d6 4c01c1a8 04753f45 31ed4983  ..D.L....u?E1.I.
 3560 3f000f84 8c010000 48896c24 20498b6f  ?.......H.l$ I.o
 3570 084829cd 7642a808 757f8954 240c4c89  .H).vB..u..T$.L.
 3580 5c241845 0fb66738 42ff24e5 40710000  \$.E..g8B.$.@q..
 3590 4989ec31 ede9a901 00004d85 db745344  I..1......M..tSD
 35a0 89db83e3 034983fb 040f83ae 00000031  .....I.........1
 35b0 ff31f6e9 ff000000 498b5f20 4d8b7728  .1......I._ M.w(
 35c0 4889df4c 89f64c89 e94d89d8 e85f0200  H..L..L..M..._..
 35d0 0041b401 84c0488b 5424200f 852f0200  .A....H.T$ ../..
 35e0 00498b46 184889df 488b7424 10e93501  .I.F.H..H.t$..5.
 35f0 000031ff e9ee0000 00418b47 30894424  ..1......A.G0.D$
 3600 1841c747 30300000 00410fb6 47388844  .A.G00...A..G8.D
 3610 240c41c6 4738014d 8b772049 8b5f284c  $.A.G8.M.w I._(L
 3620 89f74889 de4c89e9 4d89d8e8 00020000  ..H..L..M.......
 3630 41b40184 c00f85d5 01000048 ffc56690  A..........H..f.
 3640 48ffcd0f 84930100 004c89f7 be300000  H........L...0..
 3650 00ff5320 84c074e8 e9b30100 004d89d8  ..S ..t......M..
 3660 4983e0fc 31ff31f6 0f1f8400 00000000  I...1.1.........
 3670 4531c941 807c3500 c0410f9d c14901f9  E1.A.|5..A...I..
 3680 31ff4180 7c3501c0 400f9dc7 4531d241  1.A.|5..@...E1.A
 3690 807c3502 c0410f9d c24901fa 4d01ca31  .|5..A...I..M..1
 36a0 ff41807c 3503c040 0f9dc74c 01d74883  .A.|5..@...L..H.
 36b0 c6044939 f075b948 85db742b 4c01ee45  ..I9.u.H..t+L..E
 36c0 31c06666 6666662e 0f1f8400 00000000  1.fffff.........
 36d0 4531c942 803c06c0 410f9dc1 4c01cf49  E1.B.<..A...L..I
 36e0 ffc04c39 c375e948 01f94983 3f000f85  ..L9.u.H..I.?...
 36f0 74feffff 498b5f20 4d8b7728 4889df4c  t...I._ M.w(H..L
 3700 89f64c89 e94d89d8 e8230100 0041b401  ..L..M...#...A..
 3710 84c00f85 f8000000 498b4618 4889df48  ........I.F.H..H
 3720 8b742410 4889ea48 83c4285b 415c415d  .t$.H..H..([A\A]
 3730 415e415f 5dffe049 89ec49d1 ec48ffc5  A^A_]..I..I..H..
 3740 48d1ed4d 8b772049 8b5f2845 8b7f3049  H..M.w I._(E..0I
 3750 ffc46666 6666662e 0f1f8400 00000000  ..fffff.........
 3760 4c89f749 ffcc7412 4489feff 532084c0  L..I..t.D...S ..
 3770 74ee41b4 01e99600 00004889 de8b5424  t.A.......H...T$
 3780 0c4c89e9 4c8b4424 18e8a200 000041b4  .L..L.D$......A.
 3790 0184c075 7b4c89f7 488b7424 10488b54  ...u{L..H.t$.H.T
 37a0 2420ff53 1884c075 674989ed 49f7dd49  $ .S...ugI..I..I
 37b0 c7c4ffff ffff662e 0f1f8400 00000000  ......f.........
 37c0 4b8d042c 4883f8ff 743c4c89 f74489fe  K..,H...t<L..D..
 37d0 ff532049 ffc484c0 74e6eb2d 4c89f748  .S I....t..-L..H
 37e0 8b742410 488b5424 20ff5318 84c07520  .t$.H.T$ .S...u 
 37f0 8b442418 41894730 0fb64424 0c418847  .D$.A.G0..D$.A.G
 3800 384531e4 eb0a4989 ec4939ec 410f92c4  8E1...I..I9.A...
 3810 4489e048 83c4285b 415c415d 415e415f  D..H..([A\A]A^A_
 3820 5dc3cccc cccccccc cccccccc cccccccc  ]...............
 3830 41574156 41545350 4c89c349 89ce4989  AWAVATSPL..I..I.
 3840 f44989ff 81fa0000 11007412 4c89ff89  .I........t.L...
 3850 d641ff54 242089c1 b00184c9 75224d85  .A.T$ ......u"M.
 3860 f6741b49 8b442418 4c89ff4c 89f64889  .t.I.D$.L..L..H.
 3870 da4883c4 085b415c 415e415f ffe031c0  .H...[A\A^A_..1.
 3880 4883c408 5b415c41 5e415fc3 cccccccc  H...[A\A^A_.....
 3890 4883ec68 48897c24 08488974 2410488d  H..hH.|$.H.t$.H.
 38a0 44240848 89442418 48c74424 20205900  D$.H.D$.H.D$  Y.
 38b0 00488d44 24104889 44242848 c7442430  .H.D$.H.D$(H.D$0
 38c0 20590000 48c74424 38787b00 0048c744   Y..H.D$8x{..H.D
 38d0 24400200 000048c7 44245800 00000048  $@....H.D$X....H
 38e0 8d442418 48894424 4848c744 24500200  .D$.H.D$HH.D$P..
 38f0 0000488d 7c243848 c7c6307e 0000e8cd  ..H.|$8H..0~....
 3900 faffff0f 0bcccccc cccccccc cccccccc  ................
 3910 55415741 56415541 54534883 ec184989  UAWAVAUATSH...I.
 3920 f6488b07 488b4f10 4889c648 09ce0f84  .H..H.O.H..H....
 3930 c8040000 4885c90f 84410100 004c8b47  ....H....A...L.G
 3940 18498d34 1649ffc0 31c94c89 f3eb1b90  .I.4.I..1.L.....
 3950 4c8d5b01 4829d94c 01d94c89 db4181f9  L.[.H).L..L..A..
 3960 00001100 0f841401 000049ff c80f8492  ..........I.....
 3970 00000048 39f30f84 02010000 440fb60b  ...H9.......D...
 3980 4584c979 cb4589ca 4183e21f 440fb67b  E..y.E..A...D..{
 3990 014183e7 3f4180f9 df76440f b66b0241  .A..?A...vD..k.A
 39a0 c1e70683 e53f4409 fd4180f9 f0724344  .....?D..A...rCD
 39b0 0fb64b03 4183e207 41c1e212 c1e50641  ..K.A...A......A
 39c0 83e13f41 09e94509 d14181f9 00001100  ..?A..E..A......
 39d0 0f84a800 00004c8d 5b04e975 ffffff4c  ......L.[..u...L
 39e0 8d5b0241 c1e20645 09fa4589 d1e962ff  .[.A...E..E...b.
 39f0 ffff4c8d 5b0341c1 e20c4409 d54189e9  ..L.[.A...D..A..
 3a00 e94fffff ff4839f3 74740fb6 334084f6  .O...H9.tt..3@..
 3a10 79474080 fee07241 4080fef0 723b440f  yG@...rA@...r;D.
 3a20 b6430141 83e03f44 0fb64b02 4183e13f  .C.A..?D..K.A..?
 3a30 440fb653 0383e607 c1e61241 c1e00c41  D..S.......A...A
 3a40 c1e10645 09c14183 e23f4509 ca4109f2  ...E..A..?E..A..
 3a50 4181fa00 00110074 254885c9 74124839  A......t%H..t.H9
 3a60 d1730b41 803c0ec0 7d0631f6 eb0575fa  .s.A.<..}.1...u.
 3a70 4c89f648 85f6480f 45d14c0f 45f64885  L..H..H.E.L.E.H.
 3a80 c00f8475 0300004c 8b670848 83fa2073  ...u...L.g.H.. s
 3a90 1a4885d2 746789d1 83e10348 83fa0473  .H..tg.....H...s
 3aa0 6c31c045 31d2e9b9 0000004c 89642408  l1.E1......L.d$.
 3ab0 4d8d6607 4983e4f8 4c89e04c 29f04889  M.f.I...L..L).H.
 3ac0 d14829c1 89ce83e6 074d89e2 4d29f275  .H)......M..M).u
 3ad0 084531c0 e95e0100 004d89f0 49f7d04d  .E1..^...M..I..M
 3ae0 01e04489 d083e003 4983f803 0f83b900  ..D.....I.......
 3af0 00004531 c04531c9 e90b0100 0031c049  ..E1.E1......1.I
 3b00 29c40f87 88000000 e9ef0200 004889d6  )............H..
 3b10 4883e6fc 31c04531 d20f1f80 00000000  H...1.E1........
 3b20 4531c043 803c16c0 410f9dc0 4901c031  E1.C.<..A...I..1
 3b30 c043807c 1601c00f 9dc04531 c943807c  .C.|......E1.C.|
 3b40 1602c041 0f9dc149 01c14d01 c131c043  ...A...I..M..1.C
 3b50 807c1603 c00f9dc0 4c01c849 83c2044c  .|......L..I...L
 3b60 39d675bc 4885c974 1e4d01f2 31f66690  9.u.H..t.M..1.f.
 3b70 4531c041 803c32c0 410f9dc0 4c01c048  E1.A.<2.A...L..H
 3b80 ffc64839 f175e949 29c40f86 6c020000  ..H9.u.I)...l...
 3b90 0fb64738 ff24c560 7100004c 89642408  ..G8.$.`q..L.d$.
 3ba0 4889d345 31e4e924 03000041 83e20445  H..E1..$...A...E
 3bb0 31c04531 c966662e 0f1f8400 00000000  1.E1.ff.........
 3bc0 4531db43 803c0ec0 410f9dc3 4d01c345  E1.C.<..A...M..E
 3bd0 31c04380 7c0e01c0 410f9dc0 4531ff43  1.C.|...A...E1.C
 3be0 807c0e02 c0410f9d c74d01c7 4d01df45  .|...A...M..M..E
 3bf0 31c04380 7c0e03c0 410f9dc0 4d01f849  1.C.|...A...M..I
 3c00 83c1044d 39ca75b8 4885c074 2a4d01f1  ...M9.u.H..t*M..
 3c10 4531d266 6666662e 0f1f8400 00000000  E1.ffff.........
 3c20 4531db43 803c11c0 410f9dc3 4d01d849  E1.C.<..A...M..I
 3c30 ffc24c39 d075e948 85f64889 5424100f  ..L9.u.H..H.T$..
 3c40 84900000 004989c9 4983e1f8 31c04380  .....I..I...1.C.
 3c50 3c0cc00f 9dc083fe 01747c45 31d24380  <........t|E1.C.
 3c60 7c0c01c0 410f9dc2 4c01d083 fe027467  |...A...L.....tg
 3c70 4531d243 807c0c02 c0410f9d c24c01d0  E1.C.|...A...L..
 3c80 83fe0374 524531d2 43807c0c 03c0410f  ...tRE1.C.|...A.
 3c90 9dc24c01 d083fe04 743d4531 d243807c  ..L.....t=E1.C.|
 3ca0 0c04c041 0f9dc24c 01d083fe 05742845  ...A...L.....t(E
 3cb0 31d24380 7c0c05c0 410f9dc2 4c01d083  1.C.|...A...L...
 3cc0 fe067413 31f64380 7c0c06c0 400f9dc6  ..t.1.C.|...@...
 3cd0 4801f0eb 0231c04c 01c048c1 e90349b9  H....1.L..H...I.
 3ce0 01010101 01010101 49b8ff00 ff00ff00  ........I.......
 3cf0 ff0048be 01000100 01000100 eb376690  ..H..........7f.
 3d00 4531ed4f 8d24da4c 29d94589 df4183e7  E1.O.$.L).E..A..
 3d10 034c89eb 4c21c349 c1ed084d 21c54901  .L..L!.I...M!.I.
 3d20 dd4c0faf ee49c1ed 304c01e8 4d85ff0f  .L...I..0L..M...
 3d30 85e90000 004885c9 0f84ab00 00004d89  .....H........M.
 3d40 e24881f9 c0000000 41bbc000 00004c0f  .H......A.....L.
 3d50 42d94983 fb0472a8 4489dac1 ea0248c1  B.I...r.D.....H.
 3d60 e2054c01 d24531ed 4d89d70f 1f440000  ..L..E1.M....D..
 3d70 498b1f49 8b6f0849 89dc49f7 d449c1ec  I..I.o.I..I..I..
 3d80 0748c1eb 064c09e3 4c21cb4c 01eb4989  .H...L..L!.L..I.
 3d90 ec49f7d4 49c1ec07 48c1ed06 4c09e54c  .I..I...H...L..L
 3da0 21cd4d8b 67104d89 e549f7d5 49c1ed07  !.M.g.M..I..I...
 3db0 49c1ec06 4d09ec4d 21cc4901 ec4901dc  I...M..M!.I..I..
 3dc0 4d8b6f18 4c89eb48 f7d348c1 eb0749c1  M.o.L..H..H...I.
 3dd0 ed064909 dd4d21cd 4d01e549 83c72049  ..I..M!.M..I.. I
 3de0 39d7758c e91affff ff488b54 24104c8b  9.u......H.T$.L.
 3df0 64240849 29c40f87 94fdffff 488b4720  d$.I).......H.G 
 3e00 488b4f28 488b4918 4889c74c 89f64883  H.O(H.I.H..L..H.
 3e10 c4185b41 5c415d41 5e415f5d ffe14181  ..[A\A]A^A_]..A.
 3e20 e3fc0000 004b8b0c da4889ca 48f7d248  .....K...H..H..H
 3e30 c1ea0748 c1e90648 09d14c21 c94183ff  ...H...H..L!.A..
 3e40 01743e4b 8b54da08 4889d348 f7d348c1  .t>K.T..H..H..H.
 3e50 eb0748c1 ea064809 da4c21ca 4801d141  ..H...H..L!.H..A
 3e60 83ff0274 1c4b8b54 da104989 d249f7d2  ...t.K.T..I..I..
 3e70 49c1ea07 48c1ea06 4c09d24c 21ca4801  I...H...L..L!.H.
 3e80 d1488b54 24104c8b 64240849 89c94d21  .H.T$.L.d$.I..M!
 3e90 c148c1e9 084c21c1 4c01c948 0fafce48  .H...L!.L..H...H
 3ea0 c1e93048 01c84929 c40f87e1 fcffffe9  ..0H..I)........
 3eb0 48ffffff 4889d331 c0eb0f48 89d34c89  H...H..1...H..L.
 3ec0 e049d1ec 48ffc048 d1e84889 4424084c  .I..H..H..H.D$.L
 3ed0 8b7f204c 8b6f288b 6f3049ff c40f1f00  .. L.o(.o0I.....
 3ee0 4c89ff49 ffcc740e 89ee41ff 552084c0  L..I..t...A.U ..
 3ef0 74eeb001 eb4f4c89 f64889da 41ff5518  t....OL..H..A.U.
 3f00 89c1b001 84c9753d 4c8b6424 084d89e6  ......u=L.d$.M..
 3f10 49f7de48 c7c3ffff ffff660f 1f440000  I..H......f..D..
 3f20 498d041e 4883f8ff 74124c89 ff89ee41  I...H...t.L....A
 3f30 ff552048 ffc384c0 74e6eb03 4c89e34c  .U H....t...L..L
 3f40 39e30f92 c04883c4 185b415c 415d415e  9....H...[A\A]A^
 3f50 415f5dc3 cccccccc cccccccc cccccccc  A_].............
 3f60 4883ec48 48897c24 08488974 2410488d  H..HH.|$.H.t$.H.
 3f70 44240848 89442418 48c74424 20010000  D$.H.D$.H.D$ ...
 3f80 0048c744 24380000 000048c7 44242868  .H.D$8....H.D$(h
 3f90 88000048 c7442430 00000000 488d7c24  ...H.D$0....H.|$
 3fa0 184889d6 e827f4ff ff0f0bcc cccccccc  .H...'..........
 3fb0 4889f048 8b37488b 57084889 c7e94ef9  H..H.7H.W.H...N.
 3fc0 ffffcccc cccccccc cccccccc cccccccc  ................
 3fd0 488b0748 8b4f0848 8b491848 89c7ffe1  H..H.O.H.I.H....
 3fe0 55415741 56415541 54534883 ec4848c7  UAWAVAUATSH..HH.
 3ff0 44243820 000000c6 44244003 48c74424  D$8 ....D$@.H.D$
 4000 08000000 0048c744 24180000 00004889  .....H.D$.....H.
 4010 7c242848 89742430 4c8b6220 4d85e448  |$(H.t$0L.b M..H
 4020 8914240f 841b0100 00488b42 284885c0  ..$......H.B(H..
 4030 0f847001 00004c8b 2a488b6a 104983c5  ..p...L.*H.j.I..
 4040 084c6bf0 3831db45 31ff660f 1f440000  .Lk.81.E1.f..D..
 4050 498b5500 4885d274 19488b7c 2428488b  I.U.H..t.H.|$(H.
 4060 44243049 8b75f8ff 501884c0 0f857501  D$0I.u..P.....u.
 4070 0000418b 441c2889 44243841 0fb6441c  ..A.D.(.D$8A..D.
 4080 30884424 40418b44 1c2c8944 243c498b  0.D$@A.D.,.D$<I.
 4090 4c1c1049 8b441c18 4885c974 2383f901  L..I.D..H..t#...
 40a0 751248c1 e00448c7 c1b03300 0048394c  u.H...H...3..H9L
 40b0 05087404 31c9eb0d 488b4405 00488b00  ..t.1...H.D..H..
 40c0 b9010000 0048894c 24084889 44241049  .....H.L$.H.D$.I
 40d0 8b0c1c49 8b441c08 4885c974 2383f901  ...I.D..H..t#...
 40e0 751248c1 e00448c7 c1b03300 0048394c  u.H...H...3..H9L
 40f0 05087404 31c9eb0d 488b4405 00488b00  ..t.1...H.D..H..
 4100 b9010000 0048894c 24184889 44242049  .....H.L$.H.D$ I
 4110 8b441c20 48c1e004 488b7c05 00488d74  .D. H...H.|..H.t
 4120 2408ff54 050884c0 0f85b900 00004983  $..T..........I.
 4130 c5104883 c33849ff c74939de 0f850eff  ..H..8I..I9.....
 4140 ffffeb65 488b5a18 4885db74 684c8b62  ...eH.Z.H..thL.b
 4150 1048c1e3 044c01e3 4c8b2a31 ed4531ff  .H...L..L.*1.E1.
 4160 498b542d 084885d2 7416488b 7c242848  I.T-.H..t.H.|$(H
 4170 8b442430 498b742d 00ff5018 84c07567  .D$0I.t-..P...ug
 4180 4d8d342c 498b3e48 8d742408 41ff5608  M.4,I.>H.t$.A.V.
 4190 84c07553 4883c510 4983c610 49ffc749  ..uSH...I...I..I
 41a0 39de75bc eb034531 ff488b04 244c3b78  9.u...E1.H..$L;x
 41b0 08720feb 364531ff 488b0424 4c3b7808  .r..6E1.H..$L;x.
 41c0 7329488b 0424488b 0049c1e7 04488b7c  s)H..$H..I...H.|
 41d0 2428488b 4c24304a 8b34384a 8b543808  $(H.L$0J.48J.T8.
 41e0 ff511884 c07404b0 01eb0231 c04883c4  .Q...t.....1.H..
 41f0 485b415c 415d415e 415f5dc3 cccccccc  H[A\A]A^A_].....
 4200 4881ec88 00000048 89f98b46 34a8100f  H......H...F4...
 4210 85d20000 00a8200f 85130100 00b82700  ...... .......'.
 4220 00004881 f9102700 000f8279 01000041  ..H...'....y...A
 4230 b8270000 0048bf4b 598638d6 c56d3490  .'...H.KY.8..m4.
 4240 4889c848 f7e748c1 ea0b69c2 10270000  H..H..H...i..'..
 4250 4189c941 29c14569 d17b1400 0041c1ea  A..A).Ei.{...A..
 4260 13416bc2 644129c1 450fb7c9 498d40fc  .Ak.dA).E...I.@.
 4270 470fb794 12207a00 00664689 54040447  G.... z..fF.T..G
 4280 0fb78c09 207a0000 6646894c 04064989  .... z..fF.L..I.
 4290 c04881f9 ffe0f505 4889d177 a34883fa  .H......H..w.H..
 42a0 63762b0f b7cac1e9 0269c97b 140000c1  cv+......i.{....
 42b0 e9116bf9 6429fa0f b7d20fb7 9412207a  ..k.d)........ z
 42c0 00006689 54040648 83c0fe48 89ca4883  ..f.T..H...H..H.
 42d0 fa0a0f83 e2000000 80c23088 54040748  ..........0.T..H
 42e0 ffc8e9e4 000000ba 81000000 b8300000  .............0..
 42f0 004989c8 6666662e 0f1f8400 00000000  .I..fff.........
 4300 4889d749 c1e80489 ca80e20f 80fa0a41  H..I...........A
 4310 b9570000 00440f42 c84100d1 44884c3c  .W...D.B.A..D.L<
 4320 06488d57 ff4883f9 104c89c1 73d2eb3e  .H.W.H...L..s..>
 4330 ba810000 00b83000 00004989 c80f1f00  ......0...I.....
 4340 4889d749 c1e80489 ca80e20f 80fa0a41  H..I...........A
 4350 b9370000 00440f42 c84100d1 44884c3c  .7...D.B.A..D.L<
 4360 06488d57 ff4883f9 104c89c1 73d24883  .H.W.H...L..s.H.
 4370 c7fe4881 ff800000 00777a41 b8810000  ..H......wzA....
 4380 004929d0 488d0c3c 4883c108 ba020000  .I).H..<H.......
 4390 004889f7 48c7c6b0 890000e8 80f1ffff  .H..H...........
 43a0 4881c488 000000c3 4889ca48 83fa630f  H.......H..H..c.
 43b0 87eefeff ffe914ff ffff0fb7 8c12207a  .............. z
 43c0 00006689 4c040648 83c0fe48 8d0c0448  ..f.L..H...H...H
 43d0 83c10841 b8270000 004929c0 4889f748  ...A.'...I).H..H
 43e0 c7c66888 000031d2 e833f1ff ff4881c4  ..h...1..3...H..
 43f0 88000000 c3e826f0 ffff0f0b cccccccc  ......&.........
 4400 4883ec68 48897c24 08488974 2410488d  H..hH.|$.H.t$.H.
 4410 44240848 89442418 48c74424 20205900  D$.H.D$.H.D$  Y.
 4420 00488d44 24104889 44242848 c7442430  .H.D$.H.D$(H.D$0
 4430 20590000 48c74424 38c07b00 0048c744   Y..H.D$8.{..H.D
 4440 24400200 000048c7 44245800 00000048  $@....H.D$X....H
 4450 8d442418 48894424 4848c744 24500200  .D$.H.D$HH.D$P..
 4460 0000488d 7c243848 89d6e861 efffff0f  ..H.|$8H...a....
 4470 0bcccccc cccccccc cccccccc cccccccc  ................
 4480 55415741 56415541 54534883 ec684889  UAWAVAUATSH..hH.
 4490 fb41b601 807f0800 741a4488 7308c643  .A......t.D.s..C
 44a0 09014889 d84883c4 685b415c 415d415e  ..H..H..h[A\A]A^
 44b0 415f5dc3 4989cf49 89d54889 f54c8b23  A_].I..I..H..L.#
 44c0 418b4424 340fb64b 09a8044c 89442408  A.D$4..K...L.D$.
 44d0 757b31d2 84c948c7 c0787900 0048c7c6  u{1...H..xy..H..
 44e0 7b790000 480f44f0 0f94c248 83ca0249  {y..H.D....H...I
 44f0 8b7c2420 498b4424 28ff5018 41b60184  .|$ I.D$(.P.A...
 4500 c0759749 8b7c2420 498b4424 284889ee  .u.I.|$ I.D$(H..
 4510 4c89eaff 501884c0 7580498b 7c242049  L...P...u.I.|$ I
 4520 8b442428 ba020000 0048c7c6 20790000  .D$(.....H.. y..
 4530 ff501884 c00f855f ffffff4c 89ff4c89  .P....._...L..L.
 4540 e6ff5424 084189c6 e94dffff ff84c975  ..T$.A...M.....u
 4550 29498b7c 2420498b 442428ba 03000000  )I.|$ I.D$(.....
 4560 48c7c67d 790000ff 501841b6 0184c00f  H..}y...P.A.....
 4570 8525ffff ff418b44 2434c644 24070149  .%...A.D$4.D$..I
 4580 8b4c2420 498b5424 2848894c 24104889  .L$ I.T$(H.L$.H.
 4590 54241848 8d4c2407 48894c24 20418b4c  T$.H.L$.H.L$ A.L
 45a0 2430410f b6542438 498b3424 498b7c24  $0A..T$8I.4$I.|$
 45b0 084d8b44 24104d8b 4c241889 44245c89  .M.D$.M.L$..D$\.
 45c0 4c245888 54246048 89742428 48897c24  L$X.T$`H.t$(H.|$
 45d0 304c8944 24384c89 4c244048 8d7c2410  0L.D$8L.L$@H.|$.
 45e0 48897c24 4848c744 24504879 00004889  H.|$HH.D$PHy..H.
 45f0 ee4c89ea e8570000 0084c075 2a488d7c  .L...W.....u*H.|
 4600 2410ba02 00000048 c7c62079 0000e83d  $......H.. y...=
 4610 00000084 c0751048 8d742428 4c89ffff  .....u.H.t$(L...
 4620 54240884 c0740841 b601e96b feffff48  T$...t.A...k...H
 4630 8b7c2448 488b4424 50ba0200 000048c7  .|$HH.D$P.....H.
 4640 c6807900 00ff5018 4189c6e9 4afeffff  ..y...P.A...J...
 4650 55415741 56415541 54534883 ec4848bb  UAWAVAUATSH..HH.
 4660 fffefefe fefefefe 49bd0a0a 0a0a0a0a  ........I.......
 4670 0a0a488b 47104889 44242848 8b074889  ..H.G.H.D$(H..H.
 4680 44242048 8b470848 89442418 48897424  D$ H.G.H.D$.H.t$
 4690 08488d46 08488944 243031ed 49bf8080  .H.F.H.D$01.I...
 46a0 80808080 808031ff 31c04889 542438eb  ......1.1.H.T$8.
 46b0 48666666 6666662e 0f1f8400 00000000  Hffffff.........
 46c0 807c32ff 0a0f94c0 4c89eb48 8b4c2428  .|2.....L..H.L$(
 46d0 8801488b 7c242048 8b442418 ff50184c  ..H.|$ H.D$..P.L
 46e0 89f784c0 488b5424 384d89fd 4d89e78b  ....H.T$8M..M...
 46f0 4424140f 85f30100 0084c00f 85e70100  D$..............
 4700 004839d5 76164989 eee96501 00006690  .H9.v.I...e...f.
 4710 4c89f549 39d60f87 57010000 4889d148  L..I9...W...H..H
 4720 29e9488b 44240848 01e84883 f9107330  ).H.D$.H..H...s0
 4730 4839ea0f 84370100 0031f60f 1f440000  H9...7...1...D..
 4740 803c300a 0f84e900 000048ff c64839f1  .<0.......H..H9.
 4750 75eee919 01000066 0f1f8400 00000000  u......f........
 4760 4c8d5807 4983e3f8 4929c374 33743131  L.X.I...I).t3t11
 4770 f6666666 6666662e 0f1f8400 00000000  .ffffff.........
 4780 803c300a 0f84a900 000048ff c64939f3  .<0.......H..I9.
 4790 75ee4989 fc488d71 f04939f3 760ceb58  u.I..H.q.I9.v..X
 47a0 4989fc48 8d71f045 31db488b 7c243048  I..H.q.E1.H.|$0H
 47b0 01ef6666 6666662e 0f1f8400 00000000  ..fffff.........
 47c0 4e8b441f f84e8b0c 1f4d89c2 4d31ea49  N.D..N...M..M1.I
 47d0 01da49f7 d04d21d0 4d89ca4d 31ea4901  ..I..M!.M..M1.I.
 47e0 da49f7d1 4d21d14d 09c14d85 f9750949  .I..M!.M..M..u.I
 47f0 83c31049 39f376c8 4939cb0f 84df0000  ...I9.v.I9......
 4800 004c01d8 4889d14c 29d94829 e931f64c  .L..H..L).H).1.L
 4810 89e76666 6666662e 0f1f8400 00000000  ..fffff.........
 4820 803c300a 740a48ff c64839f1 75f2eb40  .<0.t.H..H9.u..@
 4830 4c01de4c 8d342e49 ffc64801 f54839d5  L..L.4.I..H..H9.
 4840 0f83cafe ffff488b 44240880 3c280a0f  ......H.D$..<(..
 4850 85bbfeff ff4d89fc 4d89ef49 89dd31c0  .....M..M..I..1.
 4860 4c89f54c 89f3eb24 0f1f8400 00000000  L..L...$........
 4870 4989d64d 89fc4d89 ef4989dd b0014c89  I..M..M..I....L.
 4880 f54989fe 4889d348 39d7745c 89442414  .I..H..H9.t\.D$.
 4890 488b4424 28803800 7427ba04 00000048  H.D$(.8.t'.....H
 48a0 897c2440 488b7c24 2048c7c6 b1730000  .|$@H.|$ H...s..
 48b0 488b4424 18ff5018 488b7c24 4084c075  H.D$..P.H.|$@..u
 48c0 2b4889da 4829fa48 8b442408 488d3438  +H..H).H.D$.H.48
 48d0 4839fb0f 85e7fdff ff31c0e9 e8fdffff  H9.......1......
 48e0 4989d64c 89e7eb8b 31c0eb02 b0014883  I..L....1.....H.
 48f0 c4485b41 5c415d41 5e415f5d c3cccccc  .H[A\A]A^A_]....
 4900 41574156 41545350 89f34c8b 7f104180  AWAVATSP..L...A.
 4910 3f004c8b 374c8b67 087426ba 04000000  ?.L.7L.g.t&.....
 4920 4c89f748 c7c6b173 000041ff 54241884  L..H...s..A.T$..
 4930 c0740eb0 014883c4 085b415c 415e415f  .t...H...[A\A^A_
 4940 c383fb0a 410f9407 498b4424 204c89f7  ....A...I.D$ L..
 4950 89de4883 c4085b41 5c415e41 5fffe0cc  ..H...[A\A^A_...
 4960 4889f248 c7c64879 0000e971 f6ffffcc  H..H..Hy...q....
 4970 4883ec78 48897c24 08488974 24104889  H..xH.|$.H.t$.H.
 4980 54241848 894c2420 488d4424 08488944  T$.H.L$ H.D$.H.D
 4990 242848c7 442430b0 3f000048 8d442418  $(H.D$0.?..H.D$.
 49a0 48894424 3848c744 2440d03f 000048c7  H.D$8H.D$@.?..H.
 49b0 44244828 79000048 c7442450 02000000  D$H(y..H.D$P....
 49c0 48c74424 68000000 00488d44 24284889  H.D$h....H.D$(H.
 49d0 44245848 c7442460 02000000 488d7c24  D$XH.D$`....H.|$
 49e0 484c89c6 e8e7e9ff ff0f0bcc cccccccc  HL..............
 49f0 4883ec28 0fb60748 83f86472 2a0fb6c8  H..(...H..dr*...
 4a00 8d14898d 0cd1c1e9 0c6bd164 28d00fb6  .........k.d(...
 4a10 c00fb784 00207a00 00668944 2426ba24  ..... z..f.D$&.$
 4a20 00000089 c8eb09ba 26000000 3c0a7308  ........&...<.s.
 4a30 0c308844 1401eb12 0fb78400 207a0000  .0.D........ z..
 4a40 66894424 26ba2500 0000488d 0c1448ff  f.D$&.%...H...H.
 4a50 c141b827 00000049 29d04889 f748c7c6  .A.'...I).H..H..
 4a60 68880000 31d2e8b5 eaffff48 83c428c3  h...1......H..(.
 4a70 4883ec28 0fb7073d 10270000 724e0fb7  H..(...=.'..rN..
 4a80 c8c1e904 69c94703 0000c1e9 1369d110  ....i.G......i..
 4a90 27000029 d00fb7d0 69d27b14 0000c1ea  '..)....i.{.....
 4aa0 136bfa64 29f80fb7 c00fb794 12207a00  .k.d)........ z.
 4ab0 00668954 24240fb7 8400207a 00006689  .f.T$$.... z..f.
 4ac0 442426ba 23000000 89c8eb3c ba270000  D$&.#......<.'..
 4ad0 006683f8 64722b0f b7c8c1e9 0269c97b  .f..dr+......i.{
 4ae0 140000c1 e9116bd1 6429d00f b7c00fb7  ......k.d)......
 4af0 8400207a 00006689 442426ba 25000000  .. z..f.D$&.%...
 4b00 89c86683 f80a730a 0c308804 1448ffca  ..f...s..0...H..
 4b10 eb140fb7 c00fb784 00207a00 00668944  ......... z..f.D
 4b20 14ff4883 c2fe488d 0c1448ff c141b827  ..H...H...H..A.'
 4b30 00000049 29d04889 f748c7c6 68880000  ...I).H..H..h...
 4b40 31d2e8d9 e9ffff48 83c428c3 cccccccc  1......H..(.....
 4b50 41574156 41554154 534883ec 604889fb  AWAVAUATSH..`H..
 4b60 807f1000 4c8b2fb0 01741a88 431049ff  ....L./..t..C.I.
 4b70 c54c892b 4889d848 83c4605b 415c415d  .L.+H..H..`[A\A]
 4b80 415e415f c34989d6 4989f74c 8b630841  A^A_.I..I..L.c.A
 4b90 8b442434 a804753d 31d24d85 ed48c7c0  .D$4..u=1.M..H..
 4ba0 8c790000 48c7c67b 79000048 0f44f00f  .y..H..{y..H.D..
 4bb0 95c248ff c2498b7c 2420498b 442428ff  ..H..I.|$ I.D$(.
 4bc0 501889c1 b00184c9 75a14c89 ff4c89e6  P.......u.L..L..
 4bd0 41ffd6eb 964d85ed 752a498b 7c242049  A....M..u*I.|$ I
 4be0 8b442428 ba020000 0048c7c6 8d790000  .D$(.....H...y..
 4bf0 ff501889 c1b00184 c90f856c ffffff41  .P.........l...A
 4c00 8b442434 c6442407 01498b4c 2420498b  .D$4.D$..I.L$ I.
 4c10 54242848 894c2448 48895424 50488d4c  T$(H.L$HH.T$PH.L
 4c20 24074889 4c245841 8b4c2430 410fb654  $.H.L$XA.L$0A..T
 4c30 2438498b 3424498b 7c24084d 8b442410  $8I.4$I.|$.M.D$.
 4c40 4d8b4c24 18894424 3c894c24 38885424  M.L$..D$<.L$8.T$
 4c50 40488974 24084889 7c24104c 89442418  @H.t$.H.|$.L.D$.
 4c60 4c894c24 20488d44 24484889 44242848  L.L$ H.D$HH.D$(H
 4c70 c7442430 48790000 488d7424 084c89ff  .D$0Hy..H.t$.L..
 4c80 41ffd684 c07407b0 01e9ddfe ffff488b  A....t........H.
 4c90 7c242848 8b442430 ba020000 0048c7c6  |$(H.D$0.....H..
 4ca0 80790000 ff5018e9 bffeffff cccccccc  .y...P..........
 4cb0 41574156 534883ec 604889fb b001807f  AWAVSH..`H......
 4cc0 08007414 884308c6 43090148 89d84883  ..t..C..C..H..H.
 4cd0 c4605b41 5e415fc3 4989f64c 8b3b418b  .`[A^A_.I..L.;A.
 4ce0 47340fb6 4b09a804 753084c9 741f498b  G4..K...u0..t.I.
 4cf0 7f20498b 4728ba02 00000048 c7c67b79  . I.G(.....H..{y
 4d00 0000ff50 1889c1b0 0184c975 b7498b3e  ...P.......u.I.>
 4d10 4c89fee8 68b3ffff ebaa84c9 7523498b  L...h.......u#I.
 4d20 7f20498b 4728ba01 00000048 c7c69079  . I.G(.....H...y
 4d30 0000ff50 1889c1b0 0184c975 87418b47  ...P.......u.A.G
 4d40 34c64424 0701498b 4f20498b 57284889  4.D$..I.O I.W(H.
 4d50 4c244848 89542450 488d4c24 0748894c  L$HH.T$PH.L$.H.L
 4d60 2458418b 4f30410f b6573849 8b37498b  $XA.O0A..W8I.7I.
 4d70 7f084d8b 47104d8b 4f188944 243c894c  ..M.G.M.O..D$<.L
 4d80 24388854 24404889 74240848 897c2410  $8.T$@H.t$.H.|$.
 4d90 4c894424 184c894c 2420488d 44244848  L.D$.L.L$ H.D$HH
 4da0 89442428 48c74424 30487900 00498b3e  .D$(H.D$0Hy..I.>
 4db0 488d7424 08e8c6b2 ffff84c0 7407b001  H.t$........t...
 4dc0 e9fffeff ff488b7c 2428488b 442430ba  .....H.|$(H.D$0.
 4dd0 02000000 48c7c680 790000ff 5018e9e1  ....H...y...P...
 4de0 feffffcc cccccccc cccccccc cccccccc  ................
 4df0 4889fa48 8b7e2048 8b7628e9 e0f1ffff  H..H.~ H.v(.....
 4e00 41565348 83ec1841 89f64889 fb83fe27  AVSH...A..H....'
 4e10 77144489 f0ff24c5 80710000 66c7035c  w.D...$..q..f..\
 4e20 30e9b800 00004183 fe5c753f 66c7035c  0.....A..\u?f..\
 4e30 5ce9a800 000066c7 035c74e9 9e000000  \.....f..\t.....
 4e40 66c7035c 6ee99400 000066c7 035c72e9  f..\n.....f..\r.
 4e50 8a000000 f7c20000 0100740f 66c7035c  ..........t.f..\
 4e60 22eb7bf7 c2000100 00756ef6 c2010f84  ".{......un.....
 4e70 1e010000 4489f2c1 e20bb921 00000031  ....D......!...1
 4e80 c0beff00 0000bf21 000000eb 0b0f1f00  .......!........
 4e90 4889cf48 29c1765f 48d1e948 01c1448b  H..H).v_H..H..D.
 4ea0 0c8d0885 000041c1 e10b4531 c04139d1  ......A...E1.A9.
 4eb0 410f95c0 440f42c6 4180f801 74d2410f  A...D.B.A...t.A.
 4ec0 b6c048ff c13dff00 00007528 4889c848  ..H..=....u(H..H
 4ed0 89f94829 c177c1eb 1e66c703 5c2748c7  ..H).w...f..\'H.
 4ee0 43020000 000066c7 430a0002 4883c418  C.....f.C...H...
 4ef0 5b415ec3 4889c848 83f8200f 87c70200  [A^.H..H.. .....
 4f00 008b3c85 08850000 c1ef1548 83f82075  ..<........H.. u
 4f10 0cb81f00 0000b9d7 020000eb 168b0c85  ................
 4f20 0c850000 c1e91548 85c00f84 70010000  .......H....p...
 4f30 48ffc8ba ffff1f00 23148508 85000048  H.......#......H
 4f40 89f848f7 d04801c8 74424489 f029d048  ..H..H..tBD..).H
 4f50 ffc931f6 4889fa66 0f1f8400 00000000  ..1.H..f........
 4f60 4881fad6 0200000f 87380200 00440fb6  H........8...D..
 4f70 828c8500 004401c6 39c6770d 48ffc248  .....D..9.w.H..H
 4f80 39d175dc 4889cfeb 034889d7 40f6c701  9.u.H....H..@...
 4f90 750a4183 fe200f83 c4000000 c6442410  u.A.. .......D$.
 4fa0 0066c744 240e0000 c6442417 7d4489f0  .f.D$....D$.}D..
 4fb0 c1e81483 e00f0fb6 80b87500 00884424  ..........u...D$
 4fc0 114489f0 c1e81083 e00f0fb6 80b87500  .D............u.
 4fd0 00884424 124489f0 c1e80c83 e00f0fb6  ..D$.D..........
 4fe0 80b87500 00884424 134489f0 c1e80883  ..u...D$.D......
 4ff0 e00f0fb6 80b87500 00884424 144489f0  ......u...D$.D..
 5000 c1e80483 e00f0fb6 80b87500 00884424  ..........u...D$
 5010 154489f0 83e00f0f b680b875 00008844  .D.........u...D
 5020 24164183 ce01410f bdc683f0 1cc1e802  $.A...A.........
 5030 488d48fe c644040e 7b66c744 040c5c75  H.H..D..{f.D..\u
 5040 0fb74424 16668943 08488b44 240e4889  ..D$.f.C.H.D$.H.
 5050 03884b0a c6430b0a 4883c418 5b415ec3  ..K..C..H...[A^.
 5060 4183fe7f 0f822c01 00004181 fe000001  A.....,...A.....
 5070 00734348 c704242f 010000ba 28000000  .sCH..$/....(...
 5080 41b81f01 00004489 f748c7c6 26810000  A.....D..H..&...
 5090 48c7c176 81000049 c7c19582 0000eb4a  H..v...I.......J
 50a0 31d24889 f848f7d0 4801c80f 8599feff  1.H..H..H.......
 50b0 ffe9d6fe ffff4181 fe000002 00733d48  ......A......s=H
 50c0 c70424c2 010000ba 2c000000 41b8c400  ..$.....,...A...
 50d0 00004489 f748c7c6 487e0000 48c7c1a0  ..D..H..H~..H...
 50e0 7e000049 c7c1647f 0000e811 07000084  ~..I..d.........
 50f0 c00f84a5 feffffe9 9a000000 418d8650  ............A..P
 5100 dcfcff3d 50dd0a00 0f828efe ffff418d  ...=P.........A.
 5110 86b5ecfc ff83f805 0f827efe ffff418d  ..........~...A.
 5120 86e205fd ff3de205 00000f82 6cfeffff  .....=......l...
 5130 418d861f 14fdff3d 1f0c0000 0f825afe  A......=......Z.
 5140 ffff418d 865e31fd ff83f80e 0f824afe  ..A..^1.......J.
 5150 ffff4489 f083e0fe 3d1eb802 000f8439  ..D.....=......9
 5160 feffff44 89f083e0 e03de0a6 02000f84  ...D.....=......
 5170 28feffff 418d86c6 48fdff83 f8060f82  (...A...H.......
 5180 18feffff 418d8610 fef1ff3d 10fe0200  ....A......=....
 5190 0f8206fe ffffc603 80448973 044883c4  .........D.s.H..
 51a0 185b415e c34881ff d8020000 b8d70200  .[A^.H..........
 51b0 00480f42 f8bed702 000048c7 c2608400  .H.B......H..`..
 51c0 00e8dae2 ffff0f0b bf210000 00be2100  .........!....!.
 51d0 000048c7 c2488400 00e8c2e2 ffff0f0b  ..H..H..........
 51e0 50e80a00 00000f0b cccccccc cccccccc  P...............
 51f0 4881ecd8 00000048 899424c0 00000048  H......H..$....H
 5200 898c24c8 00000048 81fe0101 0000726c  ..$....H......rl
 5210 b8000100 0080bf00 010000bf 7f2eb8ff  ................
 5220 00000080 bfff0000 00bf7f20 b8fe0000  ........... ....
 5230 0080bffe 000000bf 7f12b8fd 00000080  ................
 5240 bffd0000 00bf0f8e f9010000 48897c24  ............H.|$
 5250 10488944 2418b805 00000049 c7c1e07b  .H.D$......I...{
 5260 00004c89 8c24a000 00004889 8424a800  ..L..$....H..$..
 5270 00004839 f27631e9 d6000000 48897c24  ..H9.v1.....H.|$
 5280 10488974 241849c7 c1688800 0031c04c  .H.t$.I..h...1.L
 5290 898c24a0 00000048 898424a8 00000048  ..$....H..$....H
 52a0 39f20f87 aa000000 4839f10f 87a10000  9.......H9......
 52b0 004839ca 0f862301 0000488d 8424c000  .H9...#...H..$..
 52c0 00004889 44245048 c7442458 20590000  ..H.D$PH.D$X Y..
 52d0 488d8424 c8000000 48894424 6048c744  H..$....H.D$`H.D
 52e0 24682059 0000488d 44241048 89442470  $h Y..H.D$.H.D$p
 52f0 48c74424 78b03f00 00488d84 24a00000  H.D$x.?..H..$...
 5300 00488984 24800000 0048c784 24880000  .H..$....H..$...
 5310 00b03f00 0048c744 2420f87b 000048c7  ..?..H.D$ .{..H.
 5320 44242804 00000048 c7442440 00000000  D$(....H.D$@....
 5330 488d4424 50488944 243048c7 44243804  H.D$PH.D$0H.D$8.
 5340 00000048 8d7c2420 4c89c6e8 80e0ffff  ...H.|$ L.......
 5350 0f0b4839 f2480f47 ca48898c 24b00000  ..H9.H.G.H..$...
 5360 00488d84 24b00000 00488944 245048c7  .H..$....H.D$PH.
 5370 44245820 59000048 8d442410 48894424  D$X Y..H.D$.H.D$
 5380 6048c744 2468b03f 0000488d 8424a000  `H.D$h.?..H..$..
 5390 00004889 44247048 c7442478 b03f0000  ..H.D$pH.D$x.?..
 53a0 48c74424 20d87c00 0048c744 24280300  H.D$ .|..H.D$(..
 53b0 000048c7 44244000 00000048 8d442450  ..H.D$@....H.D$P
 53c0 48894424 3048c744 24380300 0000488d  H.D$0H.D$8....H.
 53d0 7c24204c 89c6e8f5 dfffff0f 0b4885d2  |$ L.........H..
 53e0 740b4839 f2730680 3c17c07c 034889ca  t.H9.s..<..|.H..
 53f0 48899424 d0000000 4889f048 39f20f83  H..$....H..H9...
 5400 9d000000 31c94889 d04883e8 03480f43  ....1.H..H...H.C
 5410 c8488d42 014839c1 76144889 cf4889c6  .H.B.H9.v.H..H..
 5420 48c7c280 7d0000e8 d4efffff 0f0b746e  H...}.........tn
 5430 4c8d0c0f 4801f84c 29c8803c 17bf7e13  L...H..L)..<..~.
 5440 48ffc8eb 59b9fd00 000031d2 e88ffdff  H...Y.....1.....
 5450 ff0f0b48 39d17446 4801fa80 7affbf7e  ...H9.tFH...z..~
 5460 064883c0 feeb374c 8d52ff4d 39d1742e  .H....7L.R.M9.t.
 5470 807afebf 7e064883 c0fdeb22 4c8d52fe  .z..~.H...."L.R.
 5480 4d39d174 19807afd bf7e0648 83c0fceb  M9.t..z..~.H....
 5490 0d4883c2 fd4939d1 74044883 c0fb4801  .H...I9.t.H...H.
 54a0 c84885c0 75054889 f1eb1d48 89f14829  .H..u.H....H..H)
 54b0 c1761380 3c07bf7f 0f4889c2 4889f1e8  .v..<....H..H...
 54c0 1cfdffff 0f0b75f1 4885c975 16be2b00  ......u.H..u..+.
 54d0 000048c7 c7eb7700 004c89c2 e87feaff  ..H...w..L......
 54e0 ff0f0b0f b6140784 d2780e89 54240cb9  .........x..T$..
 54f0 01000000 e9850000 0089d183 e11f440f  ..............D.
 5500 b64c0701 4183e13f 80fadf76 330fb674  .L..A..?...v3..t
 5510 070241c1 e10683e6 3f4409ce 80faf072  ..A.....?D.....r
 5520 290fb654 070383e1 07c1e112 c1e60683  )..T............
 5530 e23f09f2 09ca81fa 00001100 748feb11  .?..........t...
 5540 c1e10644 09c989ca eb07c1e1 0c09ce89  ...D............
 5550 f2895424 0cb90100 000081fa 80000000  ..T$............
 5560 721cb902 00000081 fa000800 00720f81  r............r..
 5570 fa000001 00b90400 00004883 d9004801  ..........H...H.
 5580 c1488984 24b00000 0048898c 24b80000  .H..$....H..$...
 5590 00488d84 24d00000 00488944 245048c7  .H..$....H.D$PH.
 55a0 44245820 59000048 8d44240c 48894424  D$X Y..H.D$.H.D$
 55b0 6048c744 24685056 0000488d 8424b000  `H.D$hPV..H..$..
 55c0 00004889 44247048 c7442478 80570000  ..H.D$pH.D$x.W..
 55d0 488d4424 10488984 24800000 0048c784  H.D$.H..$....H..
 55e0 24880000 00b03f00 00488d84 24a00000  $.....?..H..$...
 55f0 00488984 24900000 0048c784 24980000  .H..$....H..$...
 5600 00b03f00 0048c744 2420707c 000048c7  ..?..H.D$ p|..H.
 5610 44242805 00000048 c7442440 00000000  D$(....H.D$@....
 5620 488d4424 50488944 243048c7 44243805  H.D$PH.D$0H.D$8.
 5630 00000048 8d7c2420 4c89c6e8 90ddffff  ...H.|$ L.......
 5640 0f0bcccc cccccccc cccccccc cccccccc  ................
 5650 55415741 56415453 4883ec10 4989fe48  UAWAVATSH...I..H
 5660 8b5e2048 8b462848 8b402048 89dfbe27  .^ H.F(H.@ H...'
 5670 00000049 89c4ffd0 84c0740f b0014883  ...I......t...H.
 5680 c4105b41 5c415e41 5f5dc341 8b364889  ..[A\A^A_].A.6H.
 5690 e7ba0101 0000e865 f7ffff80 3c248075  .......e....<$.u
 56a0 6440b580 eb2a662e 0f1f8400 00000000  d@...*f.........
 56b0 8b742404 c7442408 00000000 48c70424  .t$..D$.....H..$
 56c0 00000000 31ed4889 df41ffd4 84c075ac  ....1.H..A....u.
 56d0 4080fd80 74da440f b674240a 443a7424  @...t.D..t$.D:t$
 56e0 0b736741 8d460188 44240a41 80fe0a73  .sgA.F..D$.A...s
 56f0 72420fb6 34344889 df41ffd4 84c074d0  rB..44H..A....t.
 5700 e977ffff ff440fb6 7c240b44 0fb67424  .w...D..|$.D..t$
 5710 0a666666 6666662e 0f1f8400 00000000  .ffffff.........
 5720 4d39fe73 25418d46 01884424 0a4983fe  M9.s%A.F..D$.I..
 5730 09773042 0fb63434 4889df41 ffd449ff  .w0B..44H..A..I.
 5740 c684c074 dbe932ff ffff4889 dfbe2700  ...t..2...H...'.
 5750 00004c89 e04883c4 105b415c 415e415f  ..L..H...[A\A^A_
 5760 5dffe0be 0a000000 4c89f748 c7c2f084  ].......L..H....
 5770 0000e829 ddffff0f 0bcccccc cccccccc  ...)............
 5780 41565348 83ec3848 89f34989 fe488b3f  AVSH..8H..I..H.?
 5790 e86beaff ff84c075 4348c744 24089078  .k.....uCH.D$..x
 57a0 000048c7 44241001 00000048 c7442428  ..H.D$.....H.D$(
 57b0 00000000 48c74424 18688800 0048c744  ....H.D$.h...H.D
 57c0 24200000 0000488b 7b20488b 7328488d  $ ....H.{ H.s(H.
 57d0 542408e8 08e8ffff 84c0740a b0014883  T$........t...H.
 57e0 c4385b41 5ec3498b 7e084889 de4883c4  .8[A^.I.~.H..H..
 57f0 385b415e e907eaff ffcccccc cccccccc  8[A^............
 5800 41574156 41545350 4c8b5424 304189fb  AWAVATSPL.T$0A..
 5810 41c1eb08 488d1c56 31c04989 f7440fb6  A...H..V1.I..D..
 5820 76014883 c6024a8d 14304538 1f754148  v.H...J..0E8.uAH
 5830 39d00f87 ab000000 4c39c20f 87b60000  9.......L9......
 5840 004801c8 4531ff66 0f1f8400 00000000  .H..E1.f........
 5850 4d39fe74 1d4d8d67 0142383c 384d89e7  M9.t.M.g.B8<8M..
 5860 75eeeb6f 6666662e 0f1f8400 00000000  u..offf.........
 5870 77084889 d04839de 75a04d01 ca0fb7cf  w.H..H9.u.M.....
 5880 b0016666 6666662e 0f1f8400 00000000  ..fffff.........
 5890 498d7101 410fb611 84d27814 4989f129  I.q.A.....x.I..)
 58a0 d17927eb 3066662e 0f1f8400 00000000  .y'.0ff.........
 58b0 4c39d674 4f410fb6 71014983 c10283e2  L9.tOA..q.I.....
 58c0 7fc1e208 09f229d1 780b3401 4d39d175  ......).x.4.M9.u
 58d0 bfeb0231 c0240148 83c4085b 415c415e  ...1.$.H...[A\A^
 58e0 415fc348 89c74889 d648c7c2 307e0000  A_.H..H..H..0~..
 58f0 e80bebff ff0f0b48 89d74c89 c6e88edf  .......H..L.....
 5900 ffff0f0b be2b0000 0048c7c7 eb770000  .....+...H...w..
 5910 48c7c218 7e0000e8 44e6ffff 0f0bcccc  H...~...D.......
 5920 4883ec28 488b0fb8 27000000 4881f910  H..(H...'...H...
 5930 2700000f 82b60000 0041b827 00000048  '........A.'...H
 5940 bf4b5986 38d6c56d 340f1f80 00000000  .KY.8..m4.......
 5950 4889c848 f7e748c1 ea0b69c2 10270000  H..H..H...i..'..
 5960 4189c941 29c14569 d17b1400 0041c1ea  A..A).Ei.{...A..
 5970 13416bc2 644129c1 450fb7c9 498d40fc  .Ak.dA).E...I.@.
 5980 470fb794 12207a00 00664689 5404fd47  G.... z..fF.T..G
 5990 0fb78c09 207a0000 6646894c 04ff4989  .... z..fF.L..I.
 59a0 c04881f9 ffe0f505 4889d177 a34883fa  .H......H..w.H..
 59b0 63762b0f b7cac1e9 0269c97b 140000c1  cv+......i.{....
 59c0 e9116bf9 6429fa0f b7d20fb7 9412207a  ..k.d)........ z
 59d0 00006689 5404ff48 83c0fe48 89ca4883  ..f.T..H...H..H.
 59e0 fa0a7316 80c23088 140448ff c8eb1c48  ..s...0...H....H
 59f0 89ca4883 fa6377bb ebe40fb7 8c12207a  ..H..cw....... z
 5a00 00006689 4c04ff48 83c0fe48 8d0c0448  ..f.L..H...H...H
 5a10 ffc141b8 27000000 4929c048 89f748c7  ..A.'...I).H..H.
 5a20 c6688800 0031d2e8 f4daffff 4883c428  .h...1......H..(
 5a30 c3cccccc cccccccc cccccccc cccccccc  ................
 5a40 4881ec88 00000048 8b0fba81 000000b8  H......H........
 5a50 30000000 4989c866 0f1f8400 00000000  0...I..f........
 5a60 4889d749 c1e80489 ca80e20f 80fa0a41  H..I...........A
 5a70 b9570000 00440f42 c84100d1 44884c3c  .W...D.B.A..D.L<
 5a80 06488d57 ff4883f9 104c89c1 73d24883  .H.W.H...L..s.H.
 5a90 c7fe4881 ff800000 00772d41 b8810000  ..H......w-A....
 5aa0 004929d0 488d0c3c 4883c108 ba020000  .I).H..<H.......
 5ab0 004889f7 48c7c6b0 890000e8 60daffff  .H..H.......`...
 5ac0 4881c488 000000c3 e853d9ff ff0f0bcc  H........S......
 5ad0 41565348 81ec9800 00004889 f34989fe  AVSH......H..I..
 5ae0 488b7e20 488b4628 ba100000 0048c7c6  H.~ H.F(.....H..
 5af0 a8750000 ff501848 895c2410 88442418  .u...P.H.\$..D$.
 5b00 48c74424 08000000 00c64424 19004c89  H.D$......D$..L.
 5b10 74242048 c7442428 405a0000 48c74424  t$ H.D$(@Z..H.D$
 5b20 60020000 0048c744 24700200 000048c7  `....H.D$p....H.
 5b30 84248000 00000000 000048b8 20000000  .$........H. ...
 5b40 04000000 48898424 88000000 c6842490  ....H..$......$.
 5b50 00000003 48c74424 30b88900 0048c744  ....H.D$0....H.D
 5b60 24380100 0000488d 44246048 89442450  $8....H.D$`H.D$P
 5b70 48c74424 58010000 00488d44 24204889  H.D$X....H.D$ H.
 5b80 44244048 c7442448 01000000 488d7c24  D$@H.D$H....H.|$
 5b90 08488d74 243048c7 c2f04d00 00e8aeef  .H.t$0H...M.....
 5ba0 ffff488b 4424080f b64c2418 4885c074  ..H.D$...L$.H..t
 5bb0 55b30184 c975514c 8b742410 4883f801  U....uQL.t$.H...
 5bc0 7529807c 24190074 2241f646 3404751b  u).|$..t"A.F4.u.
 5bd0 498b7e20 498b4628 ba010000 0048c7c6  I.~ I.F(.....H..
 5be0 8f790000 ff501884 c0751d49 8b7e2049  .y...P...u.I.~ I
 5bf0 8b4628ba 01000000 48c7c616 780000ff  .F(.....H...x...
 5c00 501889c3 eb0289cb 84db0f95 c04881c4  P............H..
 5c10 98000000 5b415ec3 cccccccc cccccccc  ....[A^.........
 5c20 41565348 81ec9800 00004889 f34989fe  AVSH......H..I..
 5c30 488b7e20 488b4628 ba080000 0048c7c6  H.~ H.F(.....H..
 5c40 c0730000 ff501848 895c2410 88442418  .s...P.H.\$..D$.
 5c50 48c74424 08000000 00c64424 19004c89  H.D$......D$..L.
 5c60 74242048 c7442428 405a0000 48c74424  t$ H.D$(@Z..H.D$
 5c70 60020000 0048c744 24700200 000048c7  `....H.D$p....H.
 5c80 84248000 00000000 000048b8 20000000  .$........H. ...
 5c90 04000000 48898424 88000000 c6842490  ....H..$......$.
 5ca0 00000003 48c74424 30b88900 0048c744  ....H.D$0....H.D
 5cb0 24380100 0000488d 44246048 89442450  $8....H.D$`H.D$P
 5cc0 48c74424 58010000 00488d44 24204889  H.D$X....H.D$ H.
 5cd0 44244048 c7442448 01000000 488d7c24  D$@H.D$H....H.|$
 5ce0 08488d74 243048c7 c2f04d00 00e85eee  .H.t$0H...M...^.
 5cf0 ffff488b 4424080f b64c2418 4885c074  ..H.D$...L$.H..t
 5d00 55b30184 c975514c 8b742410 4883f801  U....uQL.t$.H...
 5d10 7529807c 24190074 2241f646 3404751b  u).|$..t"A.F4.u.
 5d20 498b7e20 498b4628 ba010000 0048c7c6  I.~ I.F(.....H..
 5d30 8f790000 ff501884 c0751d49 8b7e2049  .y...P...u.I.~ I
 5d40 8b4628ba 01000000 48c7c616 780000ff  .F(.....H...x...
 5d50 501889c3 eb0289cb 84db0f95 c04881c4  P............H..
 5d60 98000000 5b415ec3 cccccccc cccccccc  ....[A^.........
 5d70 4883ec78 48893c24 48c74424 08405a00  H..xH.<$H.D$.@Z.
 5d80 0048c744 24400200 000048c7 44245002  .H.D$@....H.D$P.
 5d90 00000048 c7442460 00000000 48b82000  ...H.D$`....H. .
 5da0 00000400 00004889 442468c6 44247003  ......H.D$h.D$p.
 5db0 48c74424 10b88900 0048c744 24180100  H.D$.....H.D$...
 5dc0 0000488d 44244048 89442430 48c74424  ..H.D$@H.D$0H.D$
 5dd0 38010000 004889e0 48894424 2048c744  8....H..H.D$ H.D
 5de0 24280100 0000488b 7e20488b 7628488d  $(....H.~ H.v(H.
 5df0 542410e8 e8e1ffff 4883c478 c3cccccc  T$......H..x....
 5e00 4881ec88 0000008b 4634a810 0f85d500  H.......F4......
 5e10 0000a820 0f851601 0000488b 0fb82700  ... ......H...'.
 5e20 00004881 f9102700 000f8279 01000041  ..H...'....y...A
 5e30 b8270000 0048bf4b 598638d6 c56d3490  .'...H.KY.8..m4.
 5e40 4889c848 f7e748c1 ea0b69c2 10270000  H..H..H...i..'..
 5e50 4189c941 29c14569 d17b1400 0041c1ea  A..A).Ei.{...A..
 5e60 13416bc2 644129c1 450fb7c9 498d40fc  .Ak.dA).E...I.@.
 5e70 470fb794 12207a00 00664689 54040447  G.... z..fF.T..G
 5e80 0fb78c09 207a0000 6646894c 04064989  .... z..fF.L..I.
 5e90 c04881f9 ffe0f505 4889d177 a34883fa  .H......H..w.H..
 5ea0 63762b0f b7cac1e9 0269c97b 140000c1  cv+......i.{....
 5eb0 e9116bf9 6429fa0f b7d20fb7 9412207a  ..k.d)........ z
 5ec0 00006689 54040648 83c0fe48 89ca4883  ..f.T..H...H..H.
 5ed0 fa0a0f83 e2000000 80c23088 54040748  ..........0.T..H
 5ee0 ffc8e9e4 00000048 8b0fba81 000000b8  .......H........
 5ef0 30000000 4989c866 0f1f8400 00000000  0...I..f........
 5f00 4889d749 c1e80489 ca80e20f 80fa0a41  H..I...........A
 5f10 b9570000 00440f42 c84100d1 44884c3c  .W...D.B.A..D.L<
 5f20 06488d57 ff4883f9 104c89c1 73d2eb3e  .H.W.H...L..s..>
 5f30 488b0fba 81000000 b8300000 004989c8  H........0...I..
 5f40 4889d749 c1e80489 ca80e20f 80fa0a41  H..I...........A
 5f50 b9370000 00440f42 c84100d1 44884c3c  .7...D.B.A..D.L<
 5f60 06488d57 ff4883f9 104c89c1 73d24883  .H.W.H...L..s.H.
 5f70 c7fe4881 ff800000 00777a41 b8810000  ..H......wzA....
 5f80 004929d0 488d0c3c 4883c108 ba020000  .I).H..<H.......
 5f90 004889f7 48c7c6b0 890000e8 80d5ffff  .H..H...........
 5fa0 4881c488 000000c3 4889ca48 83fa630f  H.......H..H..c.
 5fb0 87eefeff ffe914ff ffff0fb7 8c12207a  .............. z
 5fc0 00006689 4c040648 83c0fe48 8d0c0448  ..f.L..H...H...H
 5fd0 83c10841 b8270000 004929c0 4889f748  ...A.'...I).H..H
 5fe0 c7c66888 000031d2 e833d5ff ff4881c4  ..h...1..3...H..
 5ff0 88000000 c3e826d4 ffff0f0b cccccccc  ......&.........
 6000 4881ec88 00000048 8b07488b 08ba8100  H......H..H.....
 6010 0000b830 00000049 89c8660f 1f440000  ...0...I..f..D..
 6020 4889d749 c1e80489 ca80e20f 80fa0a41  H..I...........A
 6030 b9570000 00440f42 c84100d1 44884c3c  .W...D.B.A..D.L<
 6040 06488d57 ff4883f9 104c89c1 73d24883  .H.W.H...L..s.H.
 6050 c7fe4881 ff800000 00772d41 b8810000  ..H......w-A....
 6060 004929d0 488d0c3c 4883c108 ba020000  .I).H..<H.......
 6070 004889f7 48c7c6b0 890000e8 a0d4ffff  .H..H...........
 6080 4881c488 000000c3 e893d3ff ff0f0b55  H..............U
 6090 4889e549 89c34981 fb001000 00761c48  H..I..I......v.H
 60a0 81ec0010 00004885 64240849 81eb0010  ......H.d$.I....
 60b0 00004981 fb001000 0077e44c 29dc4885  ..I......w.L).H.
 60c0 64240848 01c4c9c3 cccccccc cccccccc  d$.H............
 60d0 4889f841 89c041f7 d84183e0 074939d0  H..A..A..A...I9.
 60e0 4c0f43c2 4c89c1f3 a44c29c2 4889d148  L.C.L....L).H..H
 60f0 c1e903f3 48a583e2 074889d1 f3a4c3cc  ....H....H......
 6100 e9cbffff ff000000 00000000 00000000  ................
 6110 00000000 00000000 00000000 00000000  ................
 6120 00000000 00000000 00000000 00000000  ................
 6130 00000000 00000000 00000000 00000000  ................
 6140 00000000 00000000 00000000 00000000  ................
 6150 00000000 00000000 00000000 00000000  ................
 6160 00000000 00000000 00000000 00000000  ................
 6170 00000000 00000000 00000000 00000000  ................
 6180 00000000 00000000 00000000 00000000  ................
 6190 00000000 00000000 00000000 00000000  ................
 61a0 00000000 00000000 00000000 00000000  ................
 61b0 00000000 00000000 00000000 00000000  ................
 61c0 00000000 00000000 00000000 00000000  ................
 61d0 00000000 00000000 00000000 00000000  ................
 61e0 00000000 00000000 00000000 00000000  ................
 61f0 00000000 00000000 00000000 00000000  ................
 6200 00000000 00000000 00000000 00000000  ................
 6210 00000000 00000000 00000000 00000000  ................
 6220 00000000 00000000 00000000 00000000  ................
 6230 00000000 00000000 00000000 00000000  ................
 6240 00000000 00000000 00000000 00000000  ................
 6250 00000000 00000000 00000000 00000000  ................
 6260 00000000 00000000 00000000 00000000  ................
 6270 00000000 00000000 00000000 00000000  ................
 6280 00000000 00000000 00000000 00000000  ................
 6290 00000000 00000000 00000000 00000000  ................
 62a0 00000000 00000000 00000000 00000000  ................
 62b0 00000000 00000000 00000000 00000000  ................
 62c0 00000000 00000000 00000000 00000000  ................
 62d0 00000000 00000000 00000000 00000000  ................
 62e0 00000000 00000000 00000000 00000000  ................
 62f0 00000000 00000000 00000000 00000000  ................
 6300 00000000 00000000 00000000 00000000  ................
 6310 00000000 00000000 00000000 00000000  ................
 6320 00000000 00000000 00000000 00000000  ................
 6330 00000000 00000000 00000000 00000000  ................
 6340 00000000 00000000 00000000 00000000  ................
 6350 00000000 00000000 00000000 00000000  ................
 6360 00000000 00000000 00000000 00000000  ................
 6370 00000000 00000000 00000000 00000000  ................
 6380 00000000 00000000 00000000 00000000  ................
 6390 00000000 00000000 00000000 00000000  ................
 63a0 00000000 00000000 00000000 00000000  ................
 63b0 00000000 00000000 00000000 00000000  ................
 63c0 00000000 00000000 00000000 00000000  ................
 63d0 00000000 00000000 00000000 00000000  ................
 63e0 00000000 00000000 00000000 00000000  ................
 63f0 00000000 00000000 00000000 00000000  ................
 6400 00000000 00000000 00000000 00000000  ................
 6410 00000000 00000000 00000000 00000000  ................
 6420 00000000 00000000 00000000 00000000  ................
 6430 00000000 00000000 00000000 00000000  ................
 6440 00000000 00000000 00000000 00000000  ................
 6450 00000000 00000000 00000000 00000000  ................
 6460 00000000 00000000 00000000 00000000  ................
 6470 00000000 00000000 00000000 00000000  ................
 6480 00000000 00000000 00000000 00000000  ................
 6490 00000000 00000000 00000000 00000000  ................
 64a0 00000000 00000000 00000000 00000000  ................
 64b0 00000000 00000000 00000000 00000000  ................
 64c0 00000000 00000000 00000000 00000000  ................
 64d0 00000000 00000000 00000000 00000000  ................
 64e0 00000000 00000000 00000000 00000000  ................
 64f0 00000000 00000000 00000000 00000000  ................
 6500 00000000 00000000 00000000 00000000  ................
 6510 00000000 00000000 00000000 00000000  ................
 6520 00000000 00000000 00000000 00000000  ................
 6530 00000000 00000000 00000000 00000000  ................
 6540 00000000 00000000 00000000 00000000  ................
 6550 00000000 00000000 00000000 00000000  ................
 6560 00000000 00000000 00000000 00000000  ................
 6570 00000000 00000000 00000000 00000000  ................
 6580 00000000 00000000 00000000 00000000  ................
 6590 00000000 00000000 00000000 00000000  ................
 65a0 00000000 00000000 00000000 00000000  ................
 65b0 00000000 00000000 00000000 00000000  ................
 65c0 00000000 00000000 00000000 00000000  ................
 65d0 00000000 00000000 00000000 00000000  ................
 65e0 00000000 00000000 00000000 00000000  ................
 65f0 00000000 00000000 00000000 00000000  ................
 6600 00000000 00000000 00000000 00000000  ................
 6610 00000000 00000000 00000000 00000000  ................
 6620 00000000 00000000 00000000 00000000  ................
 6630 00000000 00000000 00000000 00000000  ................
 6640 00000000 00000000 00000000 00000000  ................
 6650 00000000 00000000 00000000 00000000  ................
 6660 00000000 00000000 00000000 00000000  ................
 6670 00000000 00000000 00000000 00000000  ................
 6680 00000000 00000000 00000000 00000000  ................
 6690 00000000 00000000 00000000 00000000  ................
 66a0 00000000 00000000 00000000 00000000  ................
 66b0 00000000 00000000 00000000 00000000  ................
 66c0 00000000 00000000 00000000 00000000  ................
 66d0 00000000 00000000 00000000 00000000  ................
 66e0 00000000 00000000 00000000 00000000  ................
 66f0 00000000 00000000 00000000 00000000  ................
 6700 00000000 00000000 00000000 00000000  ................
 6710 00000000 00000000 00000000 00000000  ................
 6720 00000000 00000000 00000000 00000000  ................
 6730 00000000 00000000 00000000 00000000  ................
 6740 00000000 00000000 00000000 00000000  ................
 6750 00000000 00000000 00000000 00000000  ................
 6760 00000000 00000000 00000000 00000000  ................
 6770 00000000 00000000 00000000 00000000  ................
 6780 00000000 00000000 00000000 00000000  ................
 6790 00000000 00000000 00000000 00000000  ................
 67a0 00000000 00000000 00000000 00000000  ................
 67b0 00000000 00000000 00000000 00000000  ................
 67c0 00000000 00000000 00000000 00000000  ................
 67d0 00000000 00000000 00000000 00000000  ................
 67e0 00000000 00000000 00000000 00000000  ................
 67f0 00000000 00000000 00000000 00000000  ................
 6800 00000000 00000000 00000000 00000000  ................
 6810 00000000 00000000 00000000 00000000  ................
 6820 00000000 00000000 00000000 00000000  ................
 6830 00000000 00000000 00000000 00000000  ................
 6840 00000000 00000000 00000000 00000000  ................
 6850 00000000 00000000 00000000 00000000  ................
 6860 00000000 00000000 00000000 00000000  ................
 6870 00000000 00000000 00000000 00000000  ................
 6880 00000000 00000000 00000000 00000000  ................
 6890 00000000 00000000 00000000 00000000  ................
 68a0 00000000 00000000 00000000 00000000  ................
 68b0 00000000 00000000 00000000 00000000  ................
 68c0 00000000 00000000 00000000 00000000  ................
 68d0 00000000 00000000 00000000 00000000  ................
 68e0 00000000 00000000 00000000 00000000  ................
 68f0 00000000 00000000 00000000 00000000  ................
 6900 00000000 00000000 00000000 00000000  ................
 6910 00000000 00000000 00000000 00000000  ................
 6920 00000000 00000000 00000000 00000000  ................
 6930 00000000 00000000 00000000 00000000  ................
 6940 00000000 00000000 00000000 00000000  ................
 6950 00000000 00000000 00000000 00000000  ................
 6960 00000000 00000000 00000000 00000000  ................
 6970 00000000 00000000 00000000 00000000  ................
 6980 00000000 00000000 00000000 00000000  ................
 6990 00000000 00000000 00000000 00000000  ................
 69a0 00000000 00000000 00000000 00000000  ................
 69b0 00000000 00000000 00000000 00000000  ................
 69c0 00000000 00000000 00000000 00000000  ................
 69d0 00000000 00000000 00000000 00000000  ................
 69e0 00000000 00000000 00000000 00000000  ................
 69f0 00000000 00000000 00000000 00000000  ................
 6a00 00000000 00000000 00000000 00000000  ................
 6a10 00000000 00000000 00000000 00000000  ................
 6a20 00000000 00000000 00000000 00000000  ................
 6a30 00000000 00000000 00000000 00000000  ................
 6a40 00000000 00000000 00000000 00000000  ................
 6a50 00000000 00000000 00000000 00000000  ................
 6a60 00000000 00000000 00000000 00000000  ................
 6a70 00000000 00000000 00000000 00000000  ................
 6a80 00000000 00000000 00000000 00000000  ................
 6a90 00000000 00000000 00000000 00000000  ................
 6aa0 00000000 00000000 00000000 00000000  ................
 6ab0 00000000 00000000 00000000 00000000  ................
 6ac0 00000000 00000000 00000000 00000000  ................
 6ad0 00000000 00000000 00000000 00000000  ................
 6ae0 00000000 00000000 00000000 00000000  ................
 6af0 00000000 00000000 00000000 00000000  ................
 6b00 00000000 00000000 00000000 00000000  ................
 6b10 00000000 00000000 00000000 00000000  ................
 6b20 00000000 00000000 00000000 00000000  ................
 6b30 00000000 00000000 00000000 00000000  ................
 6b40 00000000 00000000 00000000 00000000  ................
 6b50 00000000 00000000 00000000 00000000  ................
 6b60 00000000 00000000 00000000 00000000  ................
 6b70 00000000 00000000 00000000 00000000  ................
 6b80 00000000 00000000 00000000 00000000  ................
 6b90 00000000 00000000 00000000 00000000  ................
 6ba0 00000000 00000000 00000000 00000000  ................
 6bb0 00000000 00000000 00000000 00000000  ................
 6bc0 00000000 00000000 00000000 00000000  ................
 6bd0 00000000 00000000 00000000 00000000  ................
 6be0 00000000 00000000 00000000 00000000  ................
 6bf0 00000000 00000000 00000000 00000000  ................
 6c00 00000000 00000000 00000000 00000000  ................
 6c10 00000000 00000000 00000000 00000000  ................
 6c20 00000000 00000000 00000000 00000000  ................
 6c30 00000000 00000000 00000000 00000000  ................
 6c40 00000000 00000000 00000000 00000000  ................
 6c50 00000000 00000000 00000000 00000000  ................
 6c60 00000000 00000000 00000000 00000000  ................
 6c70 00000000 00000000 00000000 00000000  ................
 6c80 00000000 00000000 00000000 00000000  ................
 6c90 00000000 00000000 00000000 00000000  ................
 6ca0 00000000 00000000 00000000 00000000  ................
 6cb0 00000000 00000000 00000000 00000000  ................
 6cc0 00000000 00000000 00000000 00000000  ................
 6cd0 00000000 00000000 00000000 00000000  ................
 6ce0 00000000 00000000 00000000 00000000  ................
 6cf0 00000000 00000000 00000000 00000000  ................
 6d00 00000000 00000000 00000000 00000000  ................
 6d10 00000000 00000000 00000000 00000000  ................
 6d20 00000000 00000000 00000000 00000000  ................
 6d30 00000000 00000000 00000000 00000000  ................
 6d40 00000000 00000000 00000000 00000000  ................
 6d50 00000000 00000000 00000000 00000000  ................
 6d60 00000000 00000000 00000000 00000000  ................
 6d70 00000000 00000000 00000000 00000000  ................
 6d80 00000000 00000000 00000000 00000000  ................
 6d90 00000000 00000000 00000000 00000000  ................
 6da0 00000000 00000000 00000000 00000000  ................
 6db0 00000000 00000000 00000000 00000000  ................
 6dc0 00000000 00000000 00000000 00000000  ................
 6dd0 00000000 00000000 00000000 00000000  ................
 6de0 00000000 00000000 00000000 00000000  ................
 6df0 00000000 00000000 00000000 00000000  ................
 6e00 00000000 00000000 00000000 00000000  ................
 6e10 00000000 00000000 00000000 00000000  ................
 6e20 00000000 00000000 00000000 00000000  ................
 6e30 00000000 00000000 00000000 00000000  ................
 6e40 00000000 00000000 00000000 00000000  ................
 6e50 00000000 00000000 00000000 00000000  ................
 6e60 00000000 00000000 00000000 00000000  ................
 6e70 00000000 00000000 00000000 00000000  ................
 6e80 00000000 00000000 00000000 00000000  ................
 6e90 00000000 00000000 00000000 00000000  ................
 6ea0 00000000 00000000 00000000 00000000  ................
 6eb0 00000000 00000000 00000000 00000000  ................
 6ec0 00000000 00000000 00000000 00000000  ................
 6ed0 00000000 00000000 00000000 00000000  ................
 6ee0 00000000 00000000 00000000 00000000  ................
 6ef0 00000000 00000000 00000000 00000000  ................
 6f00 00000000 00000000 00000000 00000000  ................
 6f10 00000000 00000000 00000000 00000000  ................
 6f20 00000000 00000000 00000000 00000000  ................
 6f30 00000000 00000000 00000000 00000000  ................
 6f40 00000000 00000000 00000000 00000000  ................
 6f50 00000000 00000000 00000000 00000000  ................
 6f60 00000000 00000000 00000000 00000000  ................
 6f70 00000000 00000000 00000000 00000000  ................
 6f80 00000000 00000000 00000000 00000000  ................
 6f90 00000000 00000000 00000000 00000000  ................
 6fa0 00000000 00000000 00000000 00000000  ................
 6fb0 00000000 00000000 00000000 00000000  ................
 6fc0 00000000 00000000 00000000 00000000  ................
 6fd0 00000000 00000000 00000000 00000000  ................
 6fe0 00000000 00000000 00000000 00000000  ................
 6ff0 00000000 00000000 00000000 00000000  ................
 7000 00000000 00000000 00000000 00000000  ................
 7010 00000000 00000000 00000000 00000000  ................
 7020 00000000 00000000 00000000 00000000  ................
 7030 00000000 00000000 00000000 00000000  ................
 7040 00000000 00000000 00000000 00000000  ................
 7050 00000000 00000000 00000000 00000000  ................
 7060 00000000 00000000 00000000 00000000  ................
 7070 00000000 00000000 00000000 00000000  ................
 7080 00000000 00000000 00000000 00000000  ................
 7090 00000000 00000000 00000000 00000000  ................
 70a0 00000000 00000000 00000000 00000000  ................
 70b0 00000000 00000000 00000000 00000000  ................
 70c0 00000000 00000000 00000000 00000000  ................
 70d0 00000000 00000000 00000000 00000000  ................
 70e0 00000000 00000000 00000000 00000000  ................
 70f0 00000000 00000000 00000000 00000000  ................
 7100 00000000 00000000 00000000 00000000  ................
 7110 00000000 00000000 00000000 00000000  ................
 7120 00000000 00000000 00000000 00000000  ................
 7130 00000000 00000000 00000000 00000000  ................
 7140 43370000 00000000 90350000 00000000  C7.......5......
 7150 37370000 00000000 90350000 00000000  77.......5......
 7160 9b3b0000 00000000 b43e0000 00000000  .;.......>......
 7170 bb3e0000 00000000 9b3b0000 00000000  .>.......;......
 7180 1c4e0000 00000000 6b4e0000 00000000  .N......kN......
 7190 6b4e0000 00000000 6b4e0000 00000000  kN......kN......
 71a0 6b4e0000 00000000 6b4e0000 00000000  kN......kN......
 71b0 6b4e0000 00000000 6b4e0000 00000000  kN......kN......
 71c0 6b4e0000 00000000 364e0000 00000000  kN......6N......
 71d0 404e0000 00000000 6b4e0000 00000000  @N......kN......
 71e0 6b4e0000 00000000 4a4e0000 00000000  kN......JN......
 71f0 6b4e0000 00000000 6b4e0000 00000000  kN......kN......
 7200 6b4e0000 00000000 6b4e0000 00000000  kN......kN......
 7210 6b4e0000 00000000 6b4e0000 00000000  kN......kN......
 7220 6b4e0000 00000000 6b4e0000 00000000  kN......kN......
 7230 6b4e0000 00000000 6b4e0000 00000000  kN......kN......
 7240 6b4e0000 00000000 6b4e0000 00000000  kN......kN......
 7250 6b4e0000 00000000 6b4e0000 00000000  kN......kN......
 7260 6b4e0000 00000000 6b4e0000 00000000  kN......kN......
 7270 6b4e0000 00000000 6b4e0000 00000000  kN......kN......
 7280 6b4e0000 00000000 6b4e0000 00000000  kN......kN......
 7290 544e0000 00000000 6b4e0000 00000000  TN......kN......
 72a0 6b4e0000 00000000 6b4e0000 00000000  kN......kN......
 72b0 6b4e0000 00000000 634e0000 00000000  kN......cN......
 72c0 696e7465 726e616c 20657272 6f723a20  internal error: 
 72d0 656e7465 72656420 756e7265 61636861  entered unreacha
 72e0 626c6520 636f6465 2f686f6d 652f6563  ble code/home/ec
 72f0 322d7573 65722f2e 63617267 6f2f7265  2-user/.cargo/re
 7300 67697374 72792f73 72632f69 6e646578  gistry/src/index
 7310 2e637261 7465732e 696f2d36 66313764  .crates.io-6f17d
 7320 32326262 61313530 3031662f 7370696e  22bba15001f/spin
 7330 2d302e35 2e322f73 72632f6f 6e63652e  -0.5.2/src/once.
 7340 72730000 00000000 e8720000 00000000  rs.......r......
 7350 5a000000 00000000 7b000000 1f000000  Z.......{.......
 7360 4f6e6365 20686173 2070616e 69636b65  Once has panicke
 7370 64000000 00000000 e8720000 00000000  d........r......
 7380 5a000000 00000000 80000000 1d000000  Z...............
 7390 4572726f 72010203 04626173 65536f6d  Error....baseSom
 73a0 65203c3d 20747275 654e6f6e 656c696e  e <= trueNonelin
 73b0 65202020 2066696c 65000000 00000000  e    file.......
 73c0 56697274 41646472 4c6f6361 74696f6e  VirtAddrLocation
 73d0 6c6f6361 74696f6e 20286279 74657320  location (bytes 
 73e0 00000000 00000000 636f6c00 00000000  ........col.....
 73f0 d0130000 00000000 08000000 00000000  ................
 7400 08000000 00000000 d05a0000 00000000  .........Z......
 7410 50616e69 63496e66 6f706179 6c6f6164  PanicInfopayload
 7420 6d657373 61676563 616e5f75 6e77696e  messagecan_unwin
 7430 64666f72 63655f6e 6f5f6261 636b7472  dforce_no_backtr
 7440 61636500 00000000 e0130000 00000000  ace.............
 7450 00000000 00000000 01000000 00000000  ................
 7460 e0190000 00000000 80120000 00000000  ................
 7470 c0130000 00000000 44657363 72697074  ........Descript
 7480 6f725461 626c6550 6f696e74 65726c69  orTablePointerli
 7490 6d697450 61676546 61756c74 4572726f  mitPageFaultErro
 74a0 72436f64 6563616c 6c656420 60526573  rCodecalled `Res
 74b0 756c743a 3a756e77 72617028 2960206f  ult::unwrap()` o
 74c0 6e20616e 20604572 72602076 616c7565  n an `Err` value
 74d0 e0130000 00000000 00000000 00000000  ................
 74e0 01000000 00000000 c0140000 00000000  ................
 74f0 7372632f 7072696e 742e7273 00000000  src/print.rs....
 7500 f0740000 00000000 0c000000 00000000  .t..............
 7510 5c000000 23000000 476f7420 6572726f  \...#...Got erro
 7520 72200000 00000000 18750000 00000000  r .......u......
 7530 0a000000 00000000 90790000 00000000  .........y......
 7540 01000000 00000000 476f7420 6661756c  ........Got faul
 7550 7420636f 64652000 48750000 00000000  t code .Hu......
 7560 0f000000 00000000 90790000 00000000  .........y......
 7570 01000000 00000000 29207768 656e2073  ........) when s
 7580 6c696369 6e672060 72616e67 6520656e  licing `range en
 7590 6420696e 64657820 476f7420 62726561  d index Got brea
 75a0 6b706f69 6e742e0a 56697274 41646472  kpoint..VirtAddr
 75b0 4e6f7456 616c6964 30313233 34353637  NotValid01234567
 75c0 38396162 63646566 98750000 00000000  89abcdef.u......
 75d0 10000000 00000000 90790000 00000000  .........y......
 75e0 01000000 00000000 4572726f 723a2000  ........Error: .
 75f0 e8750000 00000000 07000000 00000000  .u..............
 7600 90790000 00000000 01000000 00000000  .y..............
 7610 696e7465 72727570 74732061 72652065  interrupts are e
 7620 6e61626c 65640a52 616e646f 6d206e75  nabled.Random nu
 7630 6d626572 2069733a 20000000 00000000  mber is: .......
 7640 27760000 00000000 12000000 00000000  'v..............
 7650 90790000 00000000 01000000 00000000  .y..............
 7660 43757272 656e7420 636f6465 206c6576  Current code lev
 7670 656c2000 00000000 60760000 00000000  el .....`v......
 7680 13000000 00000000 90790000 00000000  .........y......
 7690 01000000 00000000 53746163 6b206973  ........Stack is
 76a0 20000000 00000000 98760000 00000000   ........v......
 76b0 09000000 00000000 90790000 00000000  .........y......
 76c0 01000000 00000000 656e6162 6c696e67  ........enabling
 76d0 20696e74 65727275 70747320 0a696e74   interrupts .int
 76e0 65727275 70747320 68617665 20626565  errupts have bee
 76f0 6e20656e 61626c65 640a5465 7374696e  n enabled.Testin
 7700 6720666f 726d6174 74696e67 2031300a  g formatting 10.
 7710 fa760000 00000000 16000000 00000000  .v..............
 7720 4e6f7720 7573696e 67206f75 72206661  Now using our fa
 7730 6e637920 6d657373 6167650a 5072696e  ncy message.Prin
 7740 74696e67 20697320 6d756368 20656173  ting is much eas
 7750 69657220 6e6f772e 2e0a5465 7374696e  ier now...Testin
 7760 6720696e 76616c69 64206c6f 63617469  g invalid locati
 7770 6f6e200a 49445420 69732061 74200000  on .IDT is at ..
 7780 74770000 00000000 0a000000 00000000  tw..............
 7790 90790000 00000000 01000000 00000000  .y..............
 77a0 466f756e 64206461 74612061 743a2000  Found data at: .
 77b0 a0770000 00000000 0f000000 00000000  .w..............
 77c0 90790000 00000000 01000000 00000000  .y..............
 77d0 57726f74 6520746f 20696e76 616c6964  Wrote to invalid
 77e0 206c6f63 6174696f 6e210a63 616c6c65   location!.calle
 77f0 6420604f 7074696f 6e3a3a75 6e777261  d `Option::unwra
 7800 70282960 206f6e20 6120604e 6f6e6560  p()` on a `None`
 7810 2076616c 7565292f 686f6d65 2f656332   value)/home/ec2
 7820 2d757365 722f2e72 75737475 702f746f  -user/.rustup/to
 7830 6f6c6368 61696e73 2f6e6967 68746c79  olchains/nightly
 7840 2d783836 5f36342d 756e6b6e 6f776e2d  -x86_64-unknown-
 7850 6c696e75 782d676e 752f6c69 622f7275  linux-gnu/lib/ru
 7860 73746c69 622f7372 632f7275 73742f6c  stlib/src/rust/l
 7870 69627261 72792f63 6f72652f 7372632f  ibrary/core/src/
 7880 666d742f 6d6f642e 72732e2e 00000000  fmt/mod.rs......
 7890 8a780000 00000000 02000000 00000000  .x..............
 78a0 416e795b 00000000 e0130000 00000000  Any[............
 78b0 00000000 00000000 01000000 00000000  ................
 78c0 00340000 00000000 696e6465 78206f75  .4......index ou
 78d0 74206f66 20626f75 6e64733a 20746865  t of bounds: the
 78e0 206c656e 20697320 20627574 20746865   len is  but the
 78f0 20696e64 65782069 73200000 00000000   index is ......
 7900 c8780000 00000000 20000000 00000000  .x...... .......
 7910 e8780000 00000000 12000000 00000000  .x..............
 7920 3a200000 00000000 68880000 00000000  : ......h.......
 7930 00000000 00000000 20790000 00000000  ........ y......
 7940 02000000 00000000 d0130000 00000000  ................
 7950 18000000 00000000 08000000 00000000  ................
 7960 50460000 00000000 00490000 00000000  PF.......I......
 7970 60490000 00000000 207b202c 20207b0a  `I...... { ,  {.
 7980 2c0a207b 202e2e20 7d7d207d 28280a2c  ,. { .. }} }((.,
 7990 0a5d2f68 6f6d652f 6563322d 75736572  .]/home/ec2-user
 79a0 2f2e7275 73747570 2f746f6f 6c636861  /.rustup/toolcha
 79b0 696e732f 6e696768 746c792d 7838365f  ins/nightly-x86_
 79c0 36342d75 6e6b6e6f 776e2d6c 696e7578  64-unknown-linux
 79d0 2d676e75 2f6c6962 2f727573 746c6962  -gnu/lib/rustlib
 79e0 2f737263 2f727573 742f6c69 62726172  /src/rust/librar
 79f0 792f636f 72652f73 72632f66 6d742f6e  y/core/src/fmt/n
 7a00 756d2e72 73000000 92790000 00000000  um.rs....y......
 7a10 73000000 00000000 69000000 17000000  s.......i.......
 7a20 30303031 30323033 30343035 30363037  0001020304050607
 7a30 30383039 31303131 31323133 31343135  0809101112131415
 7a40 31363137 31383139 32303231 32323233  1617181920212223
 7a50 32343235 32363237 32383239 33303331  2425262728293031
 7a60 33323333 33343335 33363337 33383339  3233343536373839
 7a70 34303431 34323433 34343435 34363437  4041424344454647
 7a80 34383439 35303531 35323533 35343535  4849505152535455
 7a90 35363537 35383539 36303631 36323633  5657585960616263
 7aa0 36343635 36363637 36383639 37303731  6465666768697071
 7ab0 37323733 37343735 37363737 37383739  7273747576777879
 7ac0 38303831 38323833 38343835 38363837  8081828384858687
 7ad0 38383839 39303931 39323933 39343935  8889909192939495
 7ae0 39363937 39383939 66616c73 65000000  96979899false...
 7af0 17780000 00000000 73000000 00000000  .x......s.......
 7b00 35090000 1a000000 17780000 00000000  5........x......
 7b10 73000000 00000000 2e090000 22000000  s..........."...
 7b20 72616e67 65207374 61727420 696e6465  range start inde
 7b30 7820206f 7574206f 66207261 6e676520  x  out of range 
 7b40 666f7220 736c6963 65206f66 206c656e  for slice of len
 7b50 67746820 00000000 207b0000 00000000  gth .... {......
 7b60 12000000 00000000 327b0000 00000000  ........2{......
 7b70 22000000 00000000 88750000 00000000  "........u......
 7b80 10000000 00000000 327b0000 00000000  ........2{......
 7b90 22000000 00000000 736c6963 6520696e  ".......slice in
 7ba0 64657820 73746172 74732061 74202062  dex starts at  b
 7bb0 75742065 6e647320 61742000 00000000  ut ends at .....
 7bc0 987b0000 00000000 16000000 00000000  .{..............
 7bd0 ae7b0000 00000000 0d000000 00000000  .{..............
 7be0 5b2e2e2e 5d626567 696e203c 3d20656e  [...]begin <= en
 7bf0 64202860 00000000 e57b0000 00000000  d (`.....{......
 7c00 0e000000 00000000 a1730000 00000000  .........s......
 7c10 04000000 00000000 78750000 00000000  ........xu......
 7c20 10000000 00000000 f37b0000 00000000  .........{......
 7c30 01000000 00000000 62797465 20696e64  ........byte ind
 7c40 65782020 6973206e 6f742061 20636861  ex  is not a cha
 7c50 7220626f 756e6461 72793b20 69742069  r boundary; it i
 7c60 7320696e 73696465 2029206f 66206000  s inside ) of `.
 7c70 387c0000 00000000 0b000000 00000000  8|..............
 7c80 437c0000 00000000 26000000 00000000  C|......&.......
 7c90 d8730000 00000000 08000000 00000000  .s..............
 7ca0 697c0000 00000000 06000000 00000000  i|..............
 7cb0 f37b0000 00000000 01000000 00000000  .{..............
 7cc0 20697320 6f757420 6f662062 6f756e64   is out of bound
 7cd0 73206f66 20600000 387c0000 00000000  s of `..8|......
 7ce0 0b000000 00000000 c07c0000 00000000  .........|......
 7cf0 16000000 00000000 f37b0000 00000000  .........{......
 7d00 01000000 00000000 2f686f6d 652f6563  ......../home/ec
 7d10 322d7573 65722f2e 72757374 75702f74  2-user/.rustup/t
 7d20 6f6f6c63 6861696e 732f6e69 6768746c  oolchains/nightl
 7d30 792d7838 365f3634 2d756e6b 6e6f776e  y-x86_64-unknown
 7d40 2d6c696e 75782d67 6e752f6c 69622f72  -linux-gnu/lib/r
 7d50 7573746c 69622f73 72632f72 7573742f  ustlib/src/rust/
 7d60 6c696272 6172792f 636f7265 2f737263  library/core/src
 7d70 2f737472 2f6d6f64 2e727300 00000000  /str/mod.rs.....
 7d80 087d0000 00000000 73000000 00000000  .}......s.......
 7d90 09010000 2c000000 2f686f6d 652f6563  ....,.../home/ec
 7da0 322d7573 65722f2e 72757374 75702f74  2-user/.rustup/t
 7db0 6f6f6c63 6861696e 732f6e69 6768746c  oolchains/nightl
 7dc0 792d7838 365f3634 2d756e6b 6e6f776e  y-x86_64-unknown
 7dd0 2d6c696e 75782d67 6e752f6c 69622f72  -linux-gnu/lib/r
 7de0 7573746c 69622f73 72632f72 7573742f  ustlib/src/rust/
 7df0 6c696272 6172792f 636f7265 2f737263  library/core/src
 7e00 2f756e69 636f6465 2f707269 6e746162  /unicode/printab
 7e10 6c652e72 73000000 987d0000 00000000  le.rs....}......
 7e20 7d000000 00000000 1a000000 36000000  }...........6...
 7e30 987d0000 00000000 7d000000 00000000  .}......}.......
 7e40 0a000000 2b000000 00060101 03010402  ....+...........
 7e50 05070702 08080902 0a050b02 0e041001  ................
 7e60 11021205 13111401 15021702 190d1c05  ................
 7e70 1d081f01 24016a04 6b02af03 b102bc02  ....$.j.k.......
 7e80 cf02d102 d40cd509 d602d702 da01e005  ................
 7e90 e102e704 e802ee20 f004f802 fa03fb01  ....... ........
 7ea0 0c273b3e 4e4f8f9e 9e9f7b8b 9396a2b2  .';>NO....{.....
 7eb0 ba86b106 0709363d 3e56f3d0 d1041418  ......6=>V......
 7ec0 36375657 7faaaeaf bd35e012 87898e9e  67VW.....5......
 7ed0 040d0e11 12293134 3a454649 4a4e4f64  .....)14:EFIJNOd
 7ee0 655cb6b7 1b1c0708 0a0b1417 36393aa8  e\..........69:.
 7ef0 a9d8d909 379091a8 070a3b3e 66698f92  ....7.....;>fi..
 7f00 116f5fbf eeef5a62 f4fcff53 549a9b2e  .o_...Zb...ST...
 7f10 2f272855 9da0a1a3 a4a7a8ad babcc406  /'(U............
 7f20 0b0c151d 3a3f4551 a6a7cccd a007191a  ....:?EQ........
 7f30 22253e3f e7ecefff c5c60420 23252628  "%>?....... #%&(
 7f40 33383a48 4a4c5053 5556585a 5c5e6063  38:HJLPSUVXZ\^`c
 7f50 65666b73 787d7f8a a4aaafb0 c0d0aeaf  efksx}..........
 7f60 6e6fbe93 5e227b05 03042d03 6603012f  no..^"{...-.f../
 7f70 2e80821d 03310f1c 0424091e 052b0544  .....1...$...+.D
 7f80 040e2a80 aa062404 24042808 340b4e43  ..*...$.$.(.4.NC
 7f90 81370916 0a08183b 45390363 08093016  .7.....;E9.c..0.
 7fa0 0521031b 05014038 044b052f 040a0709  .!....@8.K./....
 7fb0 07402027 040c0936 033a051a 07040c07  .@ '...6.:......
 7fc0 50493733 0d33072e 080a8126 524b2b08  PI73.3.....&RK+.
 7fd0 2a161a26 1c141709 4e042409 440d1907  *..&....N.$.D...
 7fe0 0a064808 2709750b 423e2a06 3b050a06  ..H.'.u.B>*.;...
 7ff0 51060105 10030580 8b621e48 080a80a6  Q........b.H....
 8000 5e22450b 0a060d13 3a060a36 2c041780  ^"E.....:..6,...
 8010 b93c6453 0c48090a 46451b48 08530d49  .<dS.H..FE.H.S.I
 8020 070a80f6 460a1d03 47493703 0e080a06  ....F...GI7.....
 8030 39070a81 3619073b 031c5601 0f320d83  9...6..;..V..2..
 8040 9b66750b 80c48a4c 630d8430 10168faa  .fu....Lc..0....
 8050 8247a1b9 8239072a 045c0626 0a460a28  .G...9.*.\.&.F.(
 8060 051382b0 5b654b04 39071140 050b020e  ....[eK.9..@....
 8070 97f80884 d62a09a2 e781330f 011d060e  .....*....3.....
 8080 0408818c 89046b05 0d030907 10926047  ......k.......`G
 8090 09743c80 f60a7308 7015467a 140c140c  .t<...s.p.Fz....
 80a0 57091980 87814703 85420f15 84501f06  W.....G..B...P..
 80b0 0680d52b 053e2101 702d031a 04028140  ...+.>!.p-.....@
 80c0 1f113a05 0181d02a 82e680f7 294c040a  ..:....*....)L..
 80d0 04028311 444c3d80 c23c0601 0455051b  ....DL=..<...U..
 80e0 3402810e 2c04640c 560a80ae 381d0d2c  4...,.d.V...8..,
 80f0 04090702 0e06809a 83d80411 030d0377  ...............w
 8100 045f060c 04010f0c 0438080a 06280822  ._.......8...(."
 8110 4e81540c 1d030907 36080e04 09070907  N.T.....6.......
 8120 80cb250a 84060001 03050506 06020706  ..%.............
 8130 08070911 0a1c0b19 0c1a0d10 0e0c0f04  ................
 8140 10031212 13091601 17041801 19031a07  ................
 8150 1b011c02 1f162003 2b032d0b 2e013003  ...... .+.-...0.
 8160 31023201 a702a902 aa04ab08 fa02fb05  1.2.............
 8170 fd02fe03 ff09ad78 798b8da2 3057588b  .......xy...0WX.
 8180 8c901cdd 0e0f4b4c fbfc2e2f 3f5c5d5f  ......KL.../?\]_
 8190 e2848d8e 9192a9b1 babbc5c6 c9cadee4  ................
 81a0 e5ff0004 11122931 34373a3b 3d494a5d  ......)147:;=IJ]
 81b0 848e92a9 b1b4babb c6cacecf e4e50004  ................
 81c0 0d0e1112 2931343a 3b454649 4a5e6465  ....)14:;EFIJ^de
 81d0 84919b9d c9cecf0d 11293a3b 4549575b  .........):;EIW[
 81e0 5c5e5f64 658d91a9 b4babbc5 c9dfe4e5  \^_de...........
 81f0 f00d1145 49646580 84b2bcbe bfd5d7f0  ...EIde.........
 8200 f183858b a4a6bebf c5c7cfda db4898bd  .............H..
 8210 cdc6cecf 494e4f57 595e5f89 8e8fb1b6  ....INOWY^_.....
 8220 b7bfc1c6 c7d71116 175b5cf6 f7feff80  .........[\.....
 8230 6d71dedf 0e1f6e6f 1c1d5f7d 7eaeaf7f  mq....no.._}~...
 8240 bbbc1617 1e1f4647 4e4f585a 5c5e7e7f  ......FGNOXZ\^~.
 8250 b5c5d4d5 dcf0f1f5 72738f74 7596262e  ........rs.tu.&.
 8260 2fa7afb7 bfc7cfd7 df9a4097 98308f1f  /.........@..0..
 8270 d2d4ceff 4e4f5a5b 07080f10 272feeef  ....NOZ[....'/..
 8280 6e6f373d 3f424590 91536775 c8c9d0d1  no7=?BE..Sgu....
 8290 d8d9e7fe ff00205f 2282df04 8244081b  ...... _"....D..
 82a0 04061181 ac0e80ab 051f0981 1b031908  ................
 82b0 01042f04 34040703 01070607 110a500f  ../.4.........P.
 82c0 12075507 03041c0a 09030803 07030203  ..U.............
 82d0 03030c04 05030b06 010e1505 4e071b07  ............N...
 82e0 57070206 170c5004 43032d03 01041106  W.....P.C.-.....
 82f0 0f0c3a04 1d255f20 6d046a25 80c80582  ..:..%_ m.j%....
 8300 b0031a06 82fd0359 07160918 09140c14  .......Y........
 8310 0c6a060a 061a0659 072b0546 0a2c040c  .j.....Y.+.F.,..
 8320 04010331 0b2c041a 060b0380 ac060a06  ...1.,..........
 8330 2f314d03 80a4083c 030f033c 0738082b  /1M....<...<.8.+
 8340 0582ff11 18082f11 2d03210f 210f808c  ....../.-.!.!...
 8350 04829719 0b158894 052f053b 07020e18  ........./.;....
 8360 0980be22 740c80d6 1a0c0580 ff0580df  ..."t...........
 8370 0cf29d03 3709815c 1480b808 80cb050a  ....7..\........
 8380 183b030a 06380846 080c0674 0b1e035a  .;...8.F...t...Z
 8390 04590980 83181c0a 16094c04 808a06ab  .Y........L.....
 83a0 a40c1704 31a10481 da26070c 050580a6  ....1....&......
 83b0 1081f507 01202a06 4c04808d 0480be03  ..... *.L.......
 83c0 1b030f0d 2f686f6d 652f6563 322d7573  ..../home/ec2-us
 83d0 65722f2e 72757374 75702f74 6f6f6c63  er/.rustup/toolc
 83e0 6861696e 732f6e69 6768746c 792d7838  hains/nightly-x8
 83f0 365f3634 2d756e6b 6e6f776e 2d6c696e  6_64-unknown-lin
 8400 75782d67 6e752f6c 69622f72 7573746c  ux-gnu/lib/rustl
 8410 69622f73 72632f72 7573742f 6c696272  ib/src/rust/libr
 8420 6172792f 636f7265 2f737263 2f756e69  ary/core/src/uni
 8430 636f6465 2f756e69 636f6465 5f646174  code/unicode_dat
 8440 612e7273 00000000 c4830000 00000000  a.rs............
 8450 80000000 00000000 50000000 28000000  ........P...(...
 8460 c4830000 00000000 80000000 00000000  ................
 8470 5c000000 16000000 2f686f6d 652f6563  \......./home/ec
 8480 322d7573 65722f2e 72757374 75702f74  2-user/.rustup/t
 8490 6f6f6c63 6861696e 732f6e69 6768746c  oolchains/nightl
 84a0 792d7838 365f3634 2d756e6b 6e6f776e  y-x86_64-unknown
 84b0 2d6c696e 75782d67 6e752f6c 69622f72  -linux-gnu/lib/r
 84c0 7573746c 69622f73 72632f72 7573742f  ustlib/src/rust/
 84d0 6c696272 6172792f 636f7265 2f737263  library/core/src
 84e0 2f657363 6170652e 72730000 00000000  /escape.rs......
 84f0 78840000 00000000 72000000 00000000  x.......r.......
 8500 62000000 23000000 00030000 83042000  b...#......... .
 8510 91056000 5d13a000 1217201f 0c20601f  ..`.]..... .. `.
 8520 ef2ca02b 2a30202c 6fa6e02c 02a8602d  .,.+*0 ,o..,..`-
 8530 1efb602e 00fe2036 9eff6036 fd01e136  ..`... 6..`6...6
 8540 010a2137 240de137 ab0e6139 2f18a139  ..!7$..7..a9/..9
 8550 301c6148 f31ea14c 40346150 f06aa151  0.aH...L@4aP.j.Q
 8560 4f6f2152 9dbca152 00cf6153 65d1a153  Oo!R...R..aSe..S
 8570 00da2154 00e0e155 aee26157 ece42159  ..!T...U..aW..!Y
 8580 d0e8a159 2000ee59 f0017f5a 00700007  ...Y ..Y...Z.p..
 8590 002d0101 01020102 0101480b 30151001  .-........H.0...
 85a0 65070206 02020104 23011e1b 5b0b3a09  e.......#...[.:.
 85b0 09011804 01090103 01052b03 3c082a18  ..........+.<.*.
 85c0 01203701 01010408 04010307 0a021d01  . 7.............
 85d0 3a010101 02040801 09010a02 1a010202  :...............
 85e0 39010402 04020203 03011e02 03010b02  9...............
 85f0 39010405 01020401 14021606 01013a01  9.............:.
 8600 01020104 08010703 0a021e01 3b010101  ............;...
 8610 0c010901 28010301 37010103 05030104  ....(...7.......
 8620 07020b02 1d013a01 02010201 03010502  ......:.........
 8630 07020b02 1c023902 01010204 08010901  ......9.........
 8640 0a021d01 48010401 02030101 08015101  ....H.........Q.
 8650 02070c08 62010209 0b074902 1b010101  ....b.....I.....
 8660 0101370e 01050102 050b0124 09016604  ..7........$..f.
 8670 01060102 02021902 04031004 0d010202  ................
 8680 06010f01 00030003 1d021e02 1e024002  ..............@.
 8690 01070801 020b0901 2d030101 75022201  ........-...u.".
 86a0 76030402 09010603 db020201 3a010107  v...........:...
 86b0 01010101 0208060a 0201301f 31043007  ..........0.1.0.
 86c0 01010501 28090c02 20040202 01033801  ....(... .....8.
 86d0 01020301 01033a08 02029803 010d0107  ......:.........
 86e0 04010601 0302c640 0001c321 00038d01  .......@...!....
 86f0 60200006 69020004 010a2002 50020001  ` ..i..... .P...
 8700 03010401 19020501 97021a12 0d012608  ..............&.
 8710 190b2e03 30010204 02022701 43060202  ....0.....'.C...
 8720 02020c01 08012f01 33010103 02020502  ....../.3.......
 8730 01012a02 0801ee01 02010401 00010010  ..*.............
 8740 10100002 0001e201 95050003 01020504  ................
 8750 28030401 a5020004 00025003 460b3104  (.........P.F.1.
 8760 7b01360f 29010202 0a033104 02020701  {.6.).....1.....
 8770 3d032405 01083e01 0c023409 0a040201  =.$...>...4.....
 8780 5f030201 01020601 02019d01 03081502  _...............
 8790 39020101 01011601 0e070305 c3080203  9...............
 87a0 01011701 51010206 01010201 01020102  ....Q...........
 87b0 eb010204 06020102 1b025508 02010102  ..........U.....
 87c0 6a010101 02060101 65030204 01050009  j.......e.......
 87d0 0102f501 0a020101 04019004 02020401  ................
 87e0 200a2806 02040801 09060203 2e0d0102   .(.............
 87f0 00070106 01015216 02070102 01027a06  ......R.......z.
 8800 03010102 01070101 48020301 01010002  ........H.......
 8810 0b023405 05010101 0001060f 00053b07  ..4...........;.
 8820 00013f04 51010002 002e0217 00010103  ..?.Q...........
 8830 04050808 02071e04 94030037 04320801  ...........7.2..
 8840 0e011605 010f0007 01110207 01020105  ................
 8850 6401a007 00013d04 00040007 6d070060  d.....=.....m..`
 8860 80f00000 00000000 50524f54 45435449  ........PROTECTI
 8870 4f4e5f4b 45595052 4f544543 54494f4e  ON_KEYPROTECTION
 8880 5f56494f 4c415449 4f4e4341 55534544  _VIOLATIONCAUSED
 8890 5f42595f 57524954 45555345 525f4d4f  _BY_WRITEUSER_MO
 88a0 44454d41 4c464f52 4d45445f 5441424c  DEMALFORMED_TABL
 88b0 45494e53 54525543 54494f4e 5f464554  EINSTRUCTION_FET
 88c0 43485348 41444f57 5f535441 434b5347  CHSHADOW_STACKSG
 88d0 58524d50 00000000 76880000 00000000  XRMP....v.......
 88e0 14000000 00000000 01000000 00000000  ................
 88f0 8a880000 00000000 0f000000 00000000  ................
 8900 02000000 00000000 99880000 00000000  ................
 8910 09000000 00000000 04000000 00000000  ................
 8920 a2880000 00000000 0f000000 00000000  ................
 8930 08000000 00000000 b1880000 00000000  ................
 8940 11000000 00000000 10000000 00000000  ................
 8950 68880000 00000000 0e000000 00000000  h...............
 8960 20000000 00000000 c2880000 00000000   ...............
 8970 0c000000 00000000 40000000 00000000  ........@.......
 8980 ce880000 00000000 03000000 00000000  ................
 8990 00800000 00000000 d1880000 00000000  ................
 89a0 03000000 00000000 00000080 00000000  ................
 89b0 3078207c 20000000 68880000 00000000  0x | ...h.......
 89c0 00000000 00000000 2f686f6d 652f6563  ......../home/ec
 89d0 322d7573 65722f2e 63617267 6f2f7265  2-user/.cargo/re
 89e0 67697374 72792f73 72632f69 6e646578  gistry/src/index
 89f0 2e637261 7465732e 696f2d36 66313764  .crates.io-6f17d
 8a00 32326262 61313530 3031662f 7838365f  22bba15001f/x86_
 8a10 36342d30 2e31342e 31312f73 72632f61  64-0.14.11/src/a
 8a20 6464722e 72736164 64726573 73207061  ddr.rsaddress pa
 8a30 73736564 20746f20 56697274 41646472  ssed to VirtAddr
 8a40 3a3a6e65 77206d75 7374206e 6f742063  ::new must not c
 8a50 6f6e7461 696e2061 6e792064 61746120  ontain any data 
 8a60 696e2062 69747320 34382074 6f203634  in bits 48 to 64
 8a70 d0130000 00000000 08000000 00000000  ................
 8a80 08000000 00000000 d05a0000 00000000  .........Z......
 8a90 c8890000 00000000 5e000000 00000000  ........^.......
 8aa0 46000000 1d000000 496e7465 72727570  F.......Interrup
 8ab0 74537461 636b4672 616d6569 6e737472  tStackFrameinstr
 8ac0 75637469 6f6e5f70 6f696e74 6572636f  uction_pointerco
 8ad0 64655f73 65676d65 6e746370 755f666c  de_segmentcpu_fl
 8ae0 61677373 7461636b 5f706f69 6e746572  agsstack_pointer
 8af0 73746163 6b5f7365 676d656e 74        stack_segment   

Disassembly of section .data:

0000000000000000 <.data>:
       0:	eb 00                	jmp    0x2
       2:	48 31 c0             	xor    rax,rax
       5:	48 31 db             	xor    rbx,rbx
       8:	48 31 c9             	xor    rcx,rcx
       b:	48 31 d2             	xor    rdx,rdx
       e:	48 31 f6             	xor    rsi,rsi
      11:	48 31 ff             	xor    rdi,rdi
      14:	48 c7 c4 00 50 05 00 	mov    rsp,0x55000
      1b:	48 89 e5             	mov    rbp,rsp
      1e:	48 89 e6             	mov    rsi,rsp
      21:	48 83 e4 f0          	and    rsp,0xfffffffffffffff0
      25:	48 31 c0             	xor    rax,rax
      28:	48 31 d2             	xor    rdx,rdx
      2b:	e9 90 1e 00 00       	jmp    0x1ec0
      30:	80 3f 00             	cmp    BYTE PTR [rdi],0x0
      33:	74 14                	je     0x49
      35:	ba 04 00 00 00       	mov    edx,0x4
      3a:	48 89 f7             	mov    rdi,rsi
      3d:	48 c7 c6 a5 73 00 00 	mov    rsi,0x73a5
      44:	e9 c7 38 00 00       	jmp    0x3910
      49:	ba 05 00 00 00       	mov    edx,0x5
      4e:	48 89 f7             	mov    rdi,rsi
      51:	48 c7 c6 e8 7a 00 00 	mov    rsi,0x7ae8
      58:	e9 b3 38 00 00       	jmp    0x3910
      5d:	cc                   	int3
      5e:	cc                   	int3
      5f:	cc                   	int3
      60:	48 8b 07             	mov    rax,QWORD PTR [rdi]
      63:	48 8b 10             	mov    rdx,QWORD PTR [rax]
      66:	48 8b 7e 20          	mov    rdi,QWORD PTR [rsi+0x20]
      6a:	48 8b 76 28          	mov    rsi,QWORD PTR [rsi+0x28]
      6e:	e9 6d 3f 00 00       	jmp    0x3fe0
      73:	cc                   	int3
      74:	cc                   	int3
      75:	cc                   	int3
      76:	cc                   	int3
      77:	cc                   	int3
      78:	cc                   	int3
      79:	cc                   	int3
      7a:	cc                   	int3
      7b:	cc                   	int3
      7c:	cc                   	int3
      7d:	cc                   	int3
      7e:	cc                   	int3
      7f:	cc                   	int3
      80:	48 81 ec 88 00 00 00 	sub    rsp,0x88
      87:	8b 46 34             	mov    eax,DWORD PTR [rsi+0x34]
      8a:	a8 10                	test   al,0x10
      8c:	75 3e                	jne    0xcc
      8e:	a8 20                	test   al,0x20
      90:	75 7d                	jne    0x10f
      92:	0f b6 07             	movzx  eax,BYTE PTR [rdi]
      95:	48 83 f8 64          	cmp    rax,0x64
      99:	0f 82 e8 00 00 00    	jb     0x187
      9f:	0f b6 c8             	movzx  ecx,al
      a2:	8d 14 89             	lea    edx,[rcx+rcx*4]
      a5:	8d 0c d1             	lea    ecx,[rcx+rdx*8]
      a8:	c1 e9 0c             	shr    ecx,0xc
      ab:	6b d1 64             	imul   edx,ecx,0x64
      ae:	28 d0                	sub    al,dl
      b0:	0f b6 c0             	movzx  eax,al
      b3:	0f b7 84 00 20 7a 00 	movzx  eax,WORD PTR [rax+rax*1+0x7a20]
      ba:	00 
      bb:	66 89 44 24 2d       	mov    WORD PTR [rsp+0x2d],ax
      c0:	ba 24 00 00 00       	mov    edx,0x24
      c5:	89 c8                	mov    eax,ecx
      c7:	e9 c4 00 00 00       	jmp    0x190
      cc:	0f b6 0f             	movzx  ecx,BYTE PTR [rdi]
      cf:	ba 81 00 00 00       	mov    edx,0x81
      d4:	b8 30 00 00 00       	mov    eax,0x30
      d9:	41 89 c8             	mov    r8d,ecx
      dc:	0f 1f 40 00          	nop    DWORD PTR [rax+0x0]
      e0:	48 89 d7             	mov    rdi,rdx
      e3:	89 ca                	mov    edx,ecx
      e5:	80 e2 0f             	and    dl,0xf
      e8:	41 c0 e8 04          	shr    r8b,0x4
      ec:	80 fa 0a             	cmp    dl,0xa
      ef:	41 b9 57 00 00 00    	mov    r9d,0x57
      f5:	44 0f 42 c8          	cmovb  r9d,eax
      f9:	41 00 d1             	add    r9b,dl
      fc:	44 88 4c 3c 06       	mov    BYTE PTR [rsp+rdi*1+0x6],r9b
     101:	48 8d 57 ff          	lea    rdx,[rdi-0x1]
     105:	80 f9 10             	cmp    cl,0x10
     108:	44 89 c1             	mov    ecx,r8d
     10b:	73 d3                	jae    0xe0
     10d:	eb 3e                	jmp    0x14d
     10f:	0f b6 0f             	movzx  ecx,BYTE PTR [rdi]
     112:	ba 81 00 00 00       	mov    edx,0x81
     117:	b8 30 00 00 00       	mov    eax,0x30
     11c:	41 89 c8             	mov    r8d,ecx
     11f:	90                   	nop
     120:	48 89 d7             	mov    rdi,rdx
     123:	89 ca                	mov    edx,ecx
     125:	80 e2 0f             	and    dl,0xf
     128:	41 c0 e8 04          	shr    r8b,0x4
     12c:	80 fa 0a             	cmp    dl,0xa
     12f:	41 b9 37 00 00 00    	mov    r9d,0x37
     135:	44 0f 42 c8          	cmovb  r9d,eax
     139:	41 00 d1             	add    r9b,dl
     13c:	44 88 4c 3c 06       	mov    BYTE PTR [rsp+rdi*1+0x6],r9b
     141:	48 8d 57 ff          	lea    rdx,[rdi-0x1]
     145:	80 f9 10             	cmp    cl,0x10
     148:	44 89 c1             	mov    ecx,r8d
     14b:	73 d3                	jae    0x120
     14d:	48 83 c7 fe          	add    rdi,0xfffffffffffffffe
     151:	48 81 ff 80 00 00 00 	cmp    rdi,0x80
     158:	77 7a                	ja     0x1d4
     15a:	41 b8 81 00 00 00    	mov    r8d,0x81
     160:	49 29 d0             	sub    r8,rdx
     163:	48 8d 0c 3c          	lea    rcx,[rsp+rdi*1]
     167:	48 83 c1 08          	add    rcx,0x8
     16b:	ba 02 00 00 00       	mov    edx,0x2
     170:	48 89 f7             	mov    rdi,rsi
     173:	48 c7 c6 b0 89 00 00 	mov    rsi,0x89b0
     17a:	e8 a1 33 00 00       	call   0x3520
     17f:	48 81 c4 88 00 00 00 	add    rsp,0x88
     186:	c3                   	ret
     187:	ba 26 00 00 00       	mov    edx,0x26
     18c:	3c 0a                	cmp    al,0xa
     18e:	73 08                	jae    0x198
     190:	0c 30                	or     al,0x30
     192:	88 44 14 08          	mov    BYTE PTR [rsp+rdx*1+0x8],al
     196:	eb 12                	jmp    0x1aa
     198:	0f b7 84 00 20 7a 00 	movzx  eax,WORD PTR [rax+rax*1+0x7a20]
     19f:	00 
     1a0:	66 89 44 24 2d       	mov    WORD PTR [rsp+0x2d],ax
     1a5:	ba 25 00 00 00       	mov    edx,0x25
     1aa:	48 8d 0c 14          	lea    rcx,[rsp+rdx*1]
     1ae:	48 83 c1 08          	add    rcx,0x8
     1b2:	41 b8 27 00 00 00    	mov    r8d,0x27
     1b8:	49 29 d0             	sub    r8,rdx
     1bb:	48 89 f7             	mov    rdi,rsi
     1be:	48 c7 c6 68 88 00 00 	mov    rsi,0x8868
     1c5:	31 d2                	xor    edx,edx
     1c7:	e8 54 33 00 00       	call   0x3520
     1cc:	48 81 c4 88 00 00 00 	add    rsp,0x88
     1d3:	c3                   	ret
     1d4:	e8 47 32 00 00       	call   0x3420
     1d9:	0f 0b                	ud2
     1db:	cc                   	int3
     1dc:	cc                   	int3
     1dd:	cc                   	int3
     1de:	cc                   	int3
     1df:	cc                   	int3
     1e0:	55                   	push   rbp
     1e1:	41 57                	push   r15
     1e3:	41 56                	push   r14
     1e5:	41 55                	push   r13
     1e7:	41 54                	push   r12
     1e9:	53                   	push   rbx
     1ea:	48 83 ec 58          	sub    rsp,0x58
     1ee:	4c 8b 37             	mov    r14,QWORD PTR [rdi]
     1f1:	4c 8b 7f 08          	mov    r15,QWORD PTR [rdi+0x8]
     1f5:	48 8b 5e 20          	mov    rbx,QWORD PTR [rsi+0x20]
     1f9:	4c 8b 66 28          	mov    r12,QWORD PTR [rsi+0x28]
     1fd:	49 8b 44 24 20       	mov    rax,QWORD PTR [r12+0x20]
     202:	48 89 df             	mov    rdi,rbx
     205:	be 22 00 00 00       	mov    esi,0x22
     20a:	49 89 c5             	mov    r13,rax
     20d:	ff d0                	call   rax
     20f:	84 c0                	test   al,al
     211:	74 11                	je     0x224
     213:	b0 01                	mov    al,0x1
     215:	48 83 c4 58          	add    rsp,0x58
     219:	5b                   	pop    rbx
     21a:	41 5c                	pop    r12
     21c:	41 5d                	pop    r13
     21e:	41 5e                	pop    r14
     220:	41 5f                	pop    r15
     222:	5d                   	pop    rbp
     223:	c3                   	ret
     224:	4d 85 ff             	test   r15,r15
     227:	0f 84 5c 02 00 00    	je     0x489
     22d:	4c 89 64 24 30       	mov    QWORD PTR [rsp+0x30],r12
     232:	4c 89 7c 24 18       	mov    QWORD PTR [rsp+0x18],r15
     237:	4b 8d 04 3e          	lea    rax,[r14+r15*1]
     23b:	48 89 44 24 50       	mov    QWORD PTR [rsp+0x50],rax
     240:	45 31 ff             	xor    r15d,r15d
     243:	4c 89 f1             	mov    rcx,r14
     246:	45 31 e4             	xor    r12d,r12d
     249:	4c 89 74 24 48       	mov    QWORD PTR [rsp+0x48],r14
     24e:	eb 23                	jmp    0x273
     250:	4d 01 e7             	add    r15,r12
     253:	4c 8b 74 24 48       	mov    r14,QWORD PTR [rsp+0x48]
     258:	48 8b 44 24 28       	mov    rax,QWORD PTR [rsp+0x28]
     25d:	49 29 c4             	sub    r12,rax
     260:	48 8b 4c 24 20       	mov    rcx,QWORD PTR [rsp+0x20]
     265:	49 01 cc             	add    r12,rcx
     268:	48 3b 4c 24 50       	cmp    rcx,QWORD PTR [rsp+0x50]
     26d:	0f 84 4c 02 00 00    	je     0x4bf
     273:	0f b6 29             	movzx  ebp,BYTE PTR [rcx]
     276:	40 84 ed             	test   bpl,bpl
     279:	48 89 4c 24 28       	mov    QWORD PTR [rsp+0x28],rcx
     27e:	78 10                	js     0x290
     280:	48 8d 41 01          	lea    rax,[rcx+0x1]
     284:	48 89 44 24 20       	mov    QWORD PTR [rsp+0x20],rax
     289:	eb 75                	jmp    0x300
     28b:	0f 1f 44 00 00       	nop    DWORD PTR [rax+rax*1+0x0]
     290:	89 e8                	mov    eax,ebp
     292:	83 e0 1f             	and    eax,0x1f
     295:	0f b6 51 01          	movzx  edx,BYTE PTR [rcx+0x1]
     299:	83 e2 3f             	and    edx,0x3f
     29c:	40 80 fd df          	cmp    bpl,0xdf
     2a0:	76 40                	jbe    0x2e2
     2a2:	48 8d 71 03          	lea    rsi,[rcx+0x3]
     2a6:	0f b6 49 02          	movzx  ecx,BYTE PTR [rcx+0x2]
     2aa:	c1 e2 06             	shl    edx,0x6
     2ad:	83 e1 3f             	and    ecx,0x3f
     2b0:	09 d1                	or     ecx,edx
     2b2:	40 80 fd f0          	cmp    bpl,0xf0
     2b6:	72 3c                	jb     0x2f4
     2b8:	0f b6 2e             	movzx  ebp,BYTE PTR [rsi]
     2bb:	83 e0 07             	and    eax,0x7
     2be:	c1 e0 12             	shl    eax,0x12
     2c1:	c1 e1 06             	shl    ecx,0x6
     2c4:	83 e5 3f             	and    ebp,0x3f
     2c7:	09 cd                	or     ebp,ecx
     2c9:	09 c5                	or     ebp,eax
     2cb:	81 fd 00 00 11 00    	cmp    ebp,0x110000
     2d1:	0f 84 e8 01 00 00    	je     0x4bf
     2d7:	48 8b 44 24 28       	mov    rax,QWORD PTR [rsp+0x28]
     2dc:	48 83 c0 04          	add    rax,0x4
     2e0:	eb a2                	jmp    0x284
     2e2:	48 83 c1 02          	add    rcx,0x2
     2e6:	48 89 4c 24 20       	mov    QWORD PTR [rsp+0x20],rcx
     2eb:	c1 e0 06             	shl    eax,0x6
     2ee:	09 d0                	or     eax,edx
     2f0:	89 c5                	mov    ebp,eax
     2f2:	eb 0c                	jmp    0x300
     2f4:	48 89 74 24 20       	mov    QWORD PTR [rsp+0x20],rsi
     2f9:	c1 e0 0c             	shl    eax,0xc
     2fc:	09 c1                	or     ecx,eax
     2fe:	89 cd                	mov    ebp,ecx
     300:	48 8d 7c 24 3c       	lea    rdi,[rsp+0x3c]
     305:	89 ee                	mov    esi,ebp
     307:	ba 01 00 01 00       	mov    edx,0x10001
     30c:	e8 ef 4a 00 00       	call   0x4e00
     311:	80 7c 24 3c 80       	cmp    BYTE PTR [rsp+0x3c],0x80
     316:	0f 84 3c ff ff ff    	je     0x258
     31c:	0f b6 44 24 47       	movzx  eax,BYTE PTR [rsp+0x47]
     321:	2a 44 24 46          	sub    al,BYTE PTR [rsp+0x46]
     325:	3c 01                	cmp    al,0x1
     327:	0f 84 2b ff ff ff    	je     0x258
     32d:	4c 89 e2             	mov    rdx,r12
     330:	4c 29 fa             	sub    rdx,r15
     333:	0f 82 d8 01 00 00    	jb     0x511
     339:	4d 85 ff             	test   r15,r15
     33c:	74 19                	je     0x357
     33e:	4c 3b 7c 24 18       	cmp    r15,QWORD PTR [rsp+0x18]
     343:	73 0c                	jae    0x351
     345:	43 80 3c 3e c0       	cmp    BYTE PTR [r14+r15*1],0xc0
     34a:	7d 0b                	jge    0x357
     34c:	e9 c0 01 00 00       	jmp    0x511
     351:	0f 85 ba 01 00 00    	jne    0x511
     357:	4d 85 e4             	test   r12,r12
     35a:	74 19                	je     0x375
     35c:	4c 3b 64 24 18       	cmp    r12,QWORD PTR [rsp+0x18]
     361:	73 0c                	jae    0x36f
     363:	43 80 3c 26 bf       	cmp    BYTE PTR [r14+r12*1],0xbf
     368:	7f 0b                	jg     0x375
     36a:	e9 a2 01 00 00       	jmp    0x511
     36f:	0f 85 9c 01 00 00    	jne    0x511
     375:	4d 01 f7             	add    r15,r14
     378:	48 89 df             	mov    rdi,rbx
     37b:	4c 89 fe             	mov    rsi,r15
     37e:	48 8b 44 24 30       	mov    rax,QWORD PTR [rsp+0x30]
     383:	ff 50 18             	call   QWORD PTR [rax+0x18]
     386:	84 c0                	test   al,al
     388:	0f 85 85 fe ff ff    	jne    0x213
     38e:	8b 44 24 44          	mov    eax,DWORD PTR [rsp+0x44]
     392:	89 44 24 10          	mov    DWORD PTR [rsp+0x10],eax
     396:	48 8b 44 24 3c       	mov    rax,QWORD PTR [rsp+0x3c]
     39b:	48 89 44 24 08       	mov    QWORD PTR [rsp+0x8],rax
     3a0:	3c 80                	cmp    al,0x80
     3a2:	75 6c                	jne    0x410
     3a4:	41 b6 80             	mov    r14b,0x80
     3a7:	eb 2d                	jmp    0x3d6
     3a9:	0f 1f 80 00 00 00 00 	nop    DWORD PTR [rax+0x0]
     3b0:	8b 74 24 0c          	mov    esi,DWORD PTR [rsp+0xc]
     3b4:	c7 44 24 10 00 00 00 	mov    DWORD PTR [rsp+0x10],0x0
     3bb:	00 
     3bc:	48 c7 44 24 08 00 00 	mov    QWORD PTR [rsp+0x8],0x0
     3c3:	00 00 
     3c5:	45 31 f6             	xor    r14d,r14d
     3c8:	48 89 df             	mov    rdi,rbx
     3cb:	41 ff d5             	call   r13
     3ce:	84 c0                	test   al,al
     3d0:	0f 85 3d fe ff ff    	jne    0x213
     3d6:	41 80 fe 80          	cmp    r14b,0x80
     3da:	74 d4                	je     0x3b0
     3dc:	44 0f b6 7c 24 12    	movzx  r15d,BYTE PTR [rsp+0x12]
     3e2:	44 3a 7c 24 13       	cmp    r15b,BYTE PTR [rsp+0x13]
     3e7:	73 67                	jae    0x450
     3e9:	41 8d 47 01          	lea    eax,[r15+0x1]
     3ed:	88 44 24 12          	mov    BYTE PTR [rsp+0x12],al
     3f1:	41 80 ff 0a          	cmp    r15b,0xa
     3f5:	0f 83 00 01 00 00    	jae    0x4fb
     3fb:	42 0f b6 74 3c 08    	movzx  esi,BYTE PTR [rsp+r15*1+0x8]
     401:	eb c5                	jmp    0x3c8
     403:	66 66 66 66 2e 0f 1f 	data16 data16 data16 cs nop WORD PTR [rax+rax*1+0x0]
     40a:	84 00 00 00 00 00 
     410:	44 0f b6 74 24 13    	movzx  r14d,BYTE PTR [rsp+0x13]
     416:	44 0f b6 7c 24 12    	movzx  r15d,BYTE PTR [rsp+0x12]
     41c:	0f 1f 40 00          	nop    DWORD PTR [rax+0x0]
     420:	4d 39 f7             	cmp    r15,r14
     423:	73 2b                	jae    0x450
     425:	41 8d 47 01          	lea    eax,[r15+0x1]
     429:	88 44 24 12          	mov    BYTE PTR [rsp+0x12],al
     42d:	49 83 ff 09          	cmp    r15,0x9
     431:	0f 87 c4 00 00 00    	ja     0x4fb
     437:	42 0f b6 74 3c 08    	movzx  esi,BYTE PTR [rsp+r15*1+0x8]
     43d:	48 89 df             	mov    rdi,rbx
     440:	41 ff d5             	call   r13
     443:	49 ff c7             	inc    r15
     446:	84 c0                	test   al,al
     448:	74 d6                	je     0x420
     44a:	e9 c4 fd ff ff       	jmp    0x213
     44f:	90                   	nop
     450:	41 bf 01 00 00 00    	mov    r15d,0x1
     456:	81 fd 80 00 00 00    	cmp    ebp,0x80
     45c:	0f 82 ee fd ff ff    	jb     0x250
     462:	41 bf 02 00 00 00    	mov    r15d,0x2
     468:	81 fd 00 08 00 00    	cmp    ebp,0x800
     46e:	0f 82 dc fd ff ff    	jb     0x250
     474:	81 fd 00 00 01 00    	cmp    ebp,0x10000
     47a:	41 bf 04 00 00 00    	mov    r15d,0x4
     480:	49 83 df 00          	sbb    r15,0x0
     484:	e9 c7 fd ff ff       	jmp    0x250
     489:	45 31 ff             	xor    r15d,r15d
     48c:	31 d2                	xor    edx,edx
     48e:	4d 01 fe             	add    r14,r15
     491:	48 89 df             	mov    rdi,rbx
     494:	4c 89 f6             	mov    rsi,r14
     497:	41 ff 54 24 18       	call   QWORD PTR [r12+0x18]
     49c:	84 c0                	test   al,al
     49e:	0f 85 6f fd ff ff    	jne    0x213
     4a4:	48 89 df             	mov    rdi,rbx
     4a7:	be 22 00 00 00       	mov    esi,0x22
     4ac:	4c 89 e8             	mov    rax,r13
     4af:	48 83 c4 58          	add    rsp,0x58
     4b3:	5b                   	pop    rbx
     4b4:	41 5c                	pop    r12
     4b6:	41 5d                	pop    r13
     4b8:	41 5e                	pop    r14
     4ba:	41 5f                	pop    r15
     4bc:	5d                   	pop    rbp
     4bd:	ff e0                	jmp    rax
     4bf:	4d 85 ff             	test   r15,r15
     4c2:	74 1e                	je     0x4e2
     4c4:	48 8b 4c 24 18       	mov    rcx,QWORD PTR [rsp+0x18]
     4c9:	48 89 c8             	mov    rax,rcx
     4cc:	4c 29 f8             	sub    rax,r15
     4cf:	4c 8b 64 24 30       	mov    r12,QWORD PTR [rsp+0x30]
     4d4:	76 1b                	jbe    0x4f1
     4d6:	43 80 3c 3e bf       	cmp    BYTE PTR [r14+r15*1],0xbf
     4db:	7e 50                	jle    0x52d
     4dd:	48 89 c2             	mov    rdx,rax
     4e0:	eb ac                	jmp    0x48e
     4e2:	45 31 ff             	xor    r15d,r15d
     4e5:	48 8b 54 24 18       	mov    rdx,QWORD PTR [rsp+0x18]
     4ea:	4c 8b 64 24 30       	mov    r12,QWORD PTR [rsp+0x30]
     4ef:	eb 9d                	jmp    0x48e
     4f1:	75 3a                	jne    0x52d
     4f3:	49 89 cf             	mov    r15,rcx
     4f6:	48 89 c2             	mov    rdx,rax
     4f9:	eb 93                	jmp    0x48e
     4fb:	be 0a 00 00 00       	mov    esi,0xa
     500:	4c 89 ff             	mov    rdi,r15
     503:	48 c7 c2 f0 84 00 00 	mov    rdx,0x84f0
     50a:	e8 91 2f 00 00       	call   0x34a0
     50f:	0f 0b                	ud2
     511:	4c 89 f7             	mov    rdi,r14
     514:	48 8b 74 24 18       	mov    rsi,QWORD PTR [rsp+0x18]
     519:	4c 89 fa             	mov    rdx,r15
     51c:	4c 89 e1             	mov    rcx,r12
     51f:	49 c7 c0 08 7b 00 00 	mov    r8,0x7b08
     526:	e8 b5 4c 00 00       	call   0x51e0
     52b:	0f 0b                	ud2
     52d:	4c 89 f7             	mov    rdi,r14
     530:	48 89 ce             	mov    rsi,rcx
     533:	4c 89 fa             	mov    rdx,r15
     536:	49 c7 c0 f0 7a 00 00 	mov    r8,0x7af0
     53d:	e8 9e 4c 00 00       	call   0x51e0
     542:	0f 0b                	ud2
     544:	cc                   	int3
     545:	cc                   	int3
     546:	cc                   	int3
     547:	cc                   	int3
     548:	cc                   	int3
     549:	cc                   	int3
     54a:	cc                   	int3
     54b:	cc                   	int3
     54c:	cc                   	int3
     54d:	cc                   	int3
     54e:	cc                   	int3
     54f:	cc                   	int3
     550:	48 8b 3f             	mov    rdi,QWORD PTR [rdi]
     553:	e9 c8 56 00 00       	jmp    0x5c20
     558:	cc                   	int3
     559:	cc                   	int3
     55a:	cc                   	int3
     55b:	cc                   	int3
     55c:	cc                   	int3
     55d:	cc                   	int3
     55e:	cc                   	int3
     55f:	cc                   	int3
     560:	41 57                	push   r15
     562:	41 56                	push   r14
     564:	41 55                	push   r13
     566:	41 54                	push   r12
     568:	53                   	push   rbx
     569:	48 83 ec 20          	sub    rsp,0x20
     56d:	49 89 f6             	mov    r14,rsi
     570:	4c 8b 2f             	mov    r13,QWORD PTR [rdi]
     573:	4d 8d 65 10          	lea    r12,[r13+0x10]
     577:	4d 8d 7d 18          	lea    r15,[r13+0x18]
     57b:	49 8d 5d 20          	lea    rbx,[r13+0x20]
     57f:	49 8d 45 21          	lea    rax,[r13+0x21]
     583:	48 89 44 24 18       	mov    QWORD PTR [rsp+0x18],rax
     588:	48 8b 7e 20          	mov    rdi,QWORD PTR [rsi+0x20]
     58c:	48 8b 46 28          	mov    rax,QWORD PTR [rsi+0x28]
     590:	ba 09 00 00 00       	mov    edx,0x9
     595:	48 c7 c6 10 74 00 00 	mov    rsi,0x7410
     59c:	ff 50 18             	call   QWORD PTR [rax+0x18]
     59f:	4c 89 74 24 08       	mov    QWORD PTR [rsp+0x8],r14
     5a4:	88 44 24 10          	mov    BYTE PTR [rsp+0x10],al
     5a8:	c6 44 24 11 00       	mov    BYTE PTR [rsp+0x11],0x0
     5ad:	4c 8d 74 24 08       	lea    r14,[rsp+0x8]
     5b2:	ba 07 00 00 00       	mov    edx,0x7
     5b7:	4c 89 f7             	mov    rdi,r14
     5ba:	48 c7 c6 19 74 00 00 	mov    rsi,0x7419
     5c1:	4c 89 e9             	mov    rcx,r13
     5c4:	49 c7 c0 70 0e 00 00 	mov    r8,0xe70
     5cb:	e8 b0 3e 00 00       	call   0x4480
     5d0:	ba 07 00 00 00       	mov    edx,0x7
     5d5:	4c 89 f7             	mov    rdi,r14
     5d8:	48 c7 c6 20 74 00 00 	mov    rsi,0x7420
     5df:	4c 89 e1             	mov    rcx,r12
     5e2:	49 c7 c0 e0 14 00 00 	mov    r8,0x14e0
     5e9:	e8 92 3e 00 00       	call   0x4480
     5ee:	ba 08 00 00 00       	mov    edx,0x8
     5f3:	4c 89 f7             	mov    rdi,r14
     5f6:	48 c7 c6 d0 73 00 00 	mov    rsi,0x73d0
     5fd:	4c 89 f9             	mov    rcx,r15
     600:	49 c7 c0 70 0d 00 00 	mov    r8,0xd70
     607:	e8 74 3e 00 00       	call   0x4480
     60c:	ba 0a 00 00 00       	mov    edx,0xa
     611:	4c 89 f7             	mov    rdi,r14
     614:	48 c7 c6 27 74 00 00 	mov    rsi,0x7427
     61b:	48 89 d9             	mov    rcx,rbx
     61e:	49 c7 c0 30 00 00 00 	mov    r8,0x30
     625:	e8 56 3e 00 00       	call   0x4480
     62a:	48 8d 4c 24 18       	lea    rcx,[rsp+0x18]
     62f:	ba 12 00 00 00       	mov    edx,0x12
     634:	4c 89 f7             	mov    rdi,r14
     637:	48 c7 c6 31 74 00 00 	mov    rsi,0x7431
     63e:	49 c7 c0 c0 08 00 00 	mov    r8,0x8c0
     645:	e8 36 3e 00 00       	call   0x4480
     64a:	80 7c 24 11 00       	cmp    BYTE PTR [rsp+0x11],0x0
     64f:	0f b6 44 24 10       	movzx  eax,BYTE PTR [rsp+0x10]
     654:	74 3e                	je     0x694
     656:	84 c0                	test   al,al
     658:	b0 01                	mov    al,0x1
     65a:	75 38                	jne    0x694
     65c:	48 8b 44 24 08       	mov    rax,QWORD PTR [rsp+0x8]
     661:	f6 40 34 04          	test   BYTE PTR [rax+0x34],0x4
     665:	75 16                	jne    0x67d
     667:	48 8b 78 20          	mov    rdi,QWORD PTR [rax+0x20]
     66b:	48 8b 40 28          	mov    rax,QWORD PTR [rax+0x28]
     66f:	ba 02 00 00 00       	mov    edx,0x2
     674:	48 c7 c6 8a 79 00 00 	mov    rsi,0x798a
     67b:	eb 14                	jmp    0x691
     67d:	48 8b 78 20          	mov    rdi,QWORD PTR [rax+0x20]
     681:	48 8b 40 28          	mov    rax,QWORD PTR [rax+0x28]
     685:	ba 01 00 00 00       	mov    edx,0x1
     68a:	48 c7 c6 89 79 00 00 	mov    rsi,0x7989
     691:	ff 50 18             	call   QWORD PTR [rax+0x18]
     694:	84 c0                	test   al,al
     696:	0f 95 c0             	setne  al
     699:	48 83 c4 20          	add    rsp,0x20
     69d:	5b                   	pop    rbx
     69e:	41 5c                	pop    r12
     6a0:	41 5d                	pop    r13
     6a2:	41 5e                	pop    r14
     6a4:	41 5f                	pop    r15
     6a6:	c3                   	ret
     6a7:	cc                   	int3
     6a8:	cc                   	int3
     6a9:	cc                   	int3
     6aa:	cc                   	int3
     6ab:	cc                   	int3
     6ac:	cc                   	int3
     6ad:	cc                   	int3
     6ae:	cc                   	int3
     6af:	cc                   	int3
     6b0:	48 81 ec 88 00 00 00 	sub    rsp,0x88
     6b7:	48 8b 07             	mov    rax,QWORD PTR [rdi]
     6ba:	8b 4e 34             	mov    ecx,DWORD PTR [rsi+0x34]
     6bd:	f6 c1 10             	test   cl,0x10
     6c0:	0f 85 e1 00 00 00    	jne    0x7a7
     6c6:	f6 c1 20             	test   cl,0x20
     6c9:	0f 85 21 01 00 00    	jne    0x7f0
     6cf:	48 8b 08             	mov    rcx,QWORD PTR [rax]
     6d2:	b8 27 00 00 00       	mov    eax,0x27
     6d7:	48 81 f9 10 27 00 00 	cmp    rcx,0x2710
     6de:	0f 82 84 01 00 00    	jb     0x868
     6e4:	41 b8 27 00 00 00    	mov    r8d,0x27
     6ea:	48 bf 4b 59 86 38 d6 	movabs rdi,0x346dc5d63886594b
     6f1:	c5 6d 34 
     6f4:	66 66 66 2e 0f 1f 84 	data16 data16 cs nop WORD PTR [rax+rax*1+0x0]
     6fb:	00 00 00 00 00 
     700:	48 89 c8             	mov    rax,rcx
     703:	48 f7 e7             	mul    rdi
     706:	48 c1 ea 0b          	shr    rdx,0xb
     70a:	69 c2 10 27 00 00    	imul   eax,edx,0x2710
     710:	41 89 c9             	mov    r9d,ecx
     713:	41 29 c1             	sub    r9d,eax
     716:	45 69 d1 7b 14 00 00 	imul   r10d,r9d,0x147b
     71d:	41 c1 ea 13          	shr    r10d,0x13
     721:	41 6b c2 64          	imul   eax,r10d,0x64
     725:	41 29 c1             	sub    r9d,eax
     728:	45 0f b7 c9          	movzx  r9d,r9w
     72c:	49 8d 40 fc          	lea    rax,[r8-0x4]
     730:	47 0f b7 94 12 20 7a 	movzx  r10d,WORD PTR [r10+r10*1+0x7a20]
     737:	00 00 
     739:	66 46 89 54 04 04    	mov    WORD PTR [rsp+r8*1+0x4],r10w
     73f:	47 0f b7 8c 09 20 7a 	movzx  r9d,WORD PTR [r9+r9*1+0x7a20]
     746:	00 00 
     748:	66 46 89 4c 04 06    	mov    WORD PTR [rsp+r8*1+0x6],r9w
     74e:	49 89 c0             	mov    r8,rax
     751:	48 81 f9 ff e0 f5 05 	cmp    rcx,0x5f5e0ff
     758:	48 89 d1             	mov    rcx,rdx
     75b:	77 a3                	ja     0x700
     75d:	48 83 fa 63          	cmp    rdx,0x63
     761:	76 2b                	jbe    0x78e
     763:	0f b7 ca             	movzx  ecx,dx
     766:	c1 e9 02             	shr    ecx,0x2
     769:	69 c9 7b 14 00 00    	imul   ecx,ecx,0x147b
     76f:	c1 e9 11             	shr    ecx,0x11
     772:	6b f9 64             	imul   edi,ecx,0x64
     775:	29 fa                	sub    edx,edi
     777:	0f b7 d2             	movzx  edx,dx
     77a:	0f b7 94 12 20 7a 00 	movzx  edx,WORD PTR [rdx+rdx*1+0x7a20]
     781:	00 
     782:	66 89 54 04 06       	mov    WORD PTR [rsp+rax*1+0x6],dx
     787:	48 83 c0 fe          	add    rax,0xfffffffffffffffe
     78b:	48 89 ca             	mov    rdx,rcx
     78e:	48 83 fa 0a          	cmp    rdx,0xa
     792:	0f 83 e2 00 00 00    	jae    0x87a
     798:	80 c2 30             	add    dl,0x30
     79b:	88 54 04 07          	mov    BYTE PTR [rsp+rax*1+0x7],dl
     79f:	48 ff c8             	dec    rax
     7a2:	e9 e4 00 00 00       	jmp    0x88b
     7a7:	48 8b 08             	mov    rcx,QWORD PTR [rax]
     7aa:	ba 81 00 00 00       	mov    edx,0x81
     7af:	b8 30 00 00 00       	mov    eax,0x30
     7b4:	49 89 c8             	mov    r8,rcx
     7b7:	66 0f 1f 84 00 00 00 	nop    WORD PTR [rax+rax*1+0x0]
     7be:	00 00 
     7c0:	48 89 d7             	mov    rdi,rdx
     7c3:	49 c1 e8 04          	shr    r8,0x4
     7c7:	89 ca                	mov    edx,ecx
     7c9:	80 e2 0f             	and    dl,0xf
     7cc:	80 fa 0a             	cmp    dl,0xa
     7cf:	41 b9 57 00 00 00    	mov    r9d,0x57
     7d5:	44 0f 42 c8          	cmovb  r9d,eax
     7d9:	41 00 d1             	add    r9b,dl
     7dc:	44 88 4c 3c 06       	mov    BYTE PTR [rsp+rdi*1+0x6],r9b
     7e1:	48 8d 57 ff          	lea    rdx,[rdi-0x1]
     7e5:	48 83 f9 10          	cmp    rcx,0x10
     7e9:	4c 89 c1             	mov    rcx,r8
     7ec:	73 d2                	jae    0x7c0
     7ee:	eb 3e                	jmp    0x82e
     7f0:	48 8b 08             	mov    rcx,QWORD PTR [rax]
     7f3:	ba 81 00 00 00       	mov    edx,0x81
     7f8:	b8 30 00 00 00       	mov    eax,0x30
     7fd:	49 89 c8             	mov    r8,rcx
     800:	48 89 d7             	mov    rdi,rdx
     803:	49 c1 e8 04          	shr    r8,0x4
     807:	89 ca                	mov    edx,ecx
     809:	80 e2 0f             	and    dl,0xf
     80c:	80 fa 0a             	cmp    dl,0xa
     80f:	41 b9 37 00 00 00    	mov    r9d,0x37
     815:	44 0f 42 c8          	cmovb  r9d,eax
     819:	41 00 d1             	add    r9b,dl
     81c:	44 88 4c 3c 06       	mov    BYTE PTR [rsp+rdi*1+0x6],r9b
     821:	48 8d 57 ff          	lea    rdx,[rdi-0x1]
     825:	48 83 f9 10          	cmp    rcx,0x10
     829:	4c 89 c1             	mov    rcx,r8
     82c:	73 d2                	jae    0x800
     82e:	48 83 c7 fe          	add    rdi,0xfffffffffffffffe
     832:	48 81 ff 80 00 00 00 	cmp    rdi,0x80
     839:	77 7a                	ja     0x8b5
     83b:	41 b8 81 00 00 00    	mov    r8d,0x81
     841:	49 29 d0             	sub    r8,rdx
     844:	48 8d 0c 3c          	lea    rcx,[rsp+rdi*1]
     848:	48 83 c1 08          	add    rcx,0x8
     84c:	ba 02 00 00 00       	mov    edx,0x2
     851:	48 89 f7             	mov    rdi,rsi
     854:	48 c7 c6 b0 89 00 00 	mov    rsi,0x89b0
     85b:	e8 c0 2c 00 00       	call   0x3520
     860:	48 81 c4 88 00 00 00 	add    rsp,0x88
     867:	c3                   	ret
     868:	48 89 ca             	mov    rdx,rcx
     86b:	48 83 fa 63          	cmp    rdx,0x63
     86f:	0f 87 ee fe ff ff    	ja     0x763
     875:	e9 14 ff ff ff       	jmp    0x78e
     87a:	0f b7 8c 12 20 7a 00 	movzx  ecx,WORD PTR [rdx+rdx*1+0x7a20]
     881:	00 
     882:	66 89 4c 04 06       	mov    WORD PTR [rsp+rax*1+0x6],cx
     887:	48 83 c0 fe          	add    rax,0xfffffffffffffffe
     88b:	48 8d 0c 04          	lea    rcx,[rsp+rax*1]
     88f:	48 83 c1 08          	add    rcx,0x8
     893:	41 b8 27 00 00 00    	mov    r8d,0x27
     899:	49 29 c0             	sub    r8,rax
     89c:	48 89 f7             	mov    rdi,rsi
     89f:	48 c7 c6 68 88 00 00 	mov    rsi,0x8868
     8a6:	31 d2                	xor    edx,edx
     8a8:	e8 73 2c 00 00       	call   0x3520
     8ad:	48 81 c4 88 00 00 00 	add    rsp,0x88
     8b4:	c3                   	ret
     8b5:	e8 66 2b 00 00       	call   0x3420
     8ba:	0f 0b                	ud2
     8bc:	cc                   	int3
     8bd:	cc                   	int3
     8be:	cc                   	int3
     8bf:	cc                   	int3
     8c0:	48 8b 07             	mov    rax,QWORD PTR [rdi]
     8c3:	80 38 00             	cmp    BYTE PTR [rax],0x0
     8c6:	74 14                	je     0x8dc
     8c8:	ba 04 00 00 00       	mov    edx,0x4
     8cd:	48 89 f7             	mov    rdi,rsi
     8d0:	48 c7 c6 a5 73 00 00 	mov    rsi,0x73a5
     8d7:	e9 34 30 00 00       	jmp    0x3910
     8dc:	ba 05 00 00 00       	mov    edx,0x5
     8e1:	48 89 f7             	mov    rdi,rsi
     8e4:	48 c7 c6 e8 7a 00 00 	mov    rsi,0x7ae8
     8eb:	e9 20 30 00 00       	jmp    0x3910
     8f0:	55                   	push   rbp
     8f1:	41 57                	push   r15
     8f3:	41 56                	push   r14
     8f5:	41 55                	push   r13
     8f7:	41 54                	push   r12
     8f9:	53                   	push   rbx
     8fa:	48 81 ec 98 00 00 00 	sub    rsp,0x98
     901:	48 8b 07             	mov    rax,QWORD PTR [rdi]
     904:	4c 8b 28             	mov    r13,QWORD PTR [rax]
     907:	4d 85 ed             	test   r13,r13
     90a:	0f 84 9d 01 00 00    	je     0xaad
     910:	48 8b 46 20          	mov    rax,QWORD PTR [rsi+0x20]
     914:	48 89 04 24          	mov    QWORD PTR [rsp],rax
     918:	4c 8b 66 28          	mov    r12,QWORD PTR [rsi+0x28]
     91c:	b2 01                	mov    dl,0x1
     91e:	45 31 f6             	xor    r14d,r14d
     921:	4c 89 ed             	mov    rbp,r13
     924:	49 83 fe 08          	cmp    r14,0x8
     928:	0f 87 d0 00 00 00    	ja     0x9fe
     92e:	48 85 ed             	test   rbp,rbp
     931:	0f 84 0c 02 00 00    	je     0xb43
     937:	4a 8d 04 f5 00 00 00 	lea    rax,[r14*8+0x0]
     93e:	00 
     93f:	48 8d 0c 40          	lea    rcx,[rax+rax*2]
     943:	48 81 c1 d8 88 00 00 	add    rcx,0x88d8
     94a:	48 8d 04 40          	lea    rax,[rax+rax*2]
     94e:	48 05 f0 88 00 00    	add    rax,0x88f0
     954:	4c 89 f6             	mov    rsi,r14
     957:	eb 25                	jmp    0x97e
     959:	0f 1f 80 00 00 00 00 	nop    DWORD PTR [rax+0x0]
     960:	48 83 fe 08          	cmp    rsi,0x8
     964:	b9 00 00 00 00       	mov    ecx,0x0
     969:	48 0f 42 c8          	cmovb  rcx,rax
     96d:	48 83 c0 18          	add    rax,0x18
     971:	4c 89 f6             	mov    rsi,r14
     974:	49 83 fe 09          	cmp    r14,0x9
     978:	0f 84 80 00 00 00    	je     0x9fe
     97e:	4c 8d 76 01          	lea    r14,[rsi+0x1]
     982:	4c 8b 79 08          	mov    r15,QWORD PTR [rcx+0x8]
     986:	4d 85 ff             	test   r15,r15
     989:	74 d5                	je     0x960
     98b:	48 8b 59 10          	mov    rbx,QWORD PTR [rcx+0x10]
     98f:	48 85 eb             	test   rbx,rbp
     992:	74 cc                	je     0x960
     994:	48 89 df             	mov    rdi,rbx
     997:	4c 21 ef             	and    rdi,r13
     99a:	48 39 df             	cmp    rdi,rbx
     99d:	75 c1                	jne    0x960
     99f:	48 8b 31             	mov    rsi,QWORD PTR [rcx]
     9a2:	4c 89 64 24 20       	mov    QWORD PTR [rsp+0x20],r12
     9a7:	4d 8b 64 24 18       	mov    r12,QWORD PTR [r12+0x18]
     9ac:	f6 c2 01             	test   dl,0x1
     9af:	75 25                	jne    0x9d6
     9b1:	ba 03 00 00 00       	mov    edx,0x3
     9b6:	48 8b 3c 24          	mov    rdi,QWORD PTR [rsp]
     9ba:	48 89 74 24 18       	mov    QWORD PTR [rsp+0x18],rsi
     9bf:	48 c7 c6 b2 89 00 00 	mov    rsi,0x89b2
     9c6:	41 ff d4             	call   r12
     9c9:	48 8b 74 24 18       	mov    rsi,QWORD PTR [rsp+0x18]
     9ce:	84 c0                	test   al,al
     9d0:	0f 85 d0 00 00 00    	jne    0xaa6
     9d6:	48 f7 d3             	not    rbx
     9d9:	48 21 dd             	and    rbp,rbx
     9dc:	48 8b 3c 24          	mov    rdi,QWORD PTR [rsp]
     9e0:	4c 89 fa             	mov    rdx,r15
     9e3:	41 ff d4             	call   r12
     9e6:	89 c1                	mov    ecx,eax
     9e8:	b0 01                	mov    al,0x1
     9ea:	31 d2                	xor    edx,edx
     9ec:	84 c9                	test   cl,cl
     9ee:	4c 8b 64 24 20       	mov    r12,QWORD PTR [rsp+0x20]
     9f3:	0f 84 2b ff ff ff    	je     0x924
     9f9:	e9 47 01 00 00       	jmp    0xb45
     9fe:	48 89 6c 24 28       	mov    QWORD PTR [rsp+0x28],rbp
     a03:	48 85 ed             	test   rbp,rbp
     a06:	0f 84 37 01 00 00    	je     0xb43
     a0c:	49 8b 5c 24 18       	mov    rbx,QWORD PTR [r12+0x18]
     a11:	f6 c2 01             	test   dl,0x1
     a14:	75 16                	jne    0xa2c
     a16:	ba 03 00 00 00       	mov    edx,0x3
     a1b:	48 8b 3c 24          	mov    rdi,QWORD PTR [rsp]
     a1f:	48 c7 c6 b2 89 00 00 	mov    rsi,0x89b2
     a26:	ff d3                	call   rbx
     a28:	84 c0                	test   al,al
     a2a:	75 7a                	jne    0xaa6
     a2c:	ba 02 00 00 00       	mov    edx,0x2
     a31:	48 8b 3c 24          	mov    rdi,QWORD PTR [rsp]
     a35:	48 c7 c6 b0 89 00 00 	mov    rsi,0x89b0
     a3c:	ff d3                	call   rbx
     a3e:	84 c0                	test   al,al
     a40:	75 64                	jne    0xaa6
     a42:	48 8d 44 24 28       	lea    rax,[rsp+0x28]
     a47:	48 89 44 24 08       	mov    QWORD PTR [rsp+0x8],rax
     a4c:	48 8d 44 24 08       	lea    rax,[rsp+0x8]
     a51:	48 89 44 24 68       	mov    QWORD PTR [rsp+0x68],rax
     a56:	48 c7 44 24 70 00 60 	mov    QWORD PTR [rsp+0x70],0x6000
     a5d:	00 00 
     a5f:	48 c7 44 24 30 b8 89 	mov    QWORD PTR [rsp+0x30],0x89b8
     a66:	00 00 
     a68:	48 c7 44 24 38 01 00 	mov    QWORD PTR [rsp+0x38],0x1
     a6f:	00 00 
     a71:	48 c7 44 24 50 00 00 	mov    QWORD PTR [rsp+0x50],0x0
     a78:	00 00 
     a7a:	48 8d 44 24 68       	lea    rax,[rsp+0x68]
     a7f:	48 89 44 24 40       	mov    QWORD PTR [rsp+0x40],rax
     a84:	48 c7 44 24 48 01 00 	mov    QWORD PTR [rsp+0x48],0x1
     a8b:	00 00 
     a8d:	48 8d 54 24 30       	lea    rdx,[rsp+0x30]
     a92:	48 8b 3c 24          	mov    rdi,QWORD PTR [rsp]
     a96:	4c 89 e6             	mov    rsi,r12
     a99:	e8 42 35 00 00       	call   0x3fe0
     a9e:	84 c0                	test   al,al
     aa0:	0f 84 9d 00 00 00    	je     0xb43
     aa6:	b0 01                	mov    al,0x1
     aa8:	e9 98 00 00 00       	jmp    0xb45
     aad:	48 c7 44 24 08 e0 73 	mov    QWORD PTR [rsp+0x8],0x73e0
     ab4:	00 00 
     ab6:	48 c7 44 24 10 40 5a 	mov    QWORD PTR [rsp+0x10],0x5a40
     abd:	00 00 
     abf:	48 c7 44 24 30 02 00 	mov    QWORD PTR [rsp+0x30],0x2
     ac6:	00 00 
     ac8:	48 c7 44 24 40 02 00 	mov    QWORD PTR [rsp+0x40],0x2
     acf:	00 00 
     ad1:	48 c7 44 24 50 00 00 	mov    QWORD PTR [rsp+0x50],0x0
     ad8:	00 00 
     ada:	48 b8 20 00 00 00 04 	movabs rax,0x400000020
     ae1:	00 00 00 
     ae4:	48 89 44 24 58       	mov    QWORD PTR [rsp+0x58],rax
     ae9:	c6 44 24 60 03       	mov    BYTE PTR [rsp+0x60],0x3
     aee:	48 c7 44 24 68 b8 89 	mov    QWORD PTR [rsp+0x68],0x89b8
     af5:	00 00 
     af7:	48 c7 44 24 70 01 00 	mov    QWORD PTR [rsp+0x70],0x1
     afe:	00 00 
     b00:	48 8d 44 24 30       	lea    rax,[rsp+0x30]
     b05:	48 89 84 24 88 00 00 	mov    QWORD PTR [rsp+0x88],rax
     b0c:	00 
     b0d:	48 c7 84 24 90 00 00 	mov    QWORD PTR [rsp+0x90],0x1
     b14:	00 01 00 00 00 
     b19:	48 8d 44 24 08       	lea    rax,[rsp+0x8]
     b1e:	48 89 44 24 78       	mov    QWORD PTR [rsp+0x78],rax
     b23:	48 c7 84 24 80 00 00 	mov    QWORD PTR [rsp+0x80],0x1
     b2a:	00 01 00 00 00 
     b2f:	48 8b 7e 20          	mov    rdi,QWORD PTR [rsi+0x20]
     b33:	48 8b 76 28          	mov    rsi,QWORD PTR [rsi+0x28]
     b37:	48 8d 54 24 68       	lea    rdx,[rsp+0x68]
     b3c:	e8 9f 34 00 00       	call   0x3fe0
     b41:	eb 02                	jmp    0xb45
     b43:	31 c0                	xor    eax,eax
     b45:	48 81 c4 98 00 00 00 	add    rsp,0x98
     b4c:	5b                   	pop    rbx
     b4d:	41 5c                	pop    r12
     b4f:	41 5d                	pop    r13
     b51:	41 5e                	pop    r14
     b53:	41 5f                	pop    r15
     b55:	5d                   	pop    rbp
     b56:	c3                   	ret
     b57:	cc                   	int3
     b58:	cc                   	int3
     b59:	cc                   	int3
     b5a:	cc                   	int3
     b5b:	cc                   	int3
     b5c:	cc                   	int3
     b5d:	cc                   	int3
     b5e:	cc                   	int3
     b5f:	cc                   	int3
     b60:	48 81 ec 88 00 00 00 	sub    rsp,0x88
     b67:	48 8b 07             	mov    rax,QWORD PTR [rdi]
     b6a:	8b 4e 34             	mov    ecx,DWORD PTR [rsi+0x34]
     b6d:	f6 c1 10             	test   cl,0x10
     b70:	0f 85 e1 00 00 00    	jne    0xc57
     b76:	f6 c1 20             	test   cl,0x20
     b79:	0f 85 20 01 00 00    	jne    0xc9f
     b7f:	8b 08                	mov    ecx,DWORD PTR [rax]
     b81:	b8 27 00 00 00       	mov    eax,0x27
     b86:	48 81 f9 10 27 00 00 	cmp    rcx,0x2710
     b8d:	0f 82 84 01 00 00    	jb     0xd17
     b93:	41 b8 27 00 00 00    	mov    r8d,0x27
     b99:	48 bf 4b 59 86 38 d6 	movabs rdi,0x346dc5d63886594b
     ba0:	c5 6d 34 
     ba3:	66 66 66 66 2e 0f 1f 	data16 data16 data16 cs nop WORD PTR [rax+rax*1+0x0]
     baa:	84 00 00 00 00 00 
     bb0:	48 89 c8             	mov    rax,rcx
     bb3:	48 f7 e7             	mul    rdi
     bb6:	48 c1 ea 0b          	shr    rdx,0xb
     bba:	69 c2 10 27 00 00    	imul   eax,edx,0x2710
     bc0:	41 89 c9             	mov    r9d,ecx
     bc3:	41 29 c1             	sub    r9d,eax
     bc6:	45 69 d1 7b 14 00 00 	imul   r10d,r9d,0x147b
     bcd:	41 c1 ea 13          	shr    r10d,0x13
     bd1:	41 6b c2 64          	imul   eax,r10d,0x64
     bd5:	41 29 c1             	sub    r9d,eax
     bd8:	45 0f b7 c9          	movzx  r9d,r9w
     bdc:	49 8d 40 fc          	lea    rax,[r8-0x4]
     be0:	47 0f b7 94 12 20 7a 	movzx  r10d,WORD PTR [r10+r10*1+0x7a20]
     be7:	00 00 
     be9:	66 46 89 54 04 04    	mov    WORD PTR [rsp+r8*1+0x4],r10w
     bef:	47 0f b7 8c 09 20 7a 	movzx  r9d,WORD PTR [r9+r9*1+0x7a20]
     bf6:	00 00 
     bf8:	66 46 89 4c 04 06    	mov    WORD PTR [rsp+r8*1+0x6],r9w
     bfe:	49 89 c0             	mov    r8,rax
     c01:	48 81 f9 ff e0 f5 05 	cmp    rcx,0x5f5e0ff
     c08:	48 89 d1             	mov    rcx,rdx
     c0b:	77 a3                	ja     0xbb0
     c0d:	48 83 fa 63          	cmp    rdx,0x63
     c11:	76 2b                	jbe    0xc3e
     c13:	0f b7 ca             	movzx  ecx,dx
     c16:	c1 e9 02             	shr    ecx,0x2
     c19:	69 c9 7b 14 00 00    	imul   ecx,ecx,0x147b
     c1f:	c1 e9 11             	shr    ecx,0x11
     c22:	6b f9 64             	imul   edi,ecx,0x64
     c25:	29 fa                	sub    edx,edi
     c27:	0f b7 d2             	movzx  edx,dx
     c2a:	0f b7 94 12 20 7a 00 	movzx  edx,WORD PTR [rdx+rdx*1+0x7a20]
     c31:	00 
     c32:	66 89 54 04 06       	mov    WORD PTR [rsp+rax*1+0x6],dx
     c37:	48 83 c0 fe          	add    rax,0xfffffffffffffffe
     c3b:	48 89 ca             	mov    rdx,rcx
     c3e:	48 83 fa 0a          	cmp    rdx,0xa
     c42:	0f 83 e1 00 00 00    	jae    0xd29
     c48:	80 c2 30             	add    dl,0x30
     c4b:	88 54 04 07          	mov    BYTE PTR [rsp+rax*1+0x7],dl
     c4f:	48 ff c8             	dec    rax
     c52:	e9 e3 00 00 00       	jmp    0xd3a
     c57:	8b 08                	mov    ecx,DWORD PTR [rax]
     c59:	ba 81 00 00 00       	mov    edx,0x81
     c5e:	b8 30 00 00 00       	mov    eax,0x30
     c63:	41 89 c8             	mov    r8d,ecx
     c66:	66 2e 0f 1f 84 00 00 	cs nop WORD PTR [rax+rax*1+0x0]
     c6d:	00 00 00 
     c70:	48 89 d7             	mov    rdi,rdx
     c73:	41 c1 e8 04          	shr    r8d,0x4
     c77:	89 ca                	mov    edx,ecx
     c79:	80 e2 0f             	and    dl,0xf
     c7c:	80 fa 0a             	cmp    dl,0xa
     c7f:	41 b9 57 00 00 00    	mov    r9d,0x57
     c85:	44 0f 42 c8          	cmovb  r9d,eax
     c89:	41 00 d1             	add    r9b,dl
     c8c:	44 88 4c 3c 06       	mov    BYTE PTR [rsp+rdi*1+0x6],r9b
     c91:	48 8d 57 ff          	lea    rdx,[rdi-0x1]
     c95:	83 f9 10             	cmp    ecx,0x10
     c98:	44 89 c1             	mov    ecx,r8d
     c9b:	73 d3                	jae    0xc70
     c9d:	eb 3e                	jmp    0xcdd
     c9f:	8b 08                	mov    ecx,DWORD PTR [rax]
     ca1:	ba 81 00 00 00       	mov    edx,0x81
     ca6:	b8 30 00 00 00       	mov    eax,0x30
     cab:	41 89 c8             	mov    r8d,ecx
     cae:	66 90                	xchg   ax,ax
     cb0:	48 89 d7             	mov    rdi,rdx
     cb3:	41 c1 e8 04          	shr    r8d,0x4
     cb7:	89 ca                	mov    edx,ecx
     cb9:	80 e2 0f             	and    dl,0xf
     cbc:	80 fa 0a             	cmp    dl,0xa
     cbf:	41 b9 37 00 00 00    	mov    r9d,0x37
     cc5:	44 0f 42 c8          	cmovb  r9d,eax
     cc9:	41 00 d1             	add    r9b,dl
     ccc:	44 88 4c 3c 06       	mov    BYTE PTR [rsp+rdi*1+0x6],r9b
     cd1:	48 8d 57 ff          	lea    rdx,[rdi-0x1]
     cd5:	83 f9 10             	cmp    ecx,0x10
     cd8:	44 89 c1             	mov    ecx,r8d
     cdb:	73 d3                	jae    0xcb0
     cdd:	48 83 c7 fe          	add    rdi,0xfffffffffffffffe
     ce1:	48 81 ff 80 00 00 00 	cmp    rdi,0x80
     ce8:	77 7a                	ja     0xd64
     cea:	41 b8 81 00 00 00    	mov    r8d,0x81
     cf0:	49 29 d0             	sub    r8,rdx
     cf3:	48 8d 0c 3c          	lea    rcx,[rsp+rdi*1]
     cf7:	48 83 c1 08          	add    rcx,0x8
     cfb:	ba 02 00 00 00       	mov    edx,0x2
     d00:	48 89 f7             	mov    rdi,rsi
     d03:	48 c7 c6 b0 89 00 00 	mov    rsi,0x89b0
     d0a:	e8 11 28 00 00       	call   0x3520
     d0f:	48 81 c4 88 00 00 00 	add    rsp,0x88
     d16:	c3                   	ret
     d17:	48 89 ca             	mov    rdx,rcx
     d1a:	48 83 fa 63          	cmp    rdx,0x63
     d1e:	0f 87 ef fe ff ff    	ja     0xc13
     d24:	e9 15 ff ff ff       	jmp    0xc3e
     d29:	0f b7 8c 12 20 7a 00 	movzx  ecx,WORD PTR [rdx+rdx*1+0x7a20]
     d30:	00 
     d31:	66 89 4c 04 06       	mov    WORD PTR [rsp+rax*1+0x6],cx
     d36:	48 83 c0 fe          	add    rax,0xfffffffffffffffe
     d3a:	48 8d 0c 04          	lea    rcx,[rsp+rax*1]
     d3e:	48 83 c1 08          	add    rcx,0x8
     d42:	41 b8 27 00 00 00    	mov    r8d,0x27
     d48:	49 29 c0             	sub    r8,rax
     d4b:	48 89 f7             	mov    rdi,rsi
     d4e:	48 c7 c6 68 88 00 00 	mov    rsi,0x8868
     d55:	31 d2                	xor    edx,edx
     d57:	e8 c4 27 00 00       	call   0x3520
     d5c:	48 81 c4 88 00 00 00 	add    rsp,0x88
     d63:	c3                   	ret
     d64:	e8 b7 26 00 00       	call   0x3420
     d69:	0f 0b                	ud2
     d6b:	cc                   	int3
     d6c:	cc                   	int3
     d6d:	cc                   	int3
     d6e:	cc                   	int3
     d6f:	cc                   	int3
     d70:	41 57                	push   r15
     d72:	41 56                	push   r14
     d74:	53                   	push   rbx
     d75:	48 83 ec 20          	sub    rsp,0x20
     d79:	49 89 f6             	mov    r14,rsi
     d7c:	4c 8b 3f             	mov    r15,QWORD PTR [rdi]
     d7f:	49 8d 5f 10          	lea    rbx,[r15+0x10]
     d83:	49 8d 47 14          	lea    rax,[r15+0x14]
     d87:	48 89 44 24 18       	mov    QWORD PTR [rsp+0x18],rax
     d8c:	48 8b 7e 20          	mov    rdi,QWORD PTR [rsi+0x20]
     d90:	48 8b 46 28          	mov    rax,QWORD PTR [rsi+0x28]
     d94:	ba 08 00 00 00       	mov    edx,0x8
     d99:	48 c7 c6 c8 73 00 00 	mov    rsi,0x73c8
     da0:	ff 50 18             	call   QWORD PTR [rax+0x18]
     da3:	4c 89 74 24 08       	mov    QWORD PTR [rsp+0x8],r14
     da8:	88 44 24 10          	mov    BYTE PTR [rsp+0x10],al
     dac:	c6 44 24 11 00       	mov    BYTE PTR [rsp+0x11],0x0
     db1:	4c 8d 74 24 08       	lea    r14,[rsp+0x8]
     db6:	ba 04 00 00 00       	mov    edx,0x4
     dbb:	4c 89 f7             	mov    rdi,r14
     dbe:	48 c7 c6 b5 73 00 00 	mov    rsi,0x73b5
     dc5:	4c 89 f9             	mov    rcx,r15
     dc8:	49 c7 c0 e0 01 00 00 	mov    r8,0x1e0
     dcf:	e8 ac 36 00 00       	call   0x4480
     dd4:	ba 04 00 00 00       	mov    edx,0x4
     dd9:	4c 89 f7             	mov    rdi,r14
     ddc:	48 c7 c6 ad 73 00 00 	mov    rsi,0x73ad
     de3:	48 89 d9             	mov    rcx,rbx
     de6:	49 c7 c0 80 10 00 00 	mov    r8,0x1080
     ded:	e8 8e 36 00 00       	call   0x4480
     df2:	48 8d 4c 24 18       	lea    rcx,[rsp+0x18]
     df7:	ba 03 00 00 00       	mov    edx,0x3
     dfc:	4c 89 f7             	mov    rdi,r14
     dff:	48 c7 c6 e8 73 00 00 	mov    rsi,0x73e8
     e06:	49 c7 c0 60 0b 00 00 	mov    r8,0xb60
     e0d:	e8 6e 36 00 00       	call   0x4480
     e12:	80 7c 24 11 00       	cmp    BYTE PTR [rsp+0x11],0x0
     e17:	0f b6 44 24 10       	movzx  eax,BYTE PTR [rsp+0x10]
     e1c:	74 3e                	je     0xe5c
     e1e:	84 c0                	test   al,al
     e20:	b0 01                	mov    al,0x1
     e22:	75 38                	jne    0xe5c
     e24:	48 8b 44 24 08       	mov    rax,QWORD PTR [rsp+0x8]
     e29:	f6 40 34 04          	test   BYTE PTR [rax+0x34],0x4
     e2d:	75 16                	jne    0xe45
     e2f:	48 8b 78 20          	mov    rdi,QWORD PTR [rax+0x20]
     e33:	48 8b 40 28          	mov    rax,QWORD PTR [rax+0x28]
     e37:	ba 02 00 00 00       	mov    edx,0x2
     e3c:	48 c7 c6 8a 79 00 00 	mov    rsi,0x798a
     e43:	eb 14                	jmp    0xe59
     e45:	48 8b 78 20          	mov    rdi,QWORD PTR [rax+0x20]
     e49:	48 8b 40 28          	mov    rax,QWORD PTR [rax+0x28]
     e4d:	ba 01 00 00 00       	mov    edx,0x1
     e52:	48 c7 c6 89 79 00 00 	mov    rsi,0x7989
     e59:	ff 50 18             	call   QWORD PTR [rax+0x18]
     e5c:	84 c0                	test   al,al
     e5e:	0f 95 c0             	setne  al
     e61:	48 83 c4 20          	add    rsp,0x20
     e65:	5b                   	pop    rbx
     e66:	41 5e                	pop    r14
     e68:	41 5f                	pop    r15
     e6a:	c3                   	ret
     e6b:	cc                   	int3
     e6c:	cc                   	int3
     e6d:	cc                   	int3
     e6e:	cc                   	int3
     e6f:	cc                   	int3
     e70:	41 56                	push   r14
     e72:	53                   	push   rbx
     e73:	50                   	push   rax
     e74:	48 8b 5e 20          	mov    rbx,QWORD PTR [rsi+0x20]
     e78:	48 8b 46 28          	mov    rax,QWORD PTR [rsi+0x28]
     e7c:	48 8b 40 18          	mov    rax,QWORD PTR [rax+0x18]
     e80:	ba 03 00 00 00       	mov    edx,0x3
     e85:	48 89 df             	mov    rdi,rbx
     e88:	48 c7 c6 a0 78 00 00 	mov    rsi,0x78a0
     e8f:	49 89 c6             	mov    r14,rax
     e92:	ff d0                	call   rax
     e94:	84 c0                	test   al,al
     e96:	74 0a                	je     0xea2
     e98:	b0 01                	mov    al,0x1
     e9a:	48 83 c4 08          	add    rsp,0x8
     e9e:	5b                   	pop    rbx
     e9f:	41 5e                	pop    r14
     ea1:	c3                   	ret
     ea2:	ba 07 00 00 00       	mov    edx,0x7
     ea7:	48 89 df             	mov    rdi,rbx
     eaa:	48 c7 c6 82 79 00 00 	mov    rsi,0x7982
     eb1:	4c 89 f0             	mov    rax,r14
     eb4:	48 83 c4 08          	add    rsp,0x8
     eb8:	5b                   	pop    rbx
     eb9:	41 5e                	pop    r14
     ebb:	ff e0                	jmp    rax
     ebd:	cc                   	int3
     ebe:	cc                   	int3
     ebf:	cc                   	int3
     ec0:	48 81 ec 88 00 00 00 	sub    rsp,0x88
     ec7:	8b 46 34             	mov    eax,DWORD PTR [rsi+0x34]
     eca:	a8 10                	test   al,0x10
     ecc:	75 67                	jne    0xf35
     ece:	a8 20                	test   al,0x20
     ed0:	0f 85 9e 00 00 00    	jne    0xf74
     ed6:	0f b7 07             	movzx  eax,WORD PTR [rdi]
     ed9:	3d 10 27 00 00       	cmp    eax,0x2710
     ede:	0f 82 0e 01 00 00    	jb     0xff2
     ee4:	0f b7 c8             	movzx  ecx,ax
     ee7:	c1 e9 04             	shr    ecx,0x4
     eea:	69 c9 47 03 00 00    	imul   ecx,ecx,0x347
     ef0:	c1 e9 13             	shr    ecx,0x13
     ef3:	69 d1 10 27 00 00    	imul   edx,ecx,0x2710
     ef9:	29 d0                	sub    eax,edx
     efb:	0f b7 d0             	movzx  edx,ax
     efe:	69 d2 7b 14 00 00    	imul   edx,edx,0x147b
     f04:	c1 ea 13             	shr    edx,0x13
     f07:	6b fa 64             	imul   edi,edx,0x64
     f0a:	29 f8                	sub    eax,edi
     f0c:	0f b7 c0             	movzx  eax,ax
     f0f:	0f b7 94 12 20 7a 00 	movzx  edx,WORD PTR [rdx+rdx*1+0x7a20]
     f16:	00 
     f17:	66 89 54 24 2b       	mov    WORD PTR [rsp+0x2b],dx
     f1c:	0f b7 84 00 20 7a 00 	movzx  eax,WORD PTR [rax+rax*1+0x7a20]
     f23:	00 
     f24:	66 89 44 24 2d       	mov    WORD PTR [rsp+0x2d],ax
     f29:	ba 23 00 00 00       	mov    edx,0x23
     f2e:	89 c8                	mov    eax,ecx
     f30:	e9 f9 00 00 00       	jmp    0x102e
     f35:	0f b7 07             	movzx  eax,WORD PTR [rdi]
     f38:	b9 81 00 00 00       	mov    ecx,0x81
     f3d:	eb 1c                	jmp    0xf5b
     f3f:	90                   	nop
     f40:	44 0f b7 c0          	movzx  r8d,ax
     f44:	41 c1 e8 04          	shr    r8d,0x4
     f48:	00 ca                	add    dl,cl
     f4a:	88 54 3c 06          	mov    BYTE PTR [rsp+rdi*1+0x6],dl
     f4e:	48 8d 4f ff          	lea    rcx,[rdi-0x1]
     f52:	66 83 f8 10          	cmp    ax,0x10
     f56:	44 89 c0             	mov    eax,r8d
     f59:	72 59                	jb     0xfb4
     f5b:	48 89 cf             	mov    rdi,rcx
     f5e:	89 c1                	mov    ecx,eax
     f60:	80 e1 0f             	and    cl,0xf
     f63:	ba 30 00 00 00       	mov    edx,0x30
     f68:	80 f9 0a             	cmp    cl,0xa
     f6b:	72 d3                	jb     0xf40
     f6d:	ba 57 00 00 00       	mov    edx,0x57
     f72:	eb cc                	jmp    0xf40
     f74:	0f b7 07             	movzx  eax,WORD PTR [rdi]
     f77:	b9 81 00 00 00       	mov    ecx,0x81
     f7c:	eb 1d                	jmp    0xf9b
     f7e:	66 90                	xchg   ax,ax
     f80:	44 0f b7 c0          	movzx  r8d,ax
     f84:	41 c1 e8 04          	shr    r8d,0x4
     f88:	00 ca                	add    dl,cl
     f8a:	88 54 3c 06          	mov    BYTE PTR [rsp+rdi*1+0x6],dl
     f8e:	48 8d 4f ff          	lea    rcx,[rdi-0x1]
     f92:	66 83 f8 10          	cmp    ax,0x10
     f96:	44 89 c0             	mov    eax,r8d
     f99:	72 19                	jb     0xfb4
     f9b:	48 89 cf             	mov    rdi,rcx
     f9e:	89 c1                	mov    ecx,eax
     fa0:	80 e1 0f             	and    cl,0xf
     fa3:	ba 30 00 00 00       	mov    edx,0x30
     fa8:	80 f9 0a             	cmp    cl,0xa
     fab:	72 d3                	jb     0xf80
     fad:	ba 37 00 00 00       	mov    edx,0x37
     fb2:	eb cc                	jmp    0xf80
     fb4:	48 83 c7 fe          	add    rdi,0xfffffffffffffffe
     fb8:	48 81 ff 80 00 00 00 	cmp    rdi,0x80
     fbf:	0f 87 b2 00 00 00    	ja     0x1077
     fc5:	41 b8 81 00 00 00    	mov    r8d,0x81
     fcb:	49 29 c8             	sub    r8,rcx
     fce:	48 8d 0c 3c          	lea    rcx,[rsp+rdi*1]
     fd2:	48 83 c1 08          	add    rcx,0x8
     fd6:	ba 02 00 00 00       	mov    edx,0x2
     fdb:	48 89 f7             	mov    rdi,rsi
     fde:	48 c7 c6 b0 89 00 00 	mov    rsi,0x89b0
     fe5:	e8 36 25 00 00       	call   0x3520
     fea:	48 81 c4 88 00 00 00 	add    rsp,0x88
     ff1:	c3                   	ret
     ff2:	ba 27 00 00 00       	mov    edx,0x27
     ff7:	66 83 f8 64          	cmp    ax,0x64
     ffb:	72 2b                	jb     0x1028
     ffd:	0f b7 c8             	movzx  ecx,ax
    1000:	c1 e9 02             	shr    ecx,0x2
    1003:	69 c9 7b 14 00 00    	imul   ecx,ecx,0x147b
    1009:	c1 e9 11             	shr    ecx,0x11
    100c:	6b d1 64             	imul   edx,ecx,0x64
    100f:	29 d0                	sub    eax,edx
    1011:	0f b7 c0             	movzx  eax,ax
    1014:	0f b7 84 00 20 7a 00 	movzx  eax,WORD PTR [rax+rax*1+0x7a20]
    101b:	00 
    101c:	66 89 44 24 2d       	mov    WORD PTR [rsp+0x2d],ax
    1021:	ba 25 00 00 00       	mov    edx,0x25
    1026:	89 c8                	mov    eax,ecx
    1028:	66 83 f8 0a          	cmp    ax,0xa
    102c:	73 0b                	jae    0x1039
    102e:	0c 30                	or     al,0x30
    1030:	88 44 14 07          	mov    BYTE PTR [rsp+rdx*1+0x7],al
    1034:	48 ff ca             	dec    rdx
    1037:	eb 14                	jmp    0x104d
    1039:	0f b7 c0             	movzx  eax,ax
    103c:	0f b7 84 00 20 7a 00 	movzx  eax,WORD PTR [rax+rax*1+0x7a20]
    1043:	00 
    1044:	66 89 44 14 06       	mov    WORD PTR [rsp+rdx*1+0x6],ax
    1049:	48 83 c2 fe          	add    rdx,0xfffffffffffffffe
    104d:	48 8d 0c 14          	lea    rcx,[rsp+rdx*1]
    1051:	48 83 c1 08          	add    rcx,0x8
    1055:	41 b8 27 00 00 00    	mov    r8d,0x27
    105b:	49 29 d0             	sub    r8,rdx
    105e:	48 89 f7             	mov    rdi,rsi
    1061:	48 c7 c6 68 88 00 00 	mov    rsi,0x8868
    1068:	31 d2                	xor    edx,edx
    106a:	e8 b1 24 00 00       	call   0x3520
    106f:	48 81 c4 88 00 00 00 	add    rsp,0x88
    1076:	c3                   	ret
    1077:	e8 a4 23 00 00       	call   0x3420
    107c:	0f 0b                	ud2
    107e:	cc                   	int3
    107f:	cc                   	int3
    1080:	48 81 ec 88 00 00 00 	sub    rsp,0x88
    1087:	8b 46 34             	mov    eax,DWORD PTR [rsi+0x34]
    108a:	a8 10                	test   al,0x10
    108c:	0f 85 d5 00 00 00    	jne    0x1167
    1092:	a8 20                	test   al,0x20
    1094:	0f 85 15 01 00 00    	jne    0x11af
    109a:	8b 0f                	mov    ecx,DWORD PTR [rdi]
    109c:	b8 27 00 00 00       	mov    eax,0x27
    10a1:	48 81 f9 10 27 00 00 	cmp    rcx,0x2710
    10a8:	0f 82 79 01 00 00    	jb     0x1227
    10ae:	41 b8 27 00 00 00    	mov    r8d,0x27
    10b4:	48 bf 4b 59 86 38 d6 	movabs rdi,0x346dc5d63886594b
    10bb:	c5 6d 34 
    10be:	66 90                	xchg   ax,ax
    10c0:	48 89 c8             	mov    rax,rcx
    10c3:	48 f7 e7             	mul    rdi
    10c6:	48 c1 ea 0b          	shr    rdx,0xb
    10ca:	69 c2 10 27 00 00    	imul   eax,edx,0x2710
    10d0:	41 89 c9             	mov    r9d,ecx
    10d3:	41 29 c1             	sub    r9d,eax
    10d6:	45 69 d1 7b 14 00 00 	imul   r10d,r9d,0x147b
    10dd:	41 c1 ea 13          	shr    r10d,0x13
    10e1:	41 6b c2 64          	imul   eax,r10d,0x64
    10e5:	41 29 c1             	sub    r9d,eax
    10e8:	45 0f b7 c9          	movzx  r9d,r9w
    10ec:	49 8d 40 fc          	lea    rax,[r8-0x4]
    10f0:	47 0f b7 94 12 20 7a 	movzx  r10d,WORD PTR [r10+r10*1+0x7a20]
    10f7:	00 00 
    10f9:	66 46 89 54 04 04    	mov    WORD PTR [rsp+r8*1+0x4],r10w
    10ff:	47 0f b7 8c 09 20 7a 	movzx  r9d,WORD PTR [r9+r9*1+0x7a20]
    1106:	00 00 
    1108:	66 46 89 4c 04 06    	mov    WORD PTR [rsp+r8*1+0x6],r9w
    110e:	49 89 c0             	mov    r8,rax
    1111:	48 81 f9 ff e0 f5 05 	cmp    rcx,0x5f5e0ff
    1118:	48 89 d1             	mov    rcx,rdx
    111b:	77 a3                	ja     0x10c0
    111d:	48 83 fa 63          	cmp    rdx,0x63
    1121:	76 2b                	jbe    0x114e
    1123:	0f b7 ca             	movzx  ecx,dx
    1126:	c1 e9 02             	shr    ecx,0x2
    1129:	69 c9 7b 14 00 00    	imul   ecx,ecx,0x147b
    112f:	c1 e9 11             	shr    ecx,0x11
    1132:	6b f9 64             	imul   edi,ecx,0x64
    1135:	29 fa                	sub    edx,edi
    1137:	0f b7 d2             	movzx  edx,dx
    113a:	0f b7 94 12 20 7a 00 	movzx  edx,WORD PTR [rdx+rdx*1+0x7a20]
    1141:	00 
    1142:	66 89 54 04 06       	mov    WORD PTR [rsp+rax*1+0x6],dx
    1147:	48 83 c0 fe          	add    rax,0xfffffffffffffffe
    114b:	48 89 ca             	mov    rdx,rcx
    114e:	48 83 fa 0a          	cmp    rdx,0xa
    1152:	0f 83 e1 00 00 00    	jae    0x1239
    1158:	80 c2 30             	add    dl,0x30
    115b:	88 54 04 07          	mov    BYTE PTR [rsp+rax*1+0x7],dl
    115f:	48 ff c8             	dec    rax
    1162:	e9 e3 00 00 00       	jmp    0x124a
    1167:	8b 0f                	mov    ecx,DWORD PTR [rdi]
    1169:	ba 81 00 00 00       	mov    edx,0x81
    116e:	b8 30 00 00 00       	mov    eax,0x30
    1173:	41 89 c8             	mov    r8d,ecx
    1176:	66 2e 0f 1f 84 00 00 	cs nop WORD PTR [rax+rax*1+0x0]
    117d:	00 00 00 
    1180:	48 89 d7             	mov    rdi,rdx
    1183:	41 c1 e8 04          	shr    r8d,0x4
    1187:	89 ca                	mov    edx,ecx
    1189:	80 e2 0f             	and    dl,0xf
    118c:	80 fa 0a             	cmp    dl,0xa
    118f:	41 b9 57 00 00 00    	mov    r9d,0x57
    1195:	44 0f 42 c8          	cmovb  r9d,eax
    1199:	41 00 d1             	add    r9b,dl
    119c:	44 88 4c 3c 06       	mov    BYTE PTR [rsp+rdi*1+0x6],r9b
    11a1:	48 8d 57 ff          	lea    rdx,[rdi-0x1]
    11a5:	83 f9 10             	cmp    ecx,0x10
    11a8:	44 89 c1             	mov    ecx,r8d
    11ab:	73 d3                	jae    0x1180
    11ad:	eb 3e                	jmp    0x11ed
    11af:	8b 0f                	mov    ecx,DWORD PTR [rdi]
    11b1:	ba 81 00 00 00       	mov    edx,0x81
    11b6:	b8 30 00 00 00       	mov    eax,0x30
    11bb:	41 89 c8             	mov    r8d,ecx
    11be:	66 90                	xchg   ax,ax
    11c0:	48 89 d7             	mov    rdi,rdx
    11c3:	41 c1 e8 04          	shr    r8d,0x4
    11c7:	89 ca                	mov    edx,ecx
    11c9:	80 e2 0f             	and    dl,0xf
    11cc:	80 fa 0a             	cmp    dl,0xa
    11cf:	41 b9 37 00 00 00    	mov    r9d,0x37
    11d5:	44 0f 42 c8          	cmovb  r9d,eax
    11d9:	41 00 d1             	add    r9b,dl
    11dc:	44 88 4c 3c 06       	mov    BYTE PTR [rsp+rdi*1+0x6],r9b
    11e1:	48 8d 57 ff          	lea    rdx,[rdi-0x1]
    11e5:	83 f9 10             	cmp    ecx,0x10
    11e8:	44 89 c1             	mov    ecx,r8d
    11eb:	73 d3                	jae    0x11c0
    11ed:	48 83 c7 fe          	add    rdi,0xfffffffffffffffe
    11f1:	48 81 ff 80 00 00 00 	cmp    rdi,0x80
    11f8:	77 7a                	ja     0x1274
    11fa:	41 b8 81 00 00 00    	mov    r8d,0x81
    1200:	49 29 d0             	sub    r8,rdx
    1203:	48 8d 0c 3c          	lea    rcx,[rsp+rdi*1]
    1207:	48 83 c1 08          	add    rcx,0x8
    120b:	ba 02 00 00 00       	mov    edx,0x2
    1210:	48 89 f7             	mov    rdi,rsi
    1213:	48 c7 c6 b0 89 00 00 	mov    rsi,0x89b0
    121a:	e8 01 23 00 00       	call   0x3520
    121f:	48 81 c4 88 00 00 00 	add    rsp,0x88
    1226:	c3                   	ret
    1227:	48 89 ca             	mov    rdx,rcx
    122a:	48 83 fa 63          	cmp    rdx,0x63
    122e:	0f 87 ef fe ff ff    	ja     0x1123
    1234:	e9 15 ff ff ff       	jmp    0x114e
    1239:	0f b7 8c 12 20 7a 00 	movzx  ecx,WORD PTR [rdx+rdx*1+0x7a20]
    1240:	00 
    1241:	66 89 4c 04 06       	mov    WORD PTR [rsp+rax*1+0x6],cx
    1246:	48 83 c0 fe          	add    rax,0xfffffffffffffffe
    124a:	48 8d 0c 04          	lea    rcx,[rsp+rax*1]
    124e:	48 83 c1 08          	add    rcx,0x8
    1252:	41 b8 27 00 00 00    	mov    r8d,0x27
    1258:	49 29 c0             	sub    r8,rax
    125b:	48 89 f7             	mov    rdi,rsi
    125e:	48 c7 c6 68 88 00 00 	mov    rsi,0x8868
    1265:	31 d2                	xor    edx,edx
    1267:	e8 b4 22 00 00       	call   0x3520
    126c:	48 81 c4 88 00 00 00 	add    rsp,0x88
    1273:	c3                   	ret
    1274:	e8 a7 21 00 00       	call   0x3420
    1279:	0f 0b                	ud2
    127b:	cc                   	int3
    127c:	cc                   	int3
    127d:	cc                   	int3
    127e:	cc                   	int3
    127f:	cc                   	int3
    1280:	50                   	push   rax
    1281:	c7 44 24 04 00 00 00 	mov    DWORD PTR [rsp+0x4],0x0
    1288:	00 
    1289:	81 fe 80 00 00 00    	cmp    esi,0x80
    128f:	73 0f                	jae    0x12a0
    1291:	40 88 74 24 04       	mov    BYTE PTR [rsp+0x4],sil
    1296:	b8 01 00 00 00       	mov    eax,0x1
    129b:	e9 90 00 00 00       	jmp    0x1330
    12a0:	89 f0                	mov    eax,esi
    12a2:	81 fe 00 08 00 00    	cmp    esi,0x800
    12a8:	73 1d                	jae    0x12c7
    12aa:	c1 e8 06             	shr    eax,0x6
    12ad:	0c c0                	or     al,0xc0
    12af:	88 44 24 04          	mov    BYTE PTR [rsp+0x4],al
    12b3:	40 80 e6 3f          	and    sil,0x3f
    12b7:	40 80 ce 80          	or     sil,0x80
    12bb:	40 88 74 24 05       	mov    BYTE PTR [rsp+0x5],sil
    12c0:	b8 02 00 00 00       	mov    eax,0x2
    12c5:	eb 69                	jmp    0x1330
    12c7:	81 fe 00 00 01 00    	cmp    esi,0x10000
    12cd:	73 2a                	jae    0x12f9
    12cf:	c1 e8 0c             	shr    eax,0xc
    12d2:	0c e0                	or     al,0xe0
    12d4:	88 44 24 04          	mov    BYTE PTR [rsp+0x4],al
    12d8:	89 f0                	mov    eax,esi
    12da:	c1 e8 06             	shr    eax,0x6
    12dd:	24 3f                	and    al,0x3f
    12df:	0c 80                	or     al,0x80
    12e1:	88 44 24 05          	mov    BYTE PTR [rsp+0x5],al
    12e5:	40 80 e6 3f          	and    sil,0x3f
    12e9:	40 80 ce 80          	or     sil,0x80
    12ed:	40 88 74 24 06       	mov    BYTE PTR [rsp+0x6],sil
    12f2:	b8 03 00 00 00       	mov    eax,0x3
    12f7:	eb 37                	jmp    0x1330
    12f9:	c1 e8 12             	shr    eax,0x12
    12fc:	24 07                	and    al,0x7
    12fe:	0c f0                	or     al,0xf0
    1300:	88 44 24 04          	mov    BYTE PTR [rsp+0x4],al
    1304:	89 f0                	mov    eax,esi
    1306:	c1 e8 0c             	shr    eax,0xc
    1309:	24 3f                	and    al,0x3f
    130b:	0c 80                	or     al,0x80
    130d:	88 44 24 05          	mov    BYTE PTR [rsp+0x5],al
    1311:	89 f0                	mov    eax,esi
    1313:	c1 e8 06             	shr    eax,0x6
    1316:	24 3f                	and    al,0x3f
    1318:	0c 80                	or     al,0x80
    131a:	88 44 24 06          	mov    BYTE PTR [rsp+0x6],al
    131e:	40 80 e6 3f          	and    sil,0x3f
    1322:	40 80 ce 80          	or     sil,0x80
    1326:	40 88 74 24 07       	mov    BYTE PTR [rsp+0x7],sil
    132b:	b8 04 00 00 00       	mov    eax,0x4
    1330:	48 8d 0c 04          	lea    rcx,[rsp+rax*1]
    1334:	48 83 c1 04          	add    rcx,0x4
    1338:	48 8d 74 24 04       	lea    rsi,[rsp+0x4]
    133d:	eb 0e                	jmp    0x134d
    133f:	90                   	nop
    1340:	48 ff c6             	inc    rsi
    1343:	66 ba 00 10          	mov    dx,0x1000
    1347:	ee                   	out    dx,al
    1348:	48 39 ce             	cmp    rsi,rcx
    134b:	74 67                	je     0x13b4
    134d:	0f b6 06             	movzx  eax,BYTE PTR [rsi]
    1350:	84 c0                	test   al,al
    1352:	79 ec                	jns    0x1340
    1354:	89 c2                	mov    edx,eax
    1356:	83 e2 1f             	and    edx,0x1f
    1359:	44 0f b6 46 01       	movzx  r8d,BYTE PTR [rsi+0x1]
    135e:	41 83 e0 3f          	and    r8d,0x3f
    1362:	3c df                	cmp    al,0xdf
    1364:	76 33                	jbe    0x1399
    1366:	0f b6 7e 02          	movzx  edi,BYTE PTR [rsi+0x2]
    136a:	41 c1 e0 06          	shl    r8d,0x6
    136e:	83 e7 3f             	and    edi,0x3f
    1371:	44 09 c7             	or     edi,r8d
    1374:	3c f0                	cmp    al,0xf0
    1376:	72 2f                	jb     0x13a7
    1378:	0f b6 46 03          	movzx  eax,BYTE PTR [rsi+0x3]
    137c:	83 e2 07             	and    edx,0x7
    137f:	c1 e2 12             	shl    edx,0x12
    1382:	c1 e7 06             	shl    edi,0x6
    1385:	83 e0 3f             	and    eax,0x3f
    1388:	09 f8                	or     eax,edi
    138a:	09 d0                	or     eax,edx
    138c:	3d 00 00 11 00       	cmp    eax,0x110000
    1391:	74 21                	je     0x13b4
    1393:	48 83 c6 04          	add    rsi,0x4
    1397:	eb aa                	jmp    0x1343
    1399:	48 83 c6 02          	add    rsi,0x2
    139d:	c1 e2 06             	shl    edx,0x6
    13a0:	44 09 c2             	or     edx,r8d
    13a3:	89 d0                	mov    eax,edx
    13a5:	eb 9c                	jmp    0x1343
    13a7:	48 83 c6 03          	add    rsi,0x3
    13ab:	c1 e2 0c             	shl    edx,0xc
    13ae:	09 d7                	or     edi,edx
    13b0:	89 f8                	mov    eax,edi
    13b2:	eb 8f                	jmp    0x1343
    13b4:	31 c0                	xor    eax,eax
    13b6:	59                   	pop    rcx
    13b7:	c3                   	ret
    13b8:	cc                   	int3
    13b9:	cc                   	int3
    13ba:	cc                   	int3
    13bb:	cc                   	int3
    13bc:	cc                   	int3
    13bd:	cc                   	int3
    13be:	cc                   	int3
    13bf:	cc                   	int3
    13c0:	48 89 f2             	mov    rdx,rsi
    13c3:	48 c7 c6 48 74 00 00 	mov    rsi,0x7448
    13ca:	e9 11 2c 00 00       	jmp    0x3fe0
    13cf:	cc                   	int3
    13d0:	c3                   	ret
    13d1:	cc                   	int3
    13d2:	cc                   	int3
    13d3:	cc                   	int3
    13d4:	cc                   	int3
    13d5:	cc                   	int3
    13d6:	cc                   	int3
    13d7:	cc                   	int3
    13d8:	cc                   	int3
    13d9:	cc                   	int3
    13da:	cc                   	int3
    13db:	cc                   	int3
    13dc:	cc                   	int3
    13dd:	cc                   	int3
    13de:	cc                   	int3
    13df:	cc                   	int3
    13e0:	c3                   	ret
    13e1:	cc                   	int3
    13e2:	cc                   	int3
    13e3:	cc                   	int3
    13e4:	cc                   	int3
    13e5:	cc                   	int3
    13e6:	cc                   	int3
    13e7:	cc                   	int3
    13e8:	cc                   	int3
    13e9:	cc                   	int3
    13ea:	cc                   	int3
    13eb:	cc                   	int3
    13ec:	cc                   	int3
    13ed:	cc                   	int3
    13ee:	cc                   	int3
    13ef:	cc                   	int3
    13f0:	41 57                	push   r15
    13f2:	41 56                	push   r14
    13f4:	53                   	push   rbx
    13f5:	48 83 ec 20          	sub    rsp,0x20
    13f9:	49 89 f6             	mov    r14,rsi
    13fc:	48 89 fb             	mov    rbx,rdi
    13ff:	48 8b 7e 20          	mov    rdi,QWORD PTR [rsi+0x20]
    1403:	48 8b 46 28          	mov    rax,QWORD PTR [rsi+0x28]
    1407:	ba 01 00 00 00       	mov    edx,0x1
    140c:	48 c7 c6 a3 78 00 00 	mov    rsi,0x78a3
    1413:	ff 50 18             	call   QWORD PTR [rax+0x18]
    1416:	4c 89 74 24 10       	mov    QWORD PTR [rsp+0x10],r14
    141b:	88 44 24 18          	mov    BYTE PTR [rsp+0x18],al
    141f:	c6 44 24 19 00       	mov    BYTE PTR [rsp+0x19],0x0
    1424:	48 89 5c 24 08       	mov    QWORD PTR [rsp+0x8],rbx
    1429:	4c 8d 74 24 10       	lea    r14,[rsp+0x10]
    142e:	4c 8d 7c 24 08       	lea    r15,[rsp+0x8]
    1433:	4c 89 f7             	mov    rdi,r14
    1436:	4c 89 fe             	mov    rsi,r15
    1439:	e8 72 38 00 00       	call   0x4cb0
    143e:	48 8d 43 01          	lea    rax,[rbx+0x1]
    1442:	48 89 44 24 08       	mov    QWORD PTR [rsp+0x8],rax
    1447:	4c 89 f7             	mov    rdi,r14
    144a:	4c 89 fe             	mov    rsi,r15
    144d:	e8 5e 38 00 00       	call   0x4cb0
    1452:	48 8d 43 02          	lea    rax,[rbx+0x2]
    1456:	48 89 44 24 08       	mov    QWORD PTR [rsp+0x8],rax
    145b:	4c 89 f7             	mov    rdi,r14
    145e:	4c 89 fe             	mov    rsi,r15
    1461:	e8 4a 38 00 00       	call   0x4cb0
    1466:	48 83 c3 03          	add    rbx,0x3
    146a:	48 89 5c 24 08       	mov    QWORD PTR [rsp+0x8],rbx
    146f:	4c 89 f7             	mov    rdi,r14
    1472:	4c 89 fe             	mov    rsi,r15
    1475:	e8 36 38 00 00       	call   0x4cb0
    147a:	b0 01                	mov    al,0x1
    147c:	80 7c 24 18 00       	cmp    BYTE PTR [rsp+0x18],0x0
    1481:	75 1c                	jne    0x149f
    1483:	48 8b 44 24 10       	mov    rax,QWORD PTR [rsp+0x10]
    1488:	48 8b 78 20          	mov    rdi,QWORD PTR [rax+0x20]
    148c:	48 8b 40 28          	mov    rax,QWORD PTR [rax+0x28]
    1490:	ba 01 00 00 00       	mov    edx,0x1
    1495:	48 c7 c6 91 79 00 00 	mov    rsi,0x7991
    149c:	ff 50 18             	call   QWORD PTR [rax+0x18]
    149f:	48 83 c4 20          	add    rsp,0x20
    14a3:	5b                   	pop    rbx
    14a4:	41 5e                	pop    r14
    14a6:	41 5f                	pop    r15
    14a8:	c3                   	ret
    14a9:	cc                   	int3
    14aa:	cc                   	int3
    14ab:	cc                   	int3
    14ac:	cc                   	int3
    14ad:	cc                   	int3
    14ae:	cc                   	int3
    14af:	cc                   	int3
    14b0:	48 0f c7 f1          	rdrand rcx
    14b4:	b8 01 00 00 00       	mov    eax,0x1
    14b9:	0f 43 c1             	cmovae eax,ecx
    14bc:	48 89 0f             	mov    QWORD PTR [rdi],rcx
    14bf:	c3                   	ret
    14c0:	48 8b 7e 20          	mov    rdi,QWORD PTR [rsi+0x20]
    14c4:	48 8b 46 28          	mov    rax,QWORD PTR [rsi+0x28]
    14c8:	48 8b 40 18          	mov    rax,QWORD PTR [rax+0x18]
    14cc:	ba 05 00 00 00       	mov    edx,0x5
    14d1:	48 c7 c6 90 73 00 00 	mov    rsi,0x7390
    14d8:	ff e0                	jmp    rax
    14da:	cc                   	int3
    14db:	cc                   	int3
    14dc:	cc                   	int3
    14dd:	cc                   	int3
    14de:	cc                   	int3
    14df:	cc                   	int3
    14e0:	41 56                	push   r14
    14e2:	53                   	push   rbx
    14e3:	48 83 ec 28          	sub    rsp,0x28
    14e7:	48 89 f3             	mov    rbx,rsi
    14ea:	48 83 3f 00          	cmp    QWORD PTR [rdi],0x0
    14ee:	0f 84 ad 00 00 00    	je     0x15a1
    14f4:	48 89 7c 24 20       	mov    QWORD PTR [rsp+0x20],rdi
    14f9:	48 8b 7b 20          	mov    rdi,QWORD PTR [rbx+0x20]
    14fd:	48 8b 43 28          	mov    rax,QWORD PTR [rbx+0x28]
    1501:	ba 04 00 00 00       	mov    edx,0x4
    1506:	48 c7 c6 9d 73 00 00 	mov    rsi,0x739d
    150d:	ff 50 18             	call   QWORD PTR [rax+0x18]
    1510:	48 89 5c 24 10       	mov    QWORD PTR [rsp+0x10],rbx
    1515:	88 44 24 18          	mov    BYTE PTR [rsp+0x18],al
    1519:	48 c7 44 24 08 00 00 	mov    QWORD PTR [rsp+0x8],0x0
    1520:	00 00 
    1522:	c6 44 24 19 00       	mov    BYTE PTR [rsp+0x19],0x0
    1527:	48 8d 7c 24 08       	lea    rdi,[rsp+0x8]
    152c:	48 8d 74 24 20       	lea    rsi,[rsp+0x20]
    1531:	48 c7 c2 60 00 00 00 	mov    rdx,0x60
    1538:	e8 13 36 00 00       	call   0x4b50
    153d:	48 8b 44 24 08       	mov    rax,QWORD PTR [rsp+0x8]
    1542:	0f b6 4c 24 18       	movzx  ecx,BYTE PTR [rsp+0x18]
    1547:	48 85 c0             	test   rax,rax
    154a:	74 76                	je     0x15c2
    154c:	b3 01                	mov    bl,0x1
    154e:	84 c9                	test   cl,cl
    1550:	75 72                	jne    0x15c4
    1552:	4c 8b 74 24 10       	mov    r14,QWORD PTR [rsp+0x10]
    1557:	48 83 f8 01          	cmp    rax,0x1
    155b:	75 29                	jne    0x1586
    155d:	80 7c 24 19 00       	cmp    BYTE PTR [rsp+0x19],0x0
    1562:	74 22                	je     0x1586
    1564:	41 f6 46 34 04       	test   BYTE PTR [r14+0x34],0x4
    1569:	75 1b                	jne    0x1586
    156b:	49 8b 7e 20          	mov    rdi,QWORD PTR [r14+0x20]
    156f:	49 8b 46 28          	mov    rax,QWORD PTR [r14+0x28]
    1573:	ba 01 00 00 00       	mov    edx,0x1
    1578:	48 c7 c6 8f 79 00 00 	mov    rsi,0x798f
    157f:	ff 50 18             	call   QWORD PTR [rax+0x18]
    1582:	84 c0                	test   al,al
    1584:	75 3e                	jne    0x15c4
    1586:	49 8b 7e 20          	mov    rdi,QWORD PTR [r14+0x20]
    158a:	49 8b 46 28          	mov    rax,QWORD PTR [r14+0x28]
    158e:	ba 01 00 00 00       	mov    edx,0x1
    1593:	48 c7 c6 16 78 00 00 	mov    rsi,0x7816
    159a:	ff 50 18             	call   QWORD PTR [rax+0x18]
    159d:	89 c3                	mov    ebx,eax
    159f:	eb 23                	jmp    0x15c4
    15a1:	48 8b 7b 20          	mov    rdi,QWORD PTR [rbx+0x20]
    15a5:	48 8b 43 28          	mov    rax,QWORD PTR [rbx+0x28]
    15a9:	48 8b 40 18          	mov    rax,QWORD PTR [rax+0x18]
    15ad:	ba 04 00 00 00       	mov    edx,0x4
    15b2:	48 c7 c6 a9 73 00 00 	mov    rsi,0x73a9
    15b9:	48 83 c4 28          	add    rsp,0x28
    15bd:	5b                   	pop    rbx
    15be:	41 5e                	pop    r14
    15c0:	ff e0                	jmp    rax
    15c2:	89 cb                	mov    ebx,ecx
    15c4:	84 db                	test   bl,bl
    15c6:	0f 95 c0             	setne  al
    15c9:	48 83 c4 28          	add    rsp,0x28
    15cd:	5b                   	pop    rbx
    15ce:	41 5e                	pop    r14
    15d0:	c3                   	ret
    15d1:	cc                   	int3
    15d2:	cc                   	int3
    15d3:	cc                   	int3
    15d4:	cc                   	int3
    15d5:	cc                   	int3
    15d6:	cc                   	int3
    15d7:	cc                   	int3
    15d8:	cc                   	int3
    15d9:	cc                   	int3
    15da:	cc                   	int3
    15db:	cc                   	int3
    15dc:	cc                   	int3
    15dd:	cc                   	int3
    15de:	cc                   	int3
    15df:	cc                   	int3
    15e0:	41 56                	push   r14
    15e2:	53                   	push   rbx
    15e3:	48 83 ec 28          	sub    rsp,0x28
    15e7:	48 89 f3             	mov    rbx,rsi
    15ea:	48 83 3f 00          	cmp    QWORD PTR [rdi],0x0
    15ee:	0f 84 b1 00 00 00    	je     0x16a5
    15f4:	48 83 c7 08          	add    rdi,0x8
    15f8:	48 89 7c 24 20       	mov    QWORD PTR [rsp+0x20],rdi
    15fd:	48 8b 7b 20          	mov    rdi,QWORD PTR [rbx+0x20]
    1601:	48 8b 43 28          	mov    rax,QWORD PTR [rbx+0x28]
    1605:	ba 04 00 00 00       	mov    edx,0x4
    160a:	48 c7 c6 9d 73 00 00 	mov    rsi,0x739d
    1611:	ff 50 18             	call   QWORD PTR [rax+0x18]
    1614:	48 89 5c 24 10       	mov    QWORD PTR [rsp+0x10],rbx
    1619:	88 44 24 18          	mov    BYTE PTR [rsp+0x18],al
    161d:	48 c7 44 24 08 00 00 	mov    QWORD PTR [rsp+0x8],0x0
    1624:	00 00 
    1626:	c6 44 24 19 00       	mov    BYTE PTR [rsp+0x19],0x0
    162b:	48 8d 7c 24 08       	lea    rdi,[rsp+0x8]
    1630:	48 8d 74 24 20       	lea    rsi,[rsp+0x20]
    1635:	48 c7 c2 b0 06 00 00 	mov    rdx,0x6b0
    163c:	e8 0f 35 00 00       	call   0x4b50
    1641:	48 8b 44 24 08       	mov    rax,QWORD PTR [rsp+0x8]
    1646:	0f b6 4c 24 18       	movzx  ecx,BYTE PTR [rsp+0x18]
    164b:	48 85 c0             	test   rax,rax
    164e:	74 76                	je     0x16c6
    1650:	b3 01                	mov    bl,0x1
    1652:	84 c9                	test   cl,cl
    1654:	75 72                	jne    0x16c8
    1656:	4c 8b 74 24 10       	mov    r14,QWORD PTR [rsp+0x10]
    165b:	48 83 f8 01          	cmp    rax,0x1
    165f:	75 29                	jne    0x168a
    1661:	80 7c 24 19 00       	cmp    BYTE PTR [rsp+0x19],0x0
    1666:	74 22                	je     0x168a
    1668:	41 f6 46 34 04       	test   BYTE PTR [r14+0x34],0x4
    166d:	75 1b                	jne    0x168a
    166f:	49 8b 7e 20          	mov    rdi,QWORD PTR [r14+0x20]
    1673:	49 8b 46 28          	mov    rax,QWORD PTR [r14+0x28]
    1677:	ba 01 00 00 00       	mov    edx,0x1
    167c:	48 c7 c6 8f 79 00 00 	mov    rsi,0x798f
    1683:	ff 50 18             	call   QWORD PTR [rax+0x18]
    1686:	84 c0                	test   al,al
    1688:	75 3e                	jne    0x16c8
    168a:	49 8b 7e 20          	mov    rdi,QWORD PTR [r14+0x20]
    168e:	49 8b 46 28          	mov    rax,QWORD PTR [r14+0x28]
    1692:	ba 01 00 00 00       	mov    edx,0x1
    1697:	48 c7 c6 16 78 00 00 	mov    rsi,0x7816
    169e:	ff 50 18             	call   QWORD PTR [rax+0x18]
    16a1:	89 c3                	mov    ebx,eax
    16a3:	eb 23                	jmp    0x16c8
    16a5:	48 8b 7b 20          	mov    rdi,QWORD PTR [rbx+0x20]
    16a9:	48 8b 43 28          	mov    rax,QWORD PTR [rbx+0x28]
    16ad:	48 8b 40 18          	mov    rax,QWORD PTR [rax+0x18]
    16b1:	ba 04 00 00 00       	mov    edx,0x4
    16b6:	48 c7 c6 a9 73 00 00 	mov    rsi,0x73a9
    16bd:	48 83 c4 28          	add    rsp,0x28
    16c1:	5b                   	pop    rbx
    16c2:	41 5e                	pop    r14
    16c4:	ff e0                	jmp    rax
    16c6:	89 cb                	mov    ebx,ecx
    16c8:	84 db                	test   bl,bl
    16ca:	0f 95 c0             	setne  al
    16cd:	48 83 c4 28          	add    rsp,0x28
    16d1:	5b                   	pop    rbx
    16d2:	41 5e                	pop    r14
    16d4:	c3                   	ret
    16d5:	cc                   	int3
    16d6:	cc                   	int3
    16d7:	cc                   	int3
    16d8:	cc                   	int3
    16d9:	cc                   	int3
    16da:	cc                   	int3
    16db:	cc                   	int3
    16dc:	cc                   	int3
    16dd:	cc                   	int3
    16de:	cc                   	int3
    16df:	cc                   	int3
    16e0:	53                   	push   rbx
    16e1:	48 83 ec 30          	sub    rsp,0x30
    16e5:	48 89 f3             	mov    rbx,rsi
    16e8:	0f b7 07             	movzx  eax,WORD PTR [rdi]
    16eb:	66 89 44 24 0e       	mov    WORD PTR [rsp+0xe],ax
    16f0:	48 8b 47 02          	mov    rax,QWORD PTR [rdi+0x2]
    16f4:	48 89 44 24 28       	mov    QWORD PTR [rsp+0x28],rax
    16f9:	48 8d 44 24 28       	lea    rax,[rsp+0x28]
    16fe:	48 89 44 24 20       	mov    QWORD PTR [rsp+0x20],rax
    1703:	48 8b 7e 20          	mov    rdi,QWORD PTR [rsi+0x20]
    1707:	48 8b 46 28          	mov    rax,QWORD PTR [rsi+0x28]
    170b:	ba 16 00 00 00       	mov    edx,0x16
    1710:	48 c7 c6 78 74 00 00 	mov    rsi,0x7478
    1717:	ff 50 18             	call   QWORD PTR [rax+0x18]
    171a:	48 89 5c 24 10       	mov    QWORD PTR [rsp+0x10],rbx
    171f:	88 44 24 18          	mov    BYTE PTR [rsp+0x18],al
    1723:	c6 44 24 19 00       	mov    BYTE PTR [rsp+0x19],0x0
    1728:	48 8d 5c 24 10       	lea    rbx,[rsp+0x10]
    172d:	48 8d 4c 24 0e       	lea    rcx,[rsp+0xe]
    1732:	ba 05 00 00 00       	mov    edx,0x5
    1737:	48 89 df             	mov    rdi,rbx
    173a:	48 c7 c6 8e 74 00 00 	mov    rsi,0x748e
    1741:	49 c7 c0 c0 0e 00 00 	mov    r8,0xec0
    1748:	e8 33 2d 00 00       	call   0x4480
    174d:	48 8d 4c 24 20       	lea    rcx,[rsp+0x20]
    1752:	ba 04 00 00 00       	mov    edx,0x4
    1757:	48 89 df             	mov    rdi,rbx
    175a:	48 c7 c6 99 73 00 00 	mov    rsi,0x7399
    1761:	49 c7 c0 50 05 00 00 	mov    r8,0x550
    1768:	e8 13 2d 00 00       	call   0x4480
    176d:	80 7c 24 19 00       	cmp    BYTE PTR [rsp+0x19],0x0
    1772:	0f b6 44 24 18       	movzx  eax,BYTE PTR [rsp+0x18]
    1777:	74 3e                	je     0x17b7
    1779:	84 c0                	test   al,al
    177b:	b0 01                	mov    al,0x1
    177d:	75 38                	jne    0x17b7
    177f:	48 8b 44 24 10       	mov    rax,QWORD PTR [rsp+0x10]
    1784:	f6 40 34 04          	test   BYTE PTR [rax+0x34],0x4
    1788:	75 16                	jne    0x17a0
    178a:	48 8b 78 20          	mov    rdi,QWORD PTR [rax+0x20]
    178e:	48 8b 40 28          	mov    rax,QWORD PTR [rax+0x28]
    1792:	ba 02 00 00 00       	mov    edx,0x2
    1797:	48 c7 c6 8a 79 00 00 	mov    rsi,0x798a
    179e:	eb 14                	jmp    0x17b4
    17a0:	48 8b 78 20          	mov    rdi,QWORD PTR [rax+0x20]
    17a4:	48 8b 40 28          	mov    rax,QWORD PTR [rax+0x28]
    17a8:	ba 01 00 00 00       	mov    edx,0x1
    17ad:	48 c7 c6 89 79 00 00 	mov    rsi,0x7989
    17b4:	ff 50 18             	call   QWORD PTR [rax+0x18]
    17b7:	84 c0                	test   al,al
    17b9:	0f 95 c0             	setne  al
    17bc:	48 83 c4 30          	add    rsp,0x30
    17c0:	5b                   	pop    rbx
    17c1:	c3                   	ret
    17c2:	cc                   	int3
    17c3:	cc                   	int3
    17c4:	cc                   	int3
    17c5:	cc                   	int3
    17c6:	cc                   	int3
    17c7:	cc                   	int3
    17c8:	cc                   	int3
    17c9:	cc                   	int3
    17ca:	cc                   	int3
    17cb:	cc                   	int3
    17cc:	cc                   	int3
    17cd:	cc                   	int3
    17ce:	cc                   	int3
    17cf:	cc                   	int3
    17d0:	41 56                	push   r14
    17d2:	53                   	push   rbx
    17d3:	48 83 ec 28          	sub    rsp,0x28
    17d7:	48 89 f3             	mov    rbx,rsi
    17da:	48 89 7c 24 20       	mov    QWORD PTR [rsp+0x20],rdi
    17df:	48 8b 7e 20          	mov    rdi,QWORD PTR [rsi+0x20]
    17e3:	48 8b 46 28          	mov    rax,QWORD PTR [rsi+0x28]
    17e7:	ba 12 00 00 00       	mov    edx,0x12
    17ec:	48 c7 c6 93 74 00 00 	mov    rsi,0x7493
    17f3:	ff 50 18             	call   QWORD PTR [rax+0x18]
    17f6:	48 89 5c 24 10       	mov    QWORD PTR [rsp+0x10],rbx
    17fb:	88 44 24 18          	mov    BYTE PTR [rsp+0x18],al
    17ff:	48 c7 44 24 08 00 00 	mov    QWORD PTR [rsp+0x8],0x0
    1806:	00 00 
    1808:	c6 44 24 19 00       	mov    BYTE PTR [rsp+0x19],0x0
    180d:	48 8d 7c 24 08       	lea    rdi,[rsp+0x8]
    1812:	48 8d 74 24 20       	lea    rsi,[rsp+0x20]
    1817:	48 c7 c2 f0 08 00 00 	mov    rdx,0x8f0
    181e:	e8 2d 33 00 00       	call   0x4b50
    1823:	48 8b 44 24 08       	mov    rax,QWORD PTR [rsp+0x8]
    1828:	0f b6 4c 24 18       	movzx  ecx,BYTE PTR [rsp+0x18]
    182d:	48 85 c0             	test   rax,rax
    1830:	74 55                	je     0x1887
    1832:	b3 01                	mov    bl,0x1
    1834:	84 c9                	test   cl,cl
    1836:	75 51                	jne    0x1889
    1838:	4c 8b 74 24 10       	mov    r14,QWORD PTR [rsp+0x10]
    183d:	48 83 f8 01          	cmp    rax,0x1
    1841:	75 29                	jne    0x186c
    1843:	80 7c 24 19 00       	cmp    BYTE PTR [rsp+0x19],0x0
    1848:	74 22                	je     0x186c
    184a:	41 f6 46 34 04       	test   BYTE PTR [r14+0x34],0x4
    184f:	75 1b                	jne    0x186c
    1851:	49 8b 7e 20          	mov    rdi,QWORD PTR [r14+0x20]
    1855:	49 8b 46 28          	mov    rax,QWORD PTR [r14+0x28]
    1859:	ba 01 00 00 00       	mov    edx,0x1
    185e:	48 c7 c6 8f 79 00 00 	mov    rsi,0x798f
    1865:	ff 50 18             	call   QWORD PTR [rax+0x18]
    1868:	84 c0                	test   al,al
    186a:	75 1d                	jne    0x1889
    186c:	49 8b 7e 20          	mov    rdi,QWORD PTR [r14+0x20]
    1870:	49 8b 46 28          	mov    rax,QWORD PTR [r14+0x28]
    1874:	ba 01 00 00 00       	mov    edx,0x1
    1879:	48 c7 c6 16 78 00 00 	mov    rsi,0x7816
    1880:	ff 50 18             	call   QWORD PTR [rax+0x18]
    1883:	89 c3                	mov    ebx,eax
    1885:	eb 02                	jmp    0x1889
    1887:	89 cb                	mov    ebx,ecx
    1889:	84 db                	test   bl,bl
    188b:	0f 95 c0             	setne  al
    188e:	48 83 c4 28          	add    rsp,0x28
    1892:	5b                   	pop    rbx
    1893:	41 5e                	pop    r14
    1895:	c3                   	ret
    1896:	cc                   	int3
    1897:	cc                   	int3
    1898:	cc                   	int3
    1899:	cc                   	int3
    189a:	cc                   	int3
    189b:	cc                   	int3
    189c:	cc                   	int3
    189d:	cc                   	int3
    189e:	cc                   	int3
    189f:	cc                   	int3
    18a0:	41 56                	push   r14
    18a2:	53                   	push   rbx
    18a3:	48 83 ec 18          	sub    rsp,0x18
    18a7:	49 89 f6             	mov    r14,rsi
    18aa:	48 89 fb             	mov    rbx,rdi
    18ad:	48 8b 7e 20          	mov    rdi,QWORD PTR [rsi+0x20]
    18b1:	48 8b 46 28          	mov    rax,QWORD PTR [rsi+0x28]
    18b5:	ba 13 00 00 00       	mov    edx,0x13
    18ba:	48 c7 c6 a8 8a 00 00 	mov    rsi,0x8aa8
    18c1:	ff 50 18             	call   QWORD PTR [rax+0x18]
    18c4:	4c 89 34 24          	mov    QWORD PTR [rsp],r14
    18c8:	88 44 24 08          	mov    BYTE PTR [rsp+0x8],al
    18cc:	c6 44 24 09 00       	mov    BYTE PTR [rsp+0x9],0x0
    18d1:	49 89 e6             	mov    r14,rsp
    18d4:	ba 13 00 00 00       	mov    edx,0x13
    18d9:	4c 89 f7             	mov    rdi,r14
    18dc:	48 c7 c6 bb 8a 00 00 	mov    rsi,0x8abb
    18e3:	48 89 d9             	mov    rcx,rbx
    18e6:	49 c7 c0 20 5c 00 00 	mov    r8,0x5c20
    18ed:	e8 8e 2b 00 00       	call   0x4480
    18f2:	48 8d 4b 08          	lea    rcx,[rbx+0x8]
    18f6:	ba 0c 00 00 00       	mov    edx,0xc
    18fb:	4c 89 f7             	mov    rdi,r14
    18fe:	48 c7 c6 ce 8a 00 00 	mov    rsi,0x8ace
    1905:	49 c7 c0 00 5e 00 00 	mov    r8,0x5e00
    190c:	e8 6f 2b 00 00       	call   0x4480
    1911:	48 8b 43 10          	mov    rax,QWORD PTR [rbx+0x10]
    1915:	48 89 44 24 10       	mov    QWORD PTR [rsp+0x10],rax
    191a:	48 8d 4c 24 10       	lea    rcx,[rsp+0x10]
    191f:	ba 09 00 00 00       	mov    edx,0x9
    1924:	4c 89 f7             	mov    rdi,r14
    1927:	48 c7 c6 da 8a 00 00 	mov    rsi,0x8ada
    192e:	49 c7 c0 70 5d 00 00 	mov    r8,0x5d70
    1935:	e8 46 2b 00 00       	call   0x4480
    193a:	48 8d 4b 18          	lea    rcx,[rbx+0x18]
    193e:	ba 0d 00 00 00       	mov    edx,0xd
    1943:	4c 89 f7             	mov    rdi,r14
    1946:	48 c7 c6 e3 8a 00 00 	mov    rsi,0x8ae3
    194d:	49 c7 c0 20 5c 00 00 	mov    r8,0x5c20
    1954:	e8 27 2b 00 00       	call   0x4480
    1959:	48 83 c3 20          	add    rbx,0x20
    195d:	ba 0d 00 00 00       	mov    edx,0xd
    1962:	4c 89 f7             	mov    rdi,r14
    1965:	48 c7 c6 f0 8a 00 00 	mov    rsi,0x8af0
    196c:	48 89 d9             	mov    rcx,rbx
    196f:	49 c7 c0 00 5e 00 00 	mov    r8,0x5e00
    1976:	e8 05 2b 00 00       	call   0x4480
    197b:	80 7c 24 09 00       	cmp    BYTE PTR [rsp+0x9],0x0
    1980:	0f b6 44 24 08       	movzx  eax,BYTE PTR [rsp+0x8]
    1985:	74 3d                	je     0x19c4
    1987:	84 c0                	test   al,al
    1989:	b0 01                	mov    al,0x1
    198b:	75 37                	jne    0x19c4
    198d:	48 8b 04 24          	mov    rax,QWORD PTR [rsp]
    1991:	f6 40 34 04          	test   BYTE PTR [rax+0x34],0x4
    1995:	75 16                	jne    0x19ad
    1997:	48 8b 78 20          	mov    rdi,QWORD PTR [rax+0x20]
    199b:	48 8b 40 28          	mov    rax,QWORD PTR [rax+0x28]
    199f:	ba 02 00 00 00       	mov    edx,0x2
    19a4:	48 c7 c6 8a 79 00 00 	mov    rsi,0x798a
    19ab:	eb 14                	jmp    0x19c1
    19ad:	48 8b 78 20          	mov    rdi,QWORD PTR [rax+0x20]
    19b1:	48 8b 40 28          	mov    rax,QWORD PTR [rax+0x28]
    19b5:	ba 01 00 00 00       	mov    edx,0x1
    19ba:	48 c7 c6 89 79 00 00 	mov    rsi,0x7989
    19c1:	ff 50 18             	call   QWORD PTR [rax+0x18]
    19c4:	84 c0                	test   al,al
    19c6:	0f 95 c0             	setne  al
    19c9:	48 83 c4 18          	add    rsp,0x18
    19cd:	5b                   	pop    rbx
    19ce:	41 5e                	pop    r14
    19d0:	c3                   	ret
    19d1:	cc                   	int3
    19d2:	cc                   	int3
    19d3:	cc                   	int3
    19d4:	cc                   	int3
    19d5:	cc                   	int3
    19d6:	cc                   	int3
    19d7:	cc                   	int3
    19d8:	cc                   	int3
    19d9:	cc                   	int3
    19da:	cc                   	int3
    19db:	cc                   	int3
    19dc:	cc                   	int3
    19dd:	cc                   	int3
    19de:	cc                   	int3
    19df:	cc                   	int3
    19e0:	48 85 d2             	test   rdx,rdx
    19e3:	0f 84 8f 00 00 00    	je     0x1a78
    19e9:	50                   	push   rax
    19ea:	48 89 d1             	mov    rcx,rdx
    19ed:	48 01 f1             	add    rcx,rsi
    19f0:	eb 1b                	jmp    0x1a0d
    19f2:	66 66 66 66 66 2e 0f 	data16 data16 data16 data16 cs nop WORD PTR [rax+rax*1+0x0]
    19f9:	1f 84 00 00 00 00 00 
    1a00:	48 ff c6             	inc    rsi
    1a03:	66 ba 00 10          	mov    dx,0x1000
    1a07:	ee                   	out    dx,al
    1a08:	48 39 ce             	cmp    rsi,rcx
    1a0b:	74 67                	je     0x1a74
    1a0d:	0f b6 06             	movzx  eax,BYTE PTR [rsi]
    1a10:	84 c0                	test   al,al
    1a12:	79 ec                	jns    0x1a00
    1a14:	89 c2                	mov    edx,eax
    1a16:	83 e2 1f             	and    edx,0x1f
    1a19:	44 0f b6 46 01       	movzx  r8d,BYTE PTR [rsi+0x1]
    1a1e:	41 83 e0 3f          	and    r8d,0x3f
    1a22:	3c df                	cmp    al,0xdf
    1a24:	76 33                	jbe    0x1a59
    1a26:	0f b6 7e 02          	movzx  edi,BYTE PTR [rsi+0x2]
    1a2a:	41 c1 e0 06          	shl    r8d,0x6
    1a2e:	83 e7 3f             	and    edi,0x3f
    1a31:	44 09 c7             	or     edi,r8d
    1a34:	3c f0                	cmp    al,0xf0
    1a36:	72 2f                	jb     0x1a67
    1a38:	0f b6 46 03          	movzx  eax,BYTE PTR [rsi+0x3]
    1a3c:	83 e2 07             	and    edx,0x7
    1a3f:	c1 e2 12             	shl    edx,0x12
    1a42:	c1 e7 06             	shl    edi,0x6
    1a45:	83 e0 3f             	and    eax,0x3f
    1a48:	09 f8                	or     eax,edi
    1a4a:	09 d0                	or     eax,edx
    1a4c:	3d 00 00 11 00       	cmp    eax,0x110000
    1a51:	74 21                	je     0x1a74
    1a53:	48 83 c6 04          	add    rsi,0x4
    1a57:	eb aa                	jmp    0x1a03
    1a59:	48 83 c6 02          	add    rsi,0x2
    1a5d:	c1 e2 06             	shl    edx,0x6
    1a60:	44 09 c2             	or     edx,r8d
    1a63:	89 d0                	mov    eax,edx
    1a65:	eb 9c                	jmp    0x1a03
    1a67:	48 83 c6 03          	add    rsi,0x3
    1a6b:	c1 e2 0c             	shl    edx,0xc
    1a6e:	09 d7                	or     edi,edx
    1a70:	89 f8                	mov    eax,edi
    1a72:	eb 8f                	jmp    0x1a03
    1a74:	48 83 c4 08          	add    rsp,0x8
    1a78:	31 c0                	xor    eax,eax
    1a7a:	c3                   	ret
    1a7b:	cc                   	int3
    1a7c:	cc                   	int3
    1a7d:	cc                   	int3
    1a7e:	cc                   	int3
    1a7f:	cc                   	int3
    1a80:	50                   	push   rax
    1a81:	48 89 fa             	mov    rdx,rdi
    1a84:	48 8b 05 85 46 00 00 	mov    rax,QWORD PTR [rip+0x4685]        # 0x6110
    1a8b:	48 85 c0             	test   rax,rax
    1a8e:	75 39                	jne    0x1ac9
    1a90:	b9 01 00 00 00       	mov    ecx,0x1
    1a95:	31 c0                	xor    eax,eax
    1a97:	f0 48 0f b1 0d 70 46 	lock cmpxchg QWORD PTR [rip+0x4670],rcx        # 0x6110
    1a9e:	00 00 
    1aa0:	75 27                	jne    0x1ac9
    1aa2:	66 c7 05 6d 46 00 00 	mov    WORD PTR [rip+0x466d],0x1        # 0x6118
    1aa9:	01 00 
    1aab:	b8 02 00 00 00       	mov    eax,0x2
    1ab0:	48 87 05 59 46 00 00 	xchg   QWORD PTR [rip+0x4659],rax        # 0x6110
    1ab7:	eb 1c                	jmp    0x1ad5
    1ab9:	0f 1f 80 00 00 00 00 	nop    DWORD PTR [rax+0x0]
    1ac0:	f3 90                	pause
    1ac2:	48 8b 05 47 46 00 00 	mov    rax,QWORD PTR [rip+0x4647]        # 0x6110
    1ac9:	48 83 f8 01          	cmp    rax,0x1
    1acd:	74 f1                	je     0x1ac0
    1acf:	48 83 f8 02          	cmp    rax,0x2
    1ad3:	75 55                	jne    0x1b2a
    1ad5:	b1 01                	mov    cl,0x1
    1ad7:	66 0f 1f 84 00 00 00 	nop    WORD PTR [rax+rax*1+0x0]
    1ade:	00 00 
    1ae0:	31 c0                	xor    eax,eax
    1ae2:	f0 0f b0 0d 2f 46 00 	lock cmpxchg BYTE PTR [rip+0x462f],cl        # 0x6119
    1ae9:	00 
    1aea:	74 1e                	je     0x1b0a
    1aec:	0f 1f 40 00          	nop    DWORD PTR [rax+0x0]
    1af0:	0f b6 05 22 46 00 00 	movzx  eax,BYTE PTR [rip+0x4622]        # 0x6119
    1af7:	84 c0                	test   al,al
    1af9:	74 e5                	je     0x1ae0
    1afb:	f3 90                	pause
    1afd:	0f b6 05 15 46 00 00 	movzx  eax,BYTE PTR [rip+0x4615]        # 0x6119
    1b04:	84 c0                	test   al,al
    1b06:	75 f3                	jne    0x1afb
    1b08:	eb d6                	jmp    0x1ae0
    1b0a:	48 c7 c7 1a 61 00 00 	mov    rdi,0x611a
    1b11:	48 c7 c6 48 74 00 00 	mov    rsi,0x7448
    1b18:	e8 c3 24 00 00       	call   0x3fe0
    1b1d:	84 c0                	test   al,al
    1b1f:	75 42                	jne    0x1b63
    1b21:	c6 05 f1 45 00 00 00 	mov    BYTE PTR [rip+0x45f1],0x0        # 0x6119
    1b28:	58                   	pop    rax
    1b29:	c3                   	ret
    1b2a:	48 85 c0             	test   rax,rax
    1b2d:	75 1a                	jne    0x1b49
    1b2f:	be 28 00 00 00       	mov    esi,0x28
    1b34:	48 c7 c7 c0 72 00 00 	mov    rdi,0x72c0
    1b3b:	48 c7 c2 48 73 00 00 	mov    rdx,0x7348
    1b42:	e8 19 24 00 00       	call   0x3f60
    1b47:	0f 0b                	ud2
    1b49:	be 11 00 00 00       	mov    esi,0x11
    1b4e:	48 c7 c7 60 73 00 00 	mov    rdi,0x7360
    1b55:	48 c7 c2 78 73 00 00 	mov    rdx,0x7378
    1b5c:	e8 ff 23 00 00       	call   0x3f60
    1b61:	0f 0b                	ud2
    1b63:	48 8d 54 24 07       	lea    rdx,[rsp+0x7]
    1b68:	be 2b 00 00 00       	mov    esi,0x2b
    1b6d:	48 c7 c7 a5 74 00 00 	mov    rdi,0x74a5
    1b74:	48 c7 c1 d0 74 00 00 	mov    rcx,0x74d0
    1b7b:	49 c7 c0 00 75 00 00 	mov    r8,0x7500
    1b82:	e8 e9 2d 00 00       	call   0x4970
    1b87:	0f 0b                	ud2
    1b89:	cc                   	int3
    1b8a:	cc                   	int3
    1b8b:	cc                   	int3
    1b8c:	cc                   	int3
    1b8d:	cc                   	int3
    1b8e:	cc                   	int3
    1b8f:	cc                   	int3
    1b90:	50                   	push   rax
    1b91:	41 53                	push   r11
    1b93:	41 52                	push   r10
    1b95:	41 51                	push   r9
    1b97:	41 50                	push   r8
    1b99:	57                   	push   rdi
    1b9a:	56                   	push   rsi
    1b9b:	52                   	push   rdx
    1b9c:	51                   	push   rcx
    1b9d:	50                   	push   rax
    1b9e:	48 83 ec 48          	sub    rsp,0x48
    1ba2:	fc                   	cld
    1ba3:	48 8d 84 24 98 00 00 	lea    rax,[rsp+0x98]
    1baa:	00 
    1bab:	48 89 44 24 08       	mov    QWORD PTR [rsp+0x8],rax
    1bb0:	48 c7 44 24 10 20 59 	mov    QWORD PTR [rsp+0x10],0x5920
    1bb7:	00 00 
    1bb9:	48 c7 44 24 18 28 75 	mov    QWORD PTR [rsp+0x18],0x7528
    1bc0:	00 00 
    1bc2:	48 c7 44 24 20 02 00 	mov    QWORD PTR [rsp+0x20],0x2
    1bc9:	00 00 
    1bcb:	48 c7 44 24 38 00 00 	mov    QWORD PTR [rsp+0x38],0x0
    1bd2:	00 00 
    1bd4:	48 8d 44 24 08       	lea    rax,[rsp+0x8]
    1bd9:	48 89 44 24 28       	mov    QWORD PTR [rsp+0x28],rax
    1bde:	48 c7 44 24 30 01 00 	mov    QWORD PTR [rsp+0x30],0x1
    1be5:	00 00 
    1be7:	48 8d 7c 24 18       	lea    rdi,[rsp+0x18]
    1bec:	e8 8f fe ff ff       	call   0x1a80
    1bf1:	66 ba 00 10          	mov    dx,0x1000
    1bf5:	b0 2e                	mov    al,0x2e
    1bf7:	ee                   	out    dx,al
    1bf8:	b0 0a                	mov    al,0xa
    1bfa:	ee                   	out    dx,al
    1bfb:	b0 2e                	mov    al,0x2e
    1bfd:	ee                   	out    dx,al
    1bfe:	b0 0a                	mov    al,0xa
    1c00:	ee                   	out    dx,al
    1c01:	b0 2e                	mov    al,0x2e
    1c03:	ee                   	out    dx,al
    1c04:	b0 0a                	mov    al,0xa
    1c06:	ee                   	out    dx,al
    1c07:	b0 2e                	mov    al,0x2e
    1c09:	ee                   	out    dx,al
    1c0a:	b0 0a                	mov    al,0xa
    1c0c:	ee                   	out    dx,al
    1c0d:	48 83 c4 48          	add    rsp,0x48
    1c11:	58                   	pop    rax
    1c12:	59                   	pop    rcx
    1c13:	5a                   	pop    rdx
    1c14:	5e                   	pop    rsi
    1c15:	5f                   	pop    rdi
    1c16:	41 58                	pop    r8
    1c18:	41 59                	pop    r9
    1c1a:	41 5a                	pop    r10
    1c1c:	41 5b                	pop    r11
    1c1e:	48 83 c4 10          	add    rsp,0x10
    1c22:	48 cf                	iretq
    1c24:	cc                   	int3
    1c25:	cc                   	int3
    1c26:	cc                   	int3
    1c27:	cc                   	int3
    1c28:	cc                   	int3
    1c29:	cc                   	int3
    1c2a:	cc                   	int3
    1c2b:	cc                   	int3
    1c2c:	cc                   	int3
    1c2d:	cc                   	int3
    1c2e:	cc                   	int3
    1c2f:	cc                   	int3
    1c30:	50                   	push   rax
    1c31:	41 53                	push   r11
    1c33:	41 52                	push   r10
    1c35:	41 51                	push   r9
    1c37:	41 50                	push   r8
    1c39:	57                   	push   rdi
    1c3a:	56                   	push   rsi
    1c3b:	52                   	push   rdx
    1c3c:	51                   	push   rcx
    1c3d:	50                   	push   rax
    1c3e:	48 83 ec 48          	sub    rsp,0x48
    1c42:	fc                   	cld
    1c43:	48 8d 84 24 98 00 00 	lea    rax,[rsp+0x98]
    1c4a:	00 
    1c4b:	48 89 44 24 08       	mov    QWORD PTR [rsp+0x8],rax
    1c50:	48 c7 44 24 10 d0 17 	mov    QWORD PTR [rsp+0x10],0x17d0
    1c57:	00 00 
    1c59:	48 c7 44 24 18 58 75 	mov    QWORD PTR [rsp+0x18],0x7558
    1c60:	00 00 
    1c62:	48 c7 44 24 20 02 00 	mov    QWORD PTR [rsp+0x20],0x2
    1c69:	00 00 
    1c6b:	48 c7 44 24 38 00 00 	mov    QWORD PTR [rsp+0x38],0x0
    1c72:	00 00 
    1c74:	48 8d 44 24 08       	lea    rax,[rsp+0x8]
    1c79:	48 89 44 24 28       	mov    QWORD PTR [rsp+0x28],rax
    1c7e:	48 c7 44 24 30 01 00 	mov    QWORD PTR [rsp+0x30],0x1
    1c85:	00 00 
    1c87:	48 8d 7c 24 18       	lea    rdi,[rsp+0x18]
    1c8c:	e8 ef fd ff ff       	call   0x1a80
    1c91:	66 ba 00 10          	mov    dx,0x1000
    1c95:	b0 2e                	mov    al,0x2e
    1c97:	ee                   	out    dx,al
    1c98:	b0 0a                	mov    al,0xa
    1c9a:	ee                   	out    dx,al
    1c9b:	b0 2e                	mov    al,0x2e
    1c9d:	ee                   	out    dx,al
    1c9e:	b0 0a                	mov    al,0xa
    1ca0:	ee                   	out    dx,al
    1ca1:	b0 2e                	mov    al,0x2e
    1ca3:	ee                   	out    dx,al
    1ca4:	b0 0a                	mov    al,0xa
    1ca6:	ee                   	out    dx,al
    1ca7:	48 83 c4 48          	add    rsp,0x48
    1cab:	58                   	pop    rax
    1cac:	59                   	pop    rcx
    1cad:	5a                   	pop    rdx
    1cae:	5e                   	pop    rsi
    1caf:	5f                   	pop    rdi
    1cb0:	41 58                	pop    r8
    1cb2:	41 59                	pop    r9
    1cb4:	41 5a                	pop    r10
    1cb6:	41 5b                	pop    r11
    1cb8:	48 83 c4 10          	add    rsp,0x10
    1cbc:	48 cf                	iretq
    1cbe:	cc                   	int3
    1cbf:	cc                   	int3
    1cc0:	50                   	push   rax
    1cc1:	41 53                	push   r11
    1cc3:	41 52                	push   r10
    1cc5:	41 51                	push   r9
    1cc7:	41 50                	push   r8
    1cc9:	57                   	push   rdi
    1cca:	56                   	push   rsi
    1ccb:	52                   	push   rdx
    1ccc:	51                   	push   rcx
    1ccd:	50                   	push   rax
    1cce:	48 83 ec 48          	sub    rsp,0x48
    1cd2:	fc                   	cld
    1cd3:	48 8d 84 24 98 00 00 	lea    rax,[rsp+0x98]
    1cda:	00 
    1cdb:	48 89 44 24 08       	mov    QWORD PTR [rsp+0x8],rax
    1ce0:	48 c7 44 24 10 20 59 	mov    QWORD PTR [rsp+0x10],0x5920
    1ce7:	00 00 
    1ce9:	48 c7 44 24 18 28 75 	mov    QWORD PTR [rsp+0x18],0x7528
    1cf0:	00 00 
    1cf2:	48 c7 44 24 20 02 00 	mov    QWORD PTR [rsp+0x20],0x2
    1cf9:	00 00 
    1cfb:	48 c7 44 24 38 00 00 	mov    QWORD PTR [rsp+0x38],0x0
    1d02:	00 00 
    1d04:	48 8d 44 24 08       	lea    rax,[rsp+0x8]
    1d09:	48 89 44 24 28       	mov    QWORD PTR [rsp+0x28],rax
    1d0e:	48 c7 44 24 30 01 00 	mov    QWORD PTR [rsp+0x30],0x1
    1d15:	00 00 
    1d17:	48 8d 7c 24 18       	lea    rdi,[rsp+0x18]
    1d1c:	e8 5f fd ff ff       	call   0x1a80
    1d21:	66 ba 00 10          	mov    dx,0x1000
    1d25:	b0 2e                	mov    al,0x2e
    1d27:	ee                   	out    dx,al
    1d28:	b0 0a                	mov    al,0xa
    1d2a:	ee                   	out    dx,al
    1d2b:	b0 2e                	mov    al,0x2e
    1d2d:	ee                   	out    dx,al
    1d2e:	b0 0a                	mov    al,0xa
    1d30:	ee                   	out    dx,al
    1d31:	66 66 66 66 66 66 2e 	data16 data16 data16 data16 data16 cs nop WORD PTR [rax+rax*1+0x0]
    1d38:	0f 1f 84 00 00 00 00 
    1d3f:	00 
    1d40:	eb fe                	jmp    0x1d40
    1d42:	cc                   	int3
    1d43:	cc                   	int3
    1d44:	cc                   	int3
    1d45:	cc                   	int3
    1d46:	cc                   	int3
    1d47:	cc                   	int3
    1d48:	cc                   	int3
    1d49:	cc                   	int3
    1d4a:	cc                   	int3
    1d4b:	cc                   	int3
    1d4c:	cc                   	int3
    1d4d:	cc                   	int3
    1d4e:	cc                   	int3
    1d4f:	cc                   	int3
    1d50:	41 53                	push   r11
    1d52:	41 52                	push   r10
    1d54:	41 51                	push   r9
    1d56:	41 50                	push   r8
    1d58:	57                   	push   rdi
    1d59:	56                   	push   rsi
    1d5a:	52                   	push   rdx
    1d5b:	51                   	push   rcx
    1d5c:	50                   	push   rax
    1d5d:	48 81 ec 80 00 00 00 	sub    rsp,0x80
    1d64:	fc                   	cld
    1d65:	48 8d 84 24 c8 00 00 	lea    rax,[rsp+0xc8]
    1d6c:	00 
    1d6d:	48 89 44 24 08       	mov    QWORD PTR [rsp+0x8],rax
    1d72:	48 c7 44 24 10 a0 18 	mov    QWORD PTR [rsp+0x10],0x18a0
    1d79:	00 00 
    1d7b:	48 c7 44 24 48 02 00 	mov    QWORD PTR [rsp+0x48],0x2
    1d82:	00 00 
    1d84:	48 c7 44 24 58 02 00 	mov    QWORD PTR [rsp+0x58],0x2
    1d8b:	00 00 
    1d8d:	48 c7 44 24 68 00 00 	mov    QWORD PTR [rsp+0x68],0x0
    1d94:	00 00 
    1d96:	48 b8 20 00 00 00 04 	movabs rax,0x400000020
    1d9d:	00 00 00 
    1da0:	48 89 44 24 70       	mov    QWORD PTR [rsp+0x70],rax
    1da5:	c6 44 24 78 03       	mov    BYTE PTR [rsp+0x78],0x3
    1daa:	48 c7 44 24 18 c8 75 	mov    QWORD PTR [rsp+0x18],0x75c8
    1db1:	00 00 
    1db3:	48 c7 44 24 20 02 00 	mov    QWORD PTR [rsp+0x20],0x2
    1dba:	00 00 
    1dbc:	48 8d 44 24 48       	lea    rax,[rsp+0x48]
    1dc1:	48 89 44 24 38       	mov    QWORD PTR [rsp+0x38],rax
    1dc6:	48 c7 44 24 40 01 00 	mov    QWORD PTR [rsp+0x40],0x1
    1dcd:	00 00 
    1dcf:	48 8d 44 24 08       	lea    rax,[rsp+0x8]
    1dd4:	48 89 44 24 28       	mov    QWORD PTR [rsp+0x28],rax
    1dd9:	48 c7 44 24 30 01 00 	mov    QWORD PTR [rsp+0x30],0x1
    1de0:	00 00 
    1de2:	48 8d 7c 24 18       	lea    rdi,[rsp+0x18]
    1de7:	e8 94 fc ff ff       	call   0x1a80
    1dec:	48 81 c4 80 00 00 00 	add    rsp,0x80
    1df3:	58                   	pop    rax
    1df4:	59                   	pop    rcx
    1df5:	5a                   	pop    rdx
    1df6:	5e                   	pop    rsi
    1df7:	5f                   	pop    rdi
    1df8:	41 58                	pop    r8
    1dfa:	41 59                	pop    r9
    1dfc:	41 5a                	pop    r10
    1dfe:	41 5b                	pop    r11
    1e00:	48 cf                	iretq
    1e02:	cc                   	int3
    1e03:	cc                   	int3
    1e04:	cc                   	int3
    1e05:	cc                   	int3
    1e06:	cc                   	int3
    1e07:	cc                   	int3
    1e08:	cc                   	int3
    1e09:	cc                   	int3
    1e0a:	cc                   	int3
    1e0b:	cc                   	int3
    1e0c:	cc                   	int3
    1e0d:	cc                   	int3
    1e0e:	cc                   	int3
    1e0f:	cc                   	int3
    1e10:	48 81 ec 88 00 00 00 	sub    rsp,0x88
    1e17:	48 89 7c 24 08       	mov    QWORD PTR [rsp+0x8],rdi
    1e1c:	48 8d 44 24 08       	lea    rax,[rsp+0x8]
    1e21:	48 89 44 24 10       	mov    QWORD PTR [rsp+0x10],rax
    1e26:	48 c7 44 24 18 60 05 	mov    QWORD PTR [rsp+0x18],0x560
    1e2d:	00 00 
    1e2f:	48 c7 44 24 50 02 00 	mov    QWORD PTR [rsp+0x50],0x2
    1e36:	00 00 
    1e38:	48 c7 44 24 60 02 00 	mov    QWORD PTR [rsp+0x60],0x2
    1e3f:	00 00 
    1e41:	48 c7 44 24 70 00 00 	mov    QWORD PTR [rsp+0x70],0x0
    1e48:	00 00 
    1e4a:	48 b8 20 00 00 00 04 	movabs rax,0x400000020
    1e51:	00 00 00 
    1e54:	48 89 44 24 78       	mov    QWORD PTR [rsp+0x78],rax
    1e59:	c6 84 24 80 00 00 00 	mov    BYTE PTR [rsp+0x80],0x3
    1e60:	03 
    1e61:	48 c7 44 24 20 f0 75 	mov    QWORD PTR [rsp+0x20],0x75f0
    1e68:	00 00 
    1e6a:	48 c7 44 24 28 02 00 	mov    QWORD PTR [rsp+0x28],0x2
    1e71:	00 00 
    1e73:	48 8d 44 24 50       	lea    rax,[rsp+0x50]
    1e78:	48 89 44 24 40       	mov    QWORD PTR [rsp+0x40],rax
    1e7d:	48 c7 44 24 48 01 00 	mov    QWORD PTR [rsp+0x48],0x1
    1e84:	00 00 
    1e86:	48 8d 44 24 10       	lea    rax,[rsp+0x10]
    1e8b:	48 89 44 24 30       	mov    QWORD PTR [rsp+0x30],rax
    1e90:	48 c7 44 24 38 01 00 	mov    QWORD PTR [rsp+0x38],0x1
    1e97:	00 00 
    1e99:	48 8d 7c 24 20       	lea    rdi,[rsp+0x20]
    1e9e:	e8 dd fb ff ff       	call   0x1a80
    1ea3:	66 66 66 66 2e 0f 1f 	data16 data16 data16 cs nop WORD PTR [rax+rax*1+0x0]
    1eaa:	84 00 00 00 00 00 
    1eb0:	eb fe                	jmp    0x1eb0
    1eb2:	cc                   	int3
    1eb3:	cc                   	int3
    1eb4:	cc                   	int3
    1eb5:	cc                   	int3
    1eb6:	cc                   	int3
    1eb7:	cc                   	int3
    1eb8:	cc                   	int3
    1eb9:	cc                   	int3
    1eba:	cc                   	int3
    1ebb:	cc                   	int3
    1ebc:	cc                   	int3
    1ebd:	cc                   	int3
    1ebe:	cc                   	int3
    1ebf:	cc                   	int3
    1ec0:	55                   	push   rbp
    1ec1:	41 57                	push   r15
    1ec3:	41 56                	push   r14
    1ec5:	41 55                	push   r13
    1ec7:	41 54                	push   r12
    1ec9:	53                   	push   rbx
    1eca:	b8 38 1d 00 00       	mov    eax,0x1d38
    1ecf:	e8 bb 41 00 00       	call   0x608f
    1ed4:	48 29 c4             	sub    rsp,rax
    1ed7:	9c                   	pushf
    1ed8:	58                   	pop    rax
    1ed9:	a9 00 02 00 00       	test   eax,0x200
    1ede:	0f 85 0f 12 00 00    	jne    0x30f3
    1ee4:	b8 01 00 00 00       	mov    eax,0x1
    1ee9:	31 c9                	xor    ecx,ecx
    1eeb:	48 89 de             	mov    rsi,rbx
    1eee:	0f a2                	cpuid
    1ef0:	48 87 f3             	xchg   rbx,rsi
    1ef3:	f7 c1 00 00 00 40    	test   ecx,0x40000000
    1ef9:	0f 85 8d 12 00 00    	jne    0x318c
    1eff:	8c c8                	mov    eax,cs
    1f01:	83 e0 03             	and    eax,0x3
    1f04:	66 89 44 24 28       	mov    WORD PTR [rsp+0x28],ax
    1f09:	4c 8d 74 24 28       	lea    r14,[rsp+0x28]
    1f0e:	4c 89 b4 24 30 0f 00 	mov    QWORD PTR [rsp+0xf30],r14
    1f15:	00 
    1f16:	48 c7 84 24 38 0f 00 	mov    QWORD PTR [rsp+0xf38],0x4a70
    1f1d:	00 70 4a 00 00 
    1f22:	48 c7 84 24 30 01 00 	mov    QWORD PTR [rsp+0x130],0x7678
    1f29:	00 78 76 00 00 
    1f2e:	48 c7 84 24 38 01 00 	mov    QWORD PTR [rsp+0x138],0x2
    1f35:	00 02 00 00 00 
    1f3a:	48 c7 84 24 50 01 00 	mov    QWORD PTR [rsp+0x150],0x0
    1f41:	00 00 00 00 00 
    1f46:	48 8d 9c 24 30 0f 00 	lea    rbx,[rsp+0xf30]
    1f4d:	00 
    1f4e:	48 89 9c 24 40 01 00 	mov    QWORD PTR [rsp+0x140],rbx
    1f55:	00 
    1f56:	48 c7 84 24 48 01 00 	mov    QWORD PTR [rsp+0x148],0x1
    1f5d:	00 01 00 00 00 
    1f62:	48 8d bc 24 30 01 00 	lea    rdi,[rsp+0x130]
    1f69:	00 
    1f6a:	e8 11 fb ff ff       	call   0x1a80
    1f6f:	48 c7 84 24 30 0f 00 	mov    QWORD PTR [rsp+0xf30],0x7395
    1f76:	00 95 73 00 00 
    1f7b:	48 c7 84 24 38 0f 00 	mov    QWORD PTR [rsp+0xf38],0x13f0
    1f82:	00 f0 13 00 00 
    1f87:	48 c7 84 24 30 01 00 	mov    QWORD PTR [rsp+0x130],0x76a8
    1f8e:	00 a8 76 00 00 
    1f93:	48 c7 84 24 38 01 00 	mov    QWORD PTR [rsp+0x138],0x2
    1f9a:	00 02 00 00 00 
    1f9f:	48 c7 84 24 50 01 00 	mov    QWORD PTR [rsp+0x150],0x0
    1fa6:	00 00 00 00 00 
    1fab:	48 89 9c 24 40 01 00 	mov    QWORD PTR [rsp+0x140],rbx
    1fb2:	00 
    1fb3:	48 c7 84 24 48 01 00 	mov    QWORD PTR [rsp+0x148],0x1
    1fba:	00 01 00 00 00 
    1fbf:	48 8d 9c 24 30 01 00 	lea    rbx,[rsp+0x130]
    1fc6:	00 
    1fc7:	48 89 df             	mov    rdi,rbx
    1fca:	e8 b1 fa ff ff       	call   0x1a80
    1fcf:	48 c7 c1 c8 76 00 00 	mov    rcx,0x76c8
    1fd6:	48 c7 c6 dd 76 00 00 	mov    rsi,0x76dd
    1fdd:	eb 0e                	jmp    0x1fed
    1fdf:	90                   	nop
    1fe0:	48 ff c1             	inc    rcx
    1fe3:	66 ba 00 10          	mov    dx,0x1000
    1fe7:	ee                   	out    dx,al
    1fe8:	48 39 f1             	cmp    rcx,rsi
    1feb:	74 67                	je     0x2054
    1fed:	0f b6 01             	movzx  eax,BYTE PTR [rcx]
    1ff0:	84 c0                	test   al,al
    1ff2:	79 ec                	jns    0x1fe0
    1ff4:	89 c2                	mov    edx,eax
    1ff6:	83 e2 1f             	and    edx,0x1f
    1ff9:	44 0f b6 41 01       	movzx  r8d,BYTE PTR [rcx+0x1]
    1ffe:	41 83 e0 3f          	and    r8d,0x3f
    2002:	3c df                	cmp    al,0xdf
    2004:	76 33                	jbe    0x2039
    2006:	0f b6 79 02          	movzx  edi,BYTE PTR [rcx+0x2]
    200a:	41 c1 e0 06          	shl    r8d,0x6
    200e:	83 e7 3f             	and    edi,0x3f
    2011:	44 09 c7             	or     edi,r8d
    2014:	3c f0                	cmp    al,0xf0
    2016:	72 2f                	jb     0x2047
    2018:	0f b6 41 03          	movzx  eax,BYTE PTR [rcx+0x3]
    201c:	83 e2 07             	and    edx,0x7
    201f:	c1 e2 12             	shl    edx,0x12
    2022:	c1 e7 06             	shl    edi,0x6
    2025:	83 e0 3f             	and    eax,0x3f
    2028:	09 f8                	or     eax,edi
    202a:	09 d0                	or     eax,edx
    202c:	3d 00 00 11 00       	cmp    eax,0x110000
    2031:	74 21                	je     0x2054
    2033:	48 83 c1 04          	add    rcx,0x4
    2037:	eb aa                	jmp    0x1fe3
    2039:	48 83 c1 02          	add    rcx,0x2
    203d:	c1 e2 06             	shl    edx,0x6
    2040:	44 09 c2             	or     edx,r8d
    2043:	89 d0                	mov    eax,edx
    2045:	eb 9c                	jmp    0x1fe3
    2047:	48 83 c1 03          	add    rcx,0x3
    204b:	c1 e2 0c             	shl    edx,0xc
    204e:	09 d7                	or     edi,edx
    2050:	89 f8                	mov    eax,edi
    2052:	eb 8f                	jmp    0x1fe3
    2054:	48 8b 05 d5 50 00 00 	mov    rax,QWORD PTR [rip+0x50d5]        # 0x7130
    205b:	48 85 c0             	test   rax,rax
    205e:	0f 85 55 0b 00 00    	jne    0x2bb9
    2064:	b9 01 00 00 00       	mov    ecx,0x1
    2069:	31 c0                	xor    eax,eax
    206b:	f0 48 0f b1 0d bc 50 	lock cmpxchg QWORD PTR [rip+0x50bc],rcx        # 0x7130
    2072:	00 00 
    2074:	0f 85 3f 0b 00 00    	jne    0x2bb9
    207a:	b8 1c 00 00 00       	mov    eax,0x1c
    207f:	48 b9 00 00 00 00 00 	movabs rcx,0xe0000000000
    2086:	0e 00 00 
    2089:	0f 1f 80 00 00 00 00 	nop    DWORD PTR [rax+0x0]
    2090:	48 89 8c 04 14 01 00 	mov    QWORD PTR [rsp+rax*1+0x114],rcx
    2097:	00 
    2098:	48 c7 84 04 1c 01 00 	mov    QWORD PTR [rsp+rax*1+0x11c],0x0
    209f:	00 00 00 00 00 
    20a4:	48 89 8c 04 24 01 00 	mov    QWORD PTR [rsp+rax*1+0x124],rcx
    20ab:	00 
    20ac:	48 c7 84 04 2c 01 00 	mov    QWORD PTR [rsp+rax*1+0x12c],0x0
    20b3:	00 00 00 00 00 
    20b8:	48 83 c0 20          	add    rax,0x20
    20bc:	48 3d 1c 0e 00 00    	cmp    rax,0xe1c
    20c2:	75 cc                	jne    0x2090
    20c4:	48 8d bc 24 30 0f 00 	lea    rdi,[rsp+0xf30]
    20cb:	00 
    20cc:	48 8d b4 24 30 01 00 	lea    rsi,[rsp+0x130]
    20d3:	00 
    20d4:	ba 00 0e 00 00       	mov    edx,0xe00
    20d9:	e8 22 40 00 00       	call   0x6100
    20de:	48 c7 44 24 48 30 1c 	mov    QWORD PTR [rsp+0x48],0x1c30
    20e5:	00 00 
    20e7:	48 c7 c0 30 1c 00 00 	mov    rax,0x1c30
    20ee:	48 c1 e8 2f          	shr    rax,0x2f
    20f2:	74 2f                	je     0x2123
    20f4:	48 c7 c0 30 1c 00 00 	mov    rax,0x1c30
    20fb:	48 c1 e8 2f          	shr    rax,0x2f
    20ff:	3d ff ff 01 00       	cmp    eax,0x1ffff
    2104:	74 1d                	je     0x2123
    2106:	83 f8 01             	cmp    eax,0x1
    2109:	0f 85 57 12 00 00    	jne    0x3366
    210f:	48 c7 c0 30 1c 00 00 	mov    rax,0x1c30
    2116:	48 c1 e0 10          	shl    rax,0x10
    211a:	48 c1 f8 10          	sar    rax,0x10
    211e:	48 89 44 24 48       	mov    QWORD PTR [rsp+0x48],rax
    2123:	48 c7 44 24 40 c0 1c 	mov    QWORD PTR [rsp+0x40],0x1cc0
    212a:	00 00 
    212c:	8c cb                	mov    ebx,cs
    212e:	48 c7 c0 c0 1c 00 00 	mov    rax,0x1cc0
    2135:	48 c1 e8 2f          	shr    rax,0x2f
    2139:	74 2f                	je     0x216a
    213b:	48 c7 c0 c0 1c 00 00 	mov    rax,0x1cc0
    2142:	48 c1 e8 2f          	shr    rax,0x2f
    2146:	3d ff ff 01 00       	cmp    eax,0x1ffff
    214b:	74 1d                	je     0x216a
    214d:	83 f8 01             	cmp    eax,0x1
    2150:	0f 85 1e 12 00 00    	jne    0x3374
    2156:	48 c7 c0 c0 1c 00 00 	mov    rax,0x1cc0
    215d:	48 c1 e0 10          	shl    rax,0x10
    2161:	48 c1 f8 10          	sar    rax,0x10
    2165:	48 89 44 24 40       	mov    QWORD PTR [rsp+0x40],rax
    216a:	48 c7 44 24 38 90 1b 	mov    QWORD PTR [rsp+0x38],0x1b90
    2171:	00 00 
    2173:	41 8c c8             	mov    r8d,cs
    2176:	48 c7 c0 90 1b 00 00 	mov    rax,0x1b90
    217d:	48 c1 e8 2f          	shr    rax,0x2f
    2181:	49 c7 c1 90 1b 00 00 	mov    r9,0x1b90
    2188:	74 24                	je     0x21ae
    218a:	48 c7 c1 90 1b 00 00 	mov    rcx,0x1b90
    2191:	48 c1 e9 2f          	shr    rcx,0x2f
    2195:	81 f9 ff ff 01 00    	cmp    ecx,0x1ffff
    219b:	74 11                	je     0x21ae
    219d:	83 f9 01             	cmp    ecx,0x1
    21a0:	0f 85 b2 11 00 00    	jne    0x3358
    21a6:	49 c1 e1 10          	shl    r9,0x10
    21aa:	49 c1 f9 10          	sar    r9,0x10
    21ae:	41 8c ca             	mov    r10d,cs
    21b1:	48 85 c0             	test   rax,rax
    21b4:	74 2f                	je     0x21e5
    21b6:	48 c7 c0 90 1b 00 00 	mov    rax,0x1b90
    21bd:	48 c1 e8 2f          	shr    rax,0x2f
    21c1:	3d ff ff 01 00       	cmp    eax,0x1ffff
    21c6:	74 1d                	je     0x21e5
    21c8:	83 f8 01             	cmp    eax,0x1
    21cb:	0f 85 87 11 00 00    	jne    0x3358
    21d1:	48 c7 c0 90 1b 00 00 	mov    rax,0x1b90
    21d8:	48 c1 e0 10          	shl    rax,0x10
    21dc:	48 c1 f8 10          	sar    rax,0x10
    21e0:	48 89 44 24 38       	mov    QWORD PTR [rsp+0x38],rax
    21e5:	48 c7 84 24 80 00 00 	mov    QWORD PTR [rsp+0x80],0x1d50
    21ec:	00 50 1d 00 00 
    21f1:	41 8c cd             	mov    r13d,cs
    21f4:	48 c7 c0 50 1d 00 00 	mov    rax,0x1d50
    21fb:	48 c1 e8 2f          	shr    rax,0x2f
    21ff:	48 c7 c5 50 1d 00 00 	mov    rbp,0x1d50
    2206:	74 24                	je     0x222c
    2208:	48 c7 c1 50 1d 00 00 	mov    rcx,0x1d50
    220f:	48 c1 e9 2f          	shr    rcx,0x2f
    2213:	81 f9 ff ff 01 00    	cmp    ecx,0x1ffff
    2219:	74 11                	je     0x222c
    221b:	83 f9 01             	cmp    ecx,0x1
    221e:	0f 85 f1 10 00 00    	jne    0x3315
    2224:	48 c1 e5 10          	shl    rbp,0x10
    2228:	48 c1 fd 10          	sar    rbp,0x10
    222c:	8c cf                	mov    edi,cs
    222e:	48 85 c0             	test   rax,rax
    2231:	74 32                	je     0x2265
    2233:	48 c7 c0 50 1d 00 00 	mov    rax,0x1d50
    223a:	48 c1 e8 2f          	shr    rax,0x2f
    223e:	3d ff ff 01 00       	cmp    eax,0x1ffff
    2243:	74 20                	je     0x2265
    2245:	83 f8 01             	cmp    eax,0x1
    2248:	0f 85 c7 10 00 00    	jne    0x3315
    224e:	48 c7 c0 50 1d 00 00 	mov    rax,0x1d50
    2255:	48 c1 e0 10          	shl    rax,0x10
    2259:	48 c1 f8 10          	sar    rax,0x10
    225d:	48 89 84 24 80 00 00 	mov    QWORD PTR [rsp+0x80],rax
    2264:	00 
    2265:	49 c7 c7 50 1d 00 00 	mov    r15,0x1d50
    226c:	8c c8                	mov    eax,cs
    226e:	66 89 44 24 26       	mov    WORD PTR [rsp+0x26],ax
    2273:	48 c7 c0 50 1d 00 00 	mov    rax,0x1d50
    227a:	48 c1 e8 2f          	shr    rax,0x2f
    227e:	49 c7 c4 50 1d 00 00 	mov    r12,0x1d50
    2285:	74 24                	je     0x22ab
    2287:	48 c7 c1 50 1d 00 00 	mov    rcx,0x1d50
    228e:	48 c1 e9 2f          	shr    rcx,0x2f
    2292:	81 f9 ff ff 01 00    	cmp    ecx,0x1ffff
    2298:	74 11                	je     0x22ab
    229a:	83 f9 01             	cmp    ecx,0x1
    229d:	0f 85 72 10 00 00    	jne    0x3315
    22a3:	49 c1 e4 10          	shl    r12,0x10
    22a7:	49 c1 fc 10          	sar    r12,0x10
    22ab:	8c c9                	mov    ecx,cs
    22ad:	48 85 c0             	test   rax,rax
    22b0:	74 23                	je     0x22d5
    22b2:	48 c7 c0 50 1d 00 00 	mov    rax,0x1d50
    22b9:	48 c1 e8 2f          	shr    rax,0x2f
    22bd:	3d ff ff 01 00       	cmp    eax,0x1ffff
    22c2:	74 11                	je     0x22d5
    22c4:	83 f8 01             	cmp    eax,0x1
    22c7:	0f 85 48 10 00 00    	jne    0x3315
    22cd:	49 c1 e7 10          	shl    r15,0x10
    22d1:	49 c1 ff 10          	sar    r15,0x10
    22d5:	66 89 5c 24 24       	mov    WORD PTR [rsp+0x24],bx
    22da:	66 89 4c 24 22       	mov    WORD PTR [rsp+0x22],cx
    22df:	48 c7 c3 50 1d 00 00 	mov    rbx,0x1d50
    22e6:	8c c8                	mov    eax,cs
    22e8:	66 89 44 24 20       	mov    WORD PTR [rsp+0x20],ax
    22ed:	48 c7 c0 50 1d 00 00 	mov    rax,0x1d50
    22f4:	48 c1 e8 2f          	shr    rax,0x2f
    22f8:	49 c7 c3 50 1d 00 00 	mov    r11,0x1d50
    22ff:	74 24                	je     0x2325
    2301:	48 c7 c1 50 1d 00 00 	mov    rcx,0x1d50
    2308:	48 c1 e9 2f          	shr    rcx,0x2f
    230c:	81 f9 ff ff 01 00    	cmp    ecx,0x1ffff
    2312:	74 11                	je     0x2325
    2314:	83 f9 01             	cmp    ecx,0x1
    2317:	0f 85 f8 0f 00 00    	jne    0x3315
    231d:	49 c1 e3 10          	shl    r11,0x10
    2321:	49 c1 fb 10          	sar    r11,0x10
    2325:	8c c9                	mov    ecx,cs
    2327:	48 85 c0             	test   rax,rax
    232a:	74 23                	je     0x234f
    232c:	48 c7 c0 50 1d 00 00 	mov    rax,0x1d50
    2333:	48 c1 e8 2f          	shr    rax,0x2f
    2337:	3d ff ff 01 00       	cmp    eax,0x1ffff
    233c:	74 11                	je     0x234f
    233e:	83 f8 01             	cmp    eax,0x1
    2341:	0f 85 ce 0f 00 00    	jne    0x3315
    2347:	48 c1 e3 10          	shl    rbx,0x10
    234b:	48 c1 fb 10          	sar    rbx,0x10
    234f:	48 c7 c6 50 1d 00 00 	mov    rsi,0x1d50
    2356:	8c ca                	mov    edx,cs
    2358:	48 c7 c0 50 1d 00 00 	mov    rax,0x1d50
    235f:	48 c1 e8 2f          	shr    rax,0x2f
    2363:	74 23                	je     0x2388
    2365:	48 c7 c0 50 1d 00 00 	mov    rax,0x1d50
    236c:	48 c1 e8 2f          	shr    rax,0x2f
    2370:	3d ff ff 01 00       	cmp    eax,0x1ffff
    2375:	74 11                	je     0x2388
    2377:	83 f8 01             	cmp    eax,0x1
    237a:	0f 85 95 0f 00 00    	jne    0x3315
    2380:	48 c1 e6 10          	shl    rsi,0x10
    2384:	48 c1 fe 10          	sar    rsi,0x10
    2388:	66 89 54 24 1c       	mov    WORD PTR [rsp+0x1c],dx
    238d:	66 89 4c 24 1e       	mov    WORD PTR [rsp+0x1e],cx
    2392:	48 c7 c2 90 1b 00 00 	mov    rdx,0x1b90
    2399:	8c c8                	mov    eax,cs
    239b:	66 89 44 24 1a       	mov    WORD PTR [rsp+0x1a],ax
    23a0:	48 c7 c0 90 1b 00 00 	mov    rax,0x1b90
    23a7:	48 c1 e8 2f          	shr    rax,0x2f
    23ab:	49 c7 c6 90 1b 00 00 	mov    r14,0x1b90
    23b2:	74 24                	je     0x23d8
    23b4:	48 c7 c1 90 1b 00 00 	mov    rcx,0x1b90
    23bb:	48 c1 e9 2f          	shr    rcx,0x2f
    23bf:	81 f9 ff ff 01 00    	cmp    ecx,0x1ffff
    23c5:	74 11                	je     0x23d8
    23c7:	83 f9 01             	cmp    ecx,0x1
    23ca:	0f 85 88 0f 00 00    	jne    0x3358
    23d0:	49 c1 e6 10          	shl    r14,0x10
    23d4:	49 c1 fe 10          	sar    r14,0x10
    23d8:	8c c9                	mov    ecx,cs
    23da:	66 89 4c 24 10       	mov    WORD PTR [rsp+0x10],cx
    23df:	48 85 c0             	test   rax,rax
    23e2:	66 44 89 44 24 18    	mov    WORD PTR [rsp+0x18],r8w
    23e8:	66 44 89 54 24 16    	mov    WORD PTR [rsp+0x16],r10w
    23ee:	66 44 89 6c 24 14    	mov    WORD PTR [rsp+0x14],r13w
    23f4:	66 89 7c 24 12       	mov    WORD PTR [rsp+0x12],di
    23f9:	74 23                	je     0x241e
    23fb:	48 c7 c0 90 1b 00 00 	mov    rax,0x1b90
    2402:	48 c1 e8 2f          	shr    rax,0x2f
    2406:	3d ff ff 01 00       	cmp    eax,0x1ffff
    240b:	74 11                	je     0x241e
    240d:	83 f8 01             	cmp    eax,0x1
    2410:	0f 85 42 0f 00 00    	jne    0x3358
    2416:	48 c1 e2 10          	shl    rdx,0x10
    241a:	48 c1 fa 10          	sar    rdx,0x10
    241e:	4c 89 b4 24 20 01 00 	mov    QWORD PTR [rsp+0x120],r14
    2425:	00 
    2426:	4c 89 f0             	mov    rax,r14
    2429:	48 c1 e8 20          	shr    rax,0x20
    242d:	48 89 84 24 28 01 00 	mov    QWORD PTR [rsp+0x128],rax
    2434:	00 
    2435:	44 89 f0             	mov    eax,r14d
    2438:	c1 e8 10             	shr    eax,0x10
    243b:	89 44 24 7c          	mov    DWORD PTR [rsp+0x7c],eax
    243f:	48 89 b4 24 e8 00 00 	mov    QWORD PTR [rsp+0xe8],rsi
    2446:	00 
    2447:	48 89 f0             	mov    rax,rsi
    244a:	48 c1 e8 20          	shr    rax,0x20
    244e:	48 89 84 24 00 01 00 	mov    QWORD PTR [rsp+0x100],rax
    2455:	00 
    2456:	89 f0                	mov    eax,esi
    2458:	c1 e8 10             	shr    eax,0x10
    245b:	89 44 24 70          	mov    DWORD PTR [rsp+0x70],eax
    245f:	48 89 9c 24 08 01 00 	mov    QWORD PTR [rsp+0x108],rbx
    2466:	00 
    2467:	48 89 d8             	mov    rax,rbx
    246a:	48 c1 e8 20          	shr    rax,0x20
    246e:	48 89 84 24 10 01 00 	mov    QWORD PTR [rsp+0x110],rax
    2475:	00 
    2476:	89 d8                	mov    eax,ebx
    2478:	c1 e8 10             	shr    eax,0x10
    247b:	89 44 24 74          	mov    DWORD PTR [rsp+0x74],eax
    247f:	4c 89 9c 24 e0 00 00 	mov    QWORD PTR [rsp+0xe0],r11
    2486:	00 
    2487:	4c 89 d8             	mov    rax,r11
    248a:	48 c1 e8 20          	shr    rax,0x20
    248e:	48 89 84 24 f0 00 00 	mov    QWORD PTR [rsp+0xf0],rax
    2495:	00 
    2496:	44 89 d8             	mov    eax,r11d
    2499:	c1 e8 10             	shr    eax,0x10
    249c:	89 44 24 68          	mov    DWORD PTR [rsp+0x68],eax
    24a0:	4c 89 f8             	mov    rax,r15
    24a3:	48 c1 e8 20          	shr    rax,0x20
    24a7:	48 89 84 24 f8 00 00 	mov    QWORD PTR [rsp+0xf8],rax
    24ae:	00 
    24af:	44 89 f8             	mov    eax,r15d
    24b2:	c1 e8 10             	shr    eax,0x10
    24b5:	89 44 24 6c          	mov    DWORD PTR [rsp+0x6c],eax
    24b9:	4c 89 e0             	mov    rax,r12
    24bc:	48 c1 e8 20          	shr    rax,0x20
    24c0:	48 89 84 24 d8 00 00 	mov    QWORD PTR [rsp+0xd8],rax
    24c7:	00 
    24c8:	44 89 e0             	mov    eax,r12d
    24cb:	c1 e8 10             	shr    eax,0x10
    24ce:	89 44 24 64          	mov    DWORD PTR [rsp+0x64],eax
    24d2:	4c 8b ac 24 80 00 00 	mov    r13,QWORD PTR [rsp+0x80]
    24d9:	00 
    24da:	4c 89 eb             	mov    rbx,r13
    24dd:	48 c1 eb 20          	shr    rbx,0x20
    24e1:	45 89 ee             	mov    r14d,r13d
    24e4:	41 c1 ee 10          	shr    r14d,0x10
    24e8:	4c 89 a4 24 a0 00 00 	mov    QWORD PTR [rsp+0xa0],r12
    24ef:	00 
    24f0:	49 89 ec             	mov    r12,rbp
    24f3:	49 c1 ec 20          	shr    r12,0x20
    24f7:	4c 89 bc 24 c0 00 00 	mov    QWORD PTR [rsp+0xc0],r15
    24fe:	00 
    24ff:	41 89 ef             	mov    r15d,ebp
    2502:	41 c1 ef 10          	shr    r15d,0x10
    2506:	48 8b 4c 24 38       	mov    rcx,QWORD PTR [rsp+0x38]
    250b:	48 89 c8             	mov    rax,rcx
    250e:	48 c1 e8 20          	shr    rax,0x20
    2512:	48 89 84 24 18 01 00 	mov    QWORD PTR [rsp+0x118],rax
    2519:	00 
    251a:	89 c8                	mov    eax,ecx
    251c:	c1 e8 10             	shr    eax,0x10
    251f:	89 44 24 78          	mov    DWORD PTR [rsp+0x78],eax
    2523:	4c 89 c8             	mov    rax,r9
    2526:	48 c1 e8 20          	shr    rax,0x20
    252a:	48 89 84 24 d0 00 00 	mov    QWORD PTR [rsp+0xd0],rax
    2531:	00 
    2532:	44 89 c8             	mov    eax,r9d
    2535:	c1 e8 10             	shr    eax,0x10
    2538:	89 44 24 60          	mov    DWORD PTR [rsp+0x60],eax
    253c:	48 8b 74 24 40       	mov    rsi,QWORD PTR [rsp+0x40]
    2541:	48 89 f0             	mov    rax,rsi
    2544:	48 c1 e8 20          	shr    rax,0x20
    2548:	48 89 84 24 a8 00 00 	mov    QWORD PTR [rsp+0xa8],rax
    254f:	00 
    2550:	89 f0                	mov    eax,esi
    2552:	c1 e8 10             	shr    eax,0x10
    2555:	89 44 24 54          	mov    DWORD PTR [rsp+0x54],eax
    2559:	48 8b 44 24 48       	mov    rax,QWORD PTR [rsp+0x48]
    255e:	48 89 c6             	mov    rsi,rax
    2561:	48 c1 ee 20          	shr    rsi,0x20
    2565:	48 89 b4 24 c8 00 00 	mov    QWORD PTR [rsp+0xc8],rsi
    256c:	00 
    256d:	89 c6                	mov    esi,eax
    256f:	c1 ee 10             	shr    esi,0x10
    2572:	89 74 24 58          	mov    DWORD PTR [rsp+0x58],esi
    2576:	48 89 d6             	mov    rsi,rdx
    2579:	48 89 94 24 b0 00 00 	mov    QWORD PTR [rsp+0xb0],rdx
    2580:	00 
    2581:	c1 ea 10             	shr    edx,0x10
    2584:	89 54 24 5c          	mov    DWORD PTR [rsp+0x5c],edx
    2588:	48 89 f2             	mov    rdx,rsi
    258b:	48 c1 ea 20          	shr    rdx,0x20
    258f:	48 89 94 24 b8 00 00 	mov    QWORD PTR [rsp+0xb8],rdx
    2596:	00 
    2597:	8c ca                	mov    edx,cs
    2599:	66 89 54 24 0e       	mov    WORD PTR [rsp+0xe],dx
    259e:	48 c7 05 fd 3b 00 00 	mov    QWORD PTR [rip+0x3bfd],0x0        # 0x61a6
    25a5:	00 00 00 00 
    25a9:	66 c7 05 fc 3b 00 00 	mov    WORD PTR [rip+0x3bfc],0x0        # 0x61ae
    25b0:	00 00 
    25b2:	48 c7 05 09 3c 00 00 	mov    QWORD PTR [rip+0x3c09],0x0        # 0x61c6
    25b9:	00 00 00 00 
    25bd:	66 c7 05 08 3c 00 00 	mov    WORD PTR [rip+0x3c08],0x0        # 0x61ce
    25c4:	00 00 
    25c6:	48 c7 05 15 3c 00 00 	mov    QWORD PTR [rip+0x3c15],0x0        # 0x61e6
    25cd:	00 00 00 00 
    25d1:	48 c7 05 10 3c 00 00 	mov    QWORD PTR [rip+0x3c10],0x0        # 0x61ec
    25d8:	00 00 00 00 
    25dc:	48 c7 05 0f 3c 00 00 	mov    QWORD PTR [rip+0x3c0f],0x0        # 0x61f6
    25e3:	00 00 00 00 
    25e7:	66 c7 05 0e 3c 00 00 	mov    WORD PTR [rip+0x3c0e],0x0        # 0x61fe
    25ee:	00 00 
    25f0:	48 c7 05 2b 3c 00 00 	mov    QWORD PTR [rip+0x3c2b],0x0        # 0x6226
    25f7:	00 00 00 00 
    25fb:	48 c7 05 26 3c 00 00 	mov    QWORD PTR [rip+0x3c26],0x0        # 0x622c
    2602:	00 00 00 00 
    2606:	48 c7 05 25 3c 00 00 	mov    QWORD PTR [rip+0x3c25],0x0        # 0x6236
    260d:	00 00 00 00 
    2611:	66 c7 05 24 3c 00 00 	mov    WORD PTR [rip+0x3c24],0x0        # 0x623e
    2618:	00 00 
    261a:	48 c7 05 31 3c 00 00 	mov    QWORD PTR [rip+0x3c31],0x0        # 0x6256
    2621:	00 00 00 00 
    2625:	48 c7 05 2c 3c 00 00 	mov    QWORD PTR [rip+0x3c2c],0x0        # 0x625c
    262c:	00 00 00 00 
    2630:	48 c7 05 31 3c 00 00 	mov    QWORD PTR [rip+0x3c31],0x0        # 0x626c
    2637:	00 00 00 00 
    263b:	48 c7 05 20 3c 00 00 	mov    QWORD PTR [rip+0x3c20],0x0        # 0x6266
    2642:	00 00 00 00 
    2646:	66 c7 05 2f 3c 00 00 	mov    WORD PTR [rip+0x3c2f],0x0        # 0x627e
    264d:	00 00 
    264f:	48 c7 05 1c 3c 00 00 	mov    QWORD PTR [rip+0x3c1c],0x0        # 0x6276
    2656:	00 00 00 00 
    265a:	48 c7 05 37 3c 00 00 	mov    QWORD PTR [rip+0x3c37],0x0        # 0x629c
    2661:	00 00 00 00 
    2665:	48 c7 05 26 3c 00 00 	mov    QWORD PTR [rip+0x3c26],0x0        # 0x6296
    266c:	00 00 00 00 
    2670:	48 c7 05 31 3c 00 00 	mov    QWORD PTR [rip+0x3c31],0x0        # 0x62ac
    2677:	00 00 00 00 
    267b:	48 c7 05 20 3c 00 00 	mov    QWORD PTR [rip+0x3c20],0x0        # 0x62a6
    2682:	00 00 00 00 
    2686:	48 c7 05 2b 3c 00 00 	mov    QWORD PTR [rip+0x3c2b],0x0        # 0x62bc
    268d:	00 00 00 00 
    2691:	48 c7 05 1a 3c 00 00 	mov    QWORD PTR [rip+0x3c1a],0x0        # 0x62b6
    2698:	00 00 00 00 
    269c:	48 c7 05 25 3c 00 00 	mov    QWORD PTR [rip+0x3c25],0x0        # 0x62cc
    26a3:	00 00 00 00 
    26a7:	48 c7 05 14 3c 00 00 	mov    QWORD PTR [rip+0x3c14],0x0        # 0x62c6
    26ae:	00 00 00 00 
    26b2:	48 c7 05 1f 3c 00 00 	mov    QWORD PTR [rip+0x3c1f],0x0        # 0x62dc
    26b9:	00 00 00 00 
    26bd:	48 c7 05 0e 3c 00 00 	mov    QWORD PTR [rip+0x3c0e],0x0        # 0x62d6
    26c4:	00 00 00 00 
    26c8:	48 c7 05 19 3c 00 00 	mov    QWORD PTR [rip+0x3c19],0x0        # 0x62ec
    26cf:	00 00 00 00 
    26d3:	48 c7 05 08 3c 00 00 	mov    QWORD PTR [rip+0x3c08],0x0        # 0x62e6
    26da:	00 00 00 00 
    26de:	48 c7 05 13 3c 00 00 	mov    QWORD PTR [rip+0x3c13],0x0        # 0x62fc
    26e5:	00 00 00 00 
    26e9:	48 c7 05 02 3c 00 00 	mov    QWORD PTR [rip+0x3c02],0x0        # 0x62f6
    26f0:	00 00 00 00 
    26f4:	48 c7 05 0d 3c 00 00 	mov    QWORD PTR [rip+0x3c0d],0x0        # 0x630c
    26fb:	00 00 00 00 
    26ff:	48 c7 05 fc 3b 00 00 	mov    QWORD PTR [rip+0x3bfc],0x0        # 0x6306
    2706:	00 00 00 00 
    270a:	48 c7 05 07 3c 00 00 	mov    QWORD PTR [rip+0x3c07],0x0        # 0x631c
    2711:	00 00 00 00 
    2715:	48 c7 05 f6 3b 00 00 	mov    QWORD PTR [rip+0x3bf6],0x0        # 0x6316
    271c:	00 00 00 00 
    2720:	48 8d bc 24 30 01 00 	lea    rdi,[rsp+0x130]
    2727:	00 
    2728:	48 8d b4 24 30 0f 00 	lea    rsi,[rsp+0xf30]
    272f:	00 
    2730:	ba 00 0e 00 00       	mov    edx,0xe00
    2735:	4c 89 8c 24 98 00 00 	mov    QWORD PTR [rsp+0x98],r9
    273c:	00 
    273d:	e8 be 39 00 00       	call   0x6100
    2742:	c6 05 d7 39 00 00 01 	mov    BYTE PTR [rip+0x39d7],0x1        # 0x6120
    2749:	66 44 89 2d df 39 00 	mov    WORD PTR [rip+0x39df],r13w        # 0x6130
    2750:	00 
    2751:	0f b7 44 24 26       	movzx  eax,WORD PTR [rsp+0x26]
    2756:	66 89 05 d5 39 00 00 	mov    WORD PTR [rip+0x39d5],ax        # 0x6132
    275d:	66 c7 05 ce 39 00 00 	mov    WORD PTR [rip+0x39ce],0x8e00        # 0x6134
    2764:	00 8e 
    2766:	66 44 89 35 c8 39 00 	mov    WORD PTR [rip+0x39c8],r14w        # 0x6136
    276d:	00 
    276e:	89 1d c4 39 00 00    	mov    DWORD PTR [rip+0x39c4],ebx        # 0x6138
    2774:	c7 05 be 39 00 00 00 	mov    DWORD PTR [rip+0x39be],0x0        # 0x613c
    277b:	00 00 00 
    277e:	66 89 2d bb 39 00 00 	mov    WORD PTR [rip+0x39bb],bp        # 0x6140
    2785:	0f b7 44 24 12       	movzx  eax,WORD PTR [rsp+0x12]
    278a:	66 89 05 b1 39 00 00 	mov    WORD PTR [rip+0x39b1],ax        # 0x6142
    2791:	66 c7 05 aa 39 00 00 	mov    WORD PTR [rip+0x39aa],0x8e00        # 0x6144
    2798:	00 8e 
    279a:	66 44 89 3d a4 39 00 	mov    WORD PTR [rip+0x39a4],r15w        # 0x6146
    27a1:	00 
    27a2:	44 89 25 9f 39 00 00 	mov    DWORD PTR [rip+0x399f],r12d        # 0x6148
    27a9:	c7 05 99 39 00 00 00 	mov    DWORD PTR [rip+0x3999],0x0        # 0x614c
    27b0:	00 00 00 
    27b3:	48 8b 84 24 e8 00 00 	mov    rax,QWORD PTR [rsp+0xe8]
    27ba:	00 
    27bb:	66 89 05 8e 39 00 00 	mov    WORD PTR [rip+0x398e],ax        # 0x6150
    27c2:	0f b7 44 24 1a       	movzx  eax,WORD PTR [rsp+0x1a]
    27c7:	66 89 05 84 39 00 00 	mov    WORD PTR [rip+0x3984],ax        # 0x6152
    27ce:	66 c7 05 7d 39 00 00 	mov    WORD PTR [rip+0x397d],0x8e00        # 0x6154
    27d5:	00 8e 
    27d7:	8b 44 24 70          	mov    eax,DWORD PTR [rsp+0x70]
    27db:	66 89 05 74 39 00 00 	mov    WORD PTR [rip+0x3974],ax        # 0x6156
    27e2:	48 8b 84 24 00 01 00 	mov    rax,QWORD PTR [rsp+0x100]
    27e9:	00 
    27ea:	89 05 68 39 00 00    	mov    DWORD PTR [rip+0x3968],eax        # 0x6158
    27f0:	c7 05 62 39 00 00 00 	mov    DWORD PTR [rip+0x3962],0x0        # 0x615c
    27f7:	00 00 00 
    27fa:	48 8b 84 24 a0 00 00 	mov    rax,QWORD PTR [rsp+0xa0]
    2801:	00 
    2802:	66 89 05 57 39 00 00 	mov    WORD PTR [rip+0x3957],ax        # 0x6160
    2809:	0f b7 44 24 22       	movzx  eax,WORD PTR [rsp+0x22]
    280e:	66 89 05 4d 39 00 00 	mov    WORD PTR [rip+0x394d],ax        # 0x6162
    2815:	66 c7 05 46 39 00 00 	mov    WORD PTR [rip+0x3946],0x8e00        # 0x6164
    281c:	00 8e 
    281e:	8b 44 24 64          	mov    eax,DWORD PTR [rsp+0x64]
    2822:	66 89 05 3d 39 00 00 	mov    WORD PTR [rip+0x393d],ax        # 0x6166
    2829:	48 8b 84 24 d8 00 00 	mov    rax,QWORD PTR [rsp+0xd8]
    2830:	00 
    2831:	89 05 31 39 00 00    	mov    DWORD PTR [rip+0x3931],eax        # 0x6168
    2837:	c7 05 2b 39 00 00 00 	mov    DWORD PTR [rip+0x392b],0x0        # 0x616c
    283e:	00 00 00 
    2841:	48 8b 84 24 e0 00 00 	mov    rax,QWORD PTR [rsp+0xe0]
    2848:	00 
    2849:	66 89 05 20 39 00 00 	mov    WORD PTR [rip+0x3920],ax        # 0x6170
    2850:	0f b7 44 24 1e       	movzx  eax,WORD PTR [rsp+0x1e]
    2855:	66 89 05 16 39 00 00 	mov    WORD PTR [rip+0x3916],ax        # 0x6172
    285c:	66 c7 05 0f 39 00 00 	mov    WORD PTR [rip+0x390f],0x8e00        # 0x6174
    2863:	00 8e 
    2865:	8b 44 24 68          	mov    eax,DWORD PTR [rsp+0x68]
    2869:	66 89 05 06 39 00 00 	mov    WORD PTR [rip+0x3906],ax        # 0x6176
    2870:	48 8b 84 24 f0 00 00 	mov    rax,QWORD PTR [rsp+0xf0]
    2877:	00 
    2878:	89 05 fa 38 00 00    	mov    DWORD PTR [rip+0x38fa],eax        # 0x6178
    287e:	c7 05 f4 38 00 00 00 	mov    DWORD PTR [rip+0x38f4],0x0        # 0x617c
    2885:	00 00 00 
    2888:	48 8b 84 24 08 01 00 	mov    rax,QWORD PTR [rsp+0x108]
    288f:	00 
    2890:	66 89 05 e9 38 00 00 	mov    WORD PTR [rip+0x38e9],ax        # 0x6180
    2897:	0f b7 44 24 1c       	movzx  eax,WORD PTR [rsp+0x1c]
    289c:	66 89 05 df 38 00 00 	mov    WORD PTR [rip+0x38df],ax        # 0x6182
    28a3:	66 c7 05 d8 38 00 00 	mov    WORD PTR [rip+0x38d8],0x8e00        # 0x6184
    28aa:	00 8e 
    28ac:	8b 44 24 74          	mov    eax,DWORD PTR [rsp+0x74]
    28b0:	66 89 05 cf 38 00 00 	mov    WORD PTR [rip+0x38cf],ax        # 0x6186
    28b7:	48 8b 84 24 10 01 00 	mov    rax,QWORD PTR [rsp+0x110]
    28be:	00 
    28bf:	89 05 c3 38 00 00    	mov    DWORD PTR [rip+0x38c3],eax        # 0x6188
    28c5:	c7 05 bd 38 00 00 00 	mov    DWORD PTR [rip+0x38bd],0x0        # 0x618c
    28cc:	00 00 00 
    28cf:	48 8b 84 24 c0 00 00 	mov    rax,QWORD PTR [rsp+0xc0]
    28d6:	00 
    28d7:	66 89 05 b2 38 00 00 	mov    WORD PTR [rip+0x38b2],ax        # 0x6190
    28de:	0f b7 44 24 20       	movzx  eax,WORD PTR [rsp+0x20]
    28e3:	66 89 05 a8 38 00 00 	mov    WORD PTR [rip+0x38a8],ax        # 0x6192
    28ea:	66 c7 05 a1 38 00 00 	mov    WORD PTR [rip+0x38a1],0x8e00        # 0x6194
    28f1:	00 8e 
    28f3:	8b 44 24 6c          	mov    eax,DWORD PTR [rsp+0x6c]
    28f7:	66 89 05 98 38 00 00 	mov    WORD PTR [rip+0x3898],ax        # 0x6196
    28fe:	48 8b 84 24 f8 00 00 	mov    rax,QWORD PTR [rsp+0xf8]
    2905:	00 
    2906:	89 05 8c 38 00 00    	mov    DWORD PTR [rip+0x388c],eax        # 0x6198
    290c:	48 c7 05 85 38 00 00 	mov    QWORD PTR [rip+0x3885],0x0        # 0x619c
    2913:	00 00 00 00 
    2917:	66 c7 05 84 38 00 00 	mov    WORD PTR [rip+0x3884],0xe00        # 0x61a4
    291e:	00 0e 
    2920:	48 8b 44 24 40       	mov    rax,QWORD PTR [rsp+0x40]
    2925:	66 89 05 84 38 00 00 	mov    WORD PTR [rip+0x3884],ax        # 0x61b0
    292c:	0f b7 44 24 18       	movzx  eax,WORD PTR [rsp+0x18]
    2931:	66 89 05 7a 38 00 00 	mov    WORD PTR [rip+0x387a],ax        # 0x61b2
    2938:	66 c7 05 73 38 00 00 	mov    WORD PTR [rip+0x3873],0x8e00        # 0x61b4
    293f:	00 8e 
    2941:	8b 44 24 54          	mov    eax,DWORD PTR [rsp+0x54]
    2945:	66 89 05 6a 38 00 00 	mov    WORD PTR [rip+0x386a],ax        # 0x61b6
    294c:	48 8b 84 24 a8 00 00 	mov    rax,QWORD PTR [rsp+0xa8]
    2953:	00 
    2954:	89 05 5e 38 00 00    	mov    DWORD PTR [rip+0x385e],eax        # 0x61b8
    295a:	48 c7 05 57 38 00 00 	mov    QWORD PTR [rip+0x3857],0x0        # 0x61bc
    2961:	00 00 00 00 
    2965:	66 c7 05 56 38 00 00 	mov    WORD PTR [rip+0x3856],0xe00        # 0x61c4
    296c:	00 0e 
    296e:	48 8b 84 24 98 00 00 	mov    rax,QWORD PTR [rsp+0x98]
    2975:	00 
    2976:	66 89 05 53 38 00 00 	mov    WORD PTR [rip+0x3853],ax        # 0x61d0
    297d:	0f b7 44 24 16       	movzx  eax,WORD PTR [rsp+0x16]
    2982:	66 89 05 49 38 00 00 	mov    WORD PTR [rip+0x3849],ax        # 0x61d2
    2989:	66 c7 05 42 38 00 00 	mov    WORD PTR [rip+0x3842],0x8e00        # 0x61d4
    2990:	00 8e 
    2992:	8b 44 24 60          	mov    eax,DWORD PTR [rsp+0x60]
    2996:	66 89 05 39 38 00 00 	mov    WORD PTR [rip+0x3839],ax        # 0x61d6
    299d:	48 8b 84 24 d0 00 00 	mov    rax,QWORD PTR [rsp+0xd0]
    29a4:	00 
    29a5:	89 05 2d 38 00 00    	mov    DWORD PTR [rip+0x382d],eax        # 0x61d8
    29ab:	48 c7 05 26 38 00 00 	mov    QWORD PTR [rip+0x3826],0x0        # 0x61dc
    29b2:	00 00 00 00 
    29b6:	66 c7 05 25 38 00 00 	mov    WORD PTR [rip+0x3825],0xe00        # 0x61e4
    29bd:	00 0e 
    29bf:	66 c7 05 2c 38 00 00 	mov    WORD PTR [rip+0x382c],0xe00        # 0x61f4
    29c6:	00 0e 
    29c8:	48 8b 84 24 20 01 00 	mov    rax,QWORD PTR [rsp+0x120]
    29cf:	00 
    29d0:	66 89 05 29 38 00 00 	mov    WORD PTR [rip+0x3829],ax        # 0x6200
    29d7:	0f b7 44 24 10       	movzx  eax,WORD PTR [rsp+0x10]
    29dc:	66 89 05 1f 38 00 00 	mov    WORD PTR [rip+0x381f],ax        # 0x6202
    29e3:	66 c7 05 18 38 00 00 	mov    WORD PTR [rip+0x3818],0x8e00        # 0x6204
    29ea:	00 8e 
    29ec:	8b 44 24 7c          	mov    eax,DWORD PTR [rsp+0x7c]
    29f0:	66 89 05 0f 38 00 00 	mov    WORD PTR [rip+0x380f],ax        # 0x6206
    29f7:	48 8b 84 24 28 01 00 	mov    rax,QWORD PTR [rsp+0x128]
    29fe:	00 
    29ff:	89 05 03 38 00 00    	mov    DWORD PTR [rip+0x3803],eax        # 0x6208
    2a05:	c7 05 fd 37 00 00 00 	mov    DWORD PTR [rip+0x37fd],0x0        # 0x620c
    2a0c:	00 00 00 
    2a0f:	48 8b 44 24 48       	mov    rax,QWORD PTR [rsp+0x48]
    2a14:	66 89 05 f5 37 00 00 	mov    WORD PTR [rip+0x37f5],ax        # 0x6210
    2a1b:	0f b7 44 24 24       	movzx  eax,WORD PTR [rsp+0x24]
    2a20:	66 89 05 eb 37 00 00 	mov    WORD PTR [rip+0x37eb],ax        # 0x6212
    2a27:	66 c7 05 e4 37 00 00 	mov    WORD PTR [rip+0x37e4],0x8e00        # 0x6214
    2a2e:	00 8e 
    2a30:	8b 44 24 58          	mov    eax,DWORD PTR [rsp+0x58]
    2a34:	66 89 05 db 37 00 00 	mov    WORD PTR [rip+0x37db],ax        # 0x6216
    2a3b:	48 8b 84 24 c8 00 00 	mov    rax,QWORD PTR [rsp+0xc8]
    2a42:	00 
    2a43:	89 05 cf 37 00 00    	mov    DWORD PTR [rip+0x37cf],eax        # 0x6218
    2a49:	48 c7 05 c8 37 00 00 	mov    QWORD PTR [rip+0x37c8],0x0        # 0x621c
    2a50:	00 00 00 00 
    2a54:	66 c7 05 c7 37 00 00 	mov    WORD PTR [rip+0x37c7],0xe00        # 0x6224
    2a5b:	00 0e 
    2a5d:	66 c7 05 ce 37 00 00 	mov    WORD PTR [rip+0x37ce],0xe00        # 0x6234
    2a64:	00 0e 
    2a66:	48 8b 84 24 b0 00 00 	mov    rax,QWORD PTR [rsp+0xb0]
    2a6d:	00 
    2a6e:	66 89 05 cb 37 00 00 	mov    WORD PTR [rip+0x37cb],ax        # 0x6240
    2a75:	0f b7 44 24 0e       	movzx  eax,WORD PTR [rsp+0xe]
    2a7a:	66 89 05 c1 37 00 00 	mov    WORD PTR [rip+0x37c1],ax        # 0x6242
    2a81:	66 c7 05 ba 37 00 00 	mov    WORD PTR [rip+0x37ba],0x8e00        # 0x6244
    2a88:	00 8e 
    2a8a:	8b 44 24 5c          	mov    eax,DWORD PTR [rsp+0x5c]
    2a8e:	66 89 05 b1 37 00 00 	mov    WORD PTR [rip+0x37b1],ax        # 0x6246
    2a95:	48 8b 84 24 b8 00 00 	mov    rax,QWORD PTR [rsp+0xb8]
    2a9c:	00 
    2a9d:	89 05 a5 37 00 00    	mov    DWORD PTR [rip+0x37a5],eax        # 0x6248
    2aa3:	48 c7 05 9e 37 00 00 	mov    QWORD PTR [rip+0x379e],0x0        # 0x624c
    2aaa:	00 00 00 00 
    2aae:	66 c7 05 9d 37 00 00 	mov    WORD PTR [rip+0x379d],0xe00        # 0x6254
    2ab5:	00 0e 
    2ab7:	66 c7 05 a4 37 00 00 	mov    WORD PTR [rip+0x37a4],0xe00        # 0x6264
    2abe:	00 0e 
    2ac0:	66 c7 05 ab 37 00 00 	mov    WORD PTR [rip+0x37ab],0xe00        # 0x6274
    2ac7:	00 0e 
    2ac9:	48 8b 44 24 38       	mov    rax,QWORD PTR [rsp+0x38]
    2ace:	66 89 05 ab 37 00 00 	mov    WORD PTR [rip+0x37ab],ax        # 0x6280
    2ad5:	0f b7 44 24 14       	movzx  eax,WORD PTR [rsp+0x14]
    2ada:	66 89 05 a1 37 00 00 	mov    WORD PTR [rip+0x37a1],ax        # 0x6282
    2ae1:	66 c7 05 9a 37 00 00 	mov    WORD PTR [rip+0x379a],0x8e00        # 0x6284
    2ae8:	00 8e 
    2aea:	8b 44 24 78          	mov    eax,DWORD PTR [rsp+0x78]
    2aee:	66 89 05 91 37 00 00 	mov    WORD PTR [rip+0x3791],ax        # 0x6286
    2af5:	48 8b 84 24 18 01 00 	mov    rax,QWORD PTR [rsp+0x118]
    2afc:	00 
    2afd:	89 05 85 37 00 00    	mov    DWORD PTR [rip+0x3785],eax        # 0x6288
    2b03:	48 c7 05 7e 37 00 00 	mov    QWORD PTR [rip+0x377e],0x0        # 0x628c
    2b0a:	00 00 00 00 
    2b0e:	66 c7 05 7d 37 00 00 	mov    WORD PTR [rip+0x377d],0xe00        # 0x6294
    2b15:	00 0e 
    2b17:	66 c7 05 84 37 00 00 	mov    WORD PTR [rip+0x3784],0xe00        # 0x62a4
    2b1e:	00 0e 
    2b20:	66 c7 05 8b 37 00 00 	mov    WORD PTR [rip+0x378b],0xe00        # 0x62b4
    2b27:	00 0e 
    2b29:	66 c7 05 92 37 00 00 	mov    WORD PTR [rip+0x3792],0xe00        # 0x62c4
    2b30:	00 0e 
    2b32:	66 c7 05 99 37 00 00 	mov    WORD PTR [rip+0x3799],0xe00        # 0x62d4
    2b39:	00 0e 
    2b3b:	66 c7 05 a0 37 00 00 	mov    WORD PTR [rip+0x37a0],0xe00        # 0x62e4
    2b42:	00 0e 
    2b44:	66 c7 05 a7 37 00 00 	mov    WORD PTR [rip+0x37a7],0xe00        # 0x62f4
    2b4b:	00 0e 
    2b4d:	66 c7 05 ae 37 00 00 	mov    WORD PTR [rip+0x37ae],0xe00        # 0x6304
    2b54:	00 0e 
    2b56:	66 c7 05 b5 37 00 00 	mov    WORD PTR [rip+0x37b5],0xe00        # 0x6314
    2b5d:	00 0e 
    2b5f:	c7 05 bb 37 00 00 00 	mov    DWORD PTR [rip+0x37bb],0xe00        # 0x6324
    2b66:	0e 00 00 
    2b69:	48 c7 05 b4 37 00 00 	mov    QWORD PTR [rip+0x37b4],0x0        # 0x6328
    2b70:	00 00 00 00 
    2b74:	ba 00 0e 00 00       	mov    edx,0xe00
    2b79:	48 c7 c7 30 63 00 00 	mov    rdi,0x6330
    2b80:	48 8d b4 24 30 01 00 	lea    rsi,[rsp+0x130]
    2b87:	00 
    2b88:	e8 73 35 00 00       	call   0x6100
    2b8d:	b8 02 00 00 00       	mov    eax,0x2
    2b92:	48 87 05 97 45 00 00 	xchg   QWORD PTR [rip+0x4597],rax        # 0x7130
    2b99:	4c 8d 74 24 28       	lea    r14,[rsp+0x28]
    2b9e:	48 8d 9c 24 30 01 00 	lea    rbx,[rsp+0x130]
    2ba5:	00 
    2ba6:	eb 21                	jmp    0x2bc9
    2ba8:	0f 1f 84 00 00 00 00 	nop    DWORD PTR [rax+rax*1+0x0]
    2baf:	00 
    2bb0:	f3 90                	pause
    2bb2:	48 8b 05 77 45 00 00 	mov    rax,QWORD PTR [rip+0x4577]        # 0x7130
    2bb9:	48 83 f8 01          	cmp    rax,0x1
    2bbd:	74 f1                	je     0x2bb0
    2bbf:	48 83 f8 02          	cmp    rax,0x2
    2bc3:	0f 85 13 07 00 00    	jne    0x32dc
    2bc9:	48 c7 c0 30 61 00 00 	mov    rax,0x6130
    2bd0:	48 c7 c1 30 61 00 00 	mov    rcx,0x6130
    2bd7:	48 c1 e9 2f          	shr    rcx,0x2f
    2bdb:	74 24                	je     0x2c01
    2bdd:	48 c7 c1 30 61 00 00 	mov    rcx,0x6130
    2be4:	48 c1 e9 2f          	shr    rcx,0x2f
    2be8:	81 f9 ff ff 01 00    	cmp    ecx,0x1ffff
    2bee:	74 11                	je     0x2c01
    2bf0:	83 f9 01             	cmp    ecx,0x1
    2bf3:	0f 85 2a 07 00 00    	jne    0x3323
    2bf9:	48 c1 e0 10          	shl    rax,0x10
    2bfd:	48 c1 f8 10          	sar    rax,0x10
    2c01:	66 c7 84 24 30 01 00 	mov    WORD PTR [rsp+0x130],0xfff
    2c08:	00 ff 0f 
    2c0b:	48 89 84 24 32 01 00 	mov    QWORD PTR [rsp+0x132],rax
    2c12:	00 
    2c13:	0f 01 1b             	lidt   [rbx]
    2c16:	fb                   	sti
    2c17:	48 c7 c1 dd 76 00 00 	mov    rcx,0x76dd
    2c1e:	48 c7 c6 fa 76 00 00 	mov    rsi,0x76fa
    2c25:	eb 16                	jmp    0x2c3d
    2c27:	66 0f 1f 84 00 00 00 	nop    WORD PTR [rax+rax*1+0x0]
    2c2e:	00 00 
    2c30:	48 ff c1             	inc    rcx
    2c33:	66 ba 00 10          	mov    dx,0x1000
    2c37:	ee                   	out    dx,al
    2c38:	48 39 f1             	cmp    rcx,rsi
    2c3b:	74 67                	je     0x2ca4
    2c3d:	0f b6 01             	movzx  eax,BYTE PTR [rcx]
    2c40:	84 c0                	test   al,al
    2c42:	79 ec                	jns    0x2c30
    2c44:	89 c2                	mov    edx,eax
    2c46:	83 e2 1f             	and    edx,0x1f
    2c49:	44 0f b6 41 01       	movzx  r8d,BYTE PTR [rcx+0x1]
    2c4e:	41 83 e0 3f          	and    r8d,0x3f
    2c52:	3c df                	cmp    al,0xdf
    2c54:	76 33                	jbe    0x2c89
    2c56:	0f b6 79 02          	movzx  edi,BYTE PTR [rcx+0x2]
    2c5a:	41 c1 e0 06          	shl    r8d,0x6
    2c5e:	83 e7 3f             	and    edi,0x3f
    2c61:	44 09 c7             	or     edi,r8d
    2c64:	3c f0                	cmp    al,0xf0
    2c66:	72 2f                	jb     0x2c97
    2c68:	0f b6 41 03          	movzx  eax,BYTE PTR [rcx+0x3]
    2c6c:	83 e2 07             	and    edx,0x7
    2c6f:	c1 e2 12             	shl    edx,0x12
    2c72:	c1 e7 06             	shl    edi,0x6
    2c75:	83 e0 3f             	and    eax,0x3f
    2c78:	09 f8                	or     eax,edi
    2c7a:	09 d0                	or     eax,edx
    2c7c:	3d 00 00 11 00       	cmp    eax,0x110000
    2c81:	74 21                	je     0x2ca4
    2c83:	48 83 c1 04          	add    rcx,0x4
    2c87:	eb aa                	jmp    0x2c33
    2c89:	48 83 c1 02          	add    rcx,0x2
    2c8d:	c1 e2 06             	shl    edx,0x6
    2c90:	44 09 c2             	or     edx,r8d
    2c93:	89 d0                	mov    eax,edx
    2c95:	eb 9c                	jmp    0x2c33
    2c97:	48 83 c1 03          	add    rcx,0x3
    2c9b:	c1 e2 0c             	shl    edx,0xc
    2c9e:	09 d7                	or     edi,edx
    2ca0:	89 f8                	mov    eax,edi
    2ca2:	eb 8f                	jmp    0x2c33
    2ca4:	48 c7 84 24 30 01 00 	mov    QWORD PTR [rsp+0x130],0x7710
    2cab:	00 10 77 00 00 
    2cb0:	48 c7 84 24 38 01 00 	mov    QWORD PTR [rsp+0x138],0x1
    2cb7:	00 01 00 00 00 
    2cbc:	48 c7 84 24 50 01 00 	mov    QWORD PTR [rsp+0x150],0x0
    2cc3:	00 00 00 00 00 
    2cc8:	48 8d 44 24 08       	lea    rax,[rsp+0x8]
    2ccd:	48 89 84 24 40 01 00 	mov    QWORD PTR [rsp+0x140],rax
    2cd4:	00 
    2cd5:	48 c7 84 24 48 01 00 	mov    QWORD PTR [rsp+0x148],0x0
    2cdc:	00 00 00 00 00 
    2ce1:	48 8d 9c 24 30 01 00 	lea    rbx,[rsp+0x130]
    2ce8:	00 
    2ce9:	48 89 df             	mov    rdi,rbx
    2cec:	e8 8f ed ff ff       	call   0x1a80
    2cf1:	9c                   	pushf
    2cf2:	58                   	pop    rax
    2cf3:	a9 00 02 00 00       	test   eax,0x200
    2cf8:	0f 85 46 05 00 00    	jne    0x3244
    2cfe:	48 c7 c1 20 77 00 00 	mov    rcx,0x7720
    2d05:	48 c7 c6 3c 77 00 00 	mov    rsi,0x773c
    2d0c:	eb 0f                	jmp    0x2d1d
    2d0e:	66 90                	xchg   ax,ax
    2d10:	48 ff c1             	inc    rcx
    2d13:	66 ba 00 10          	mov    dx,0x1000
    2d17:	ee                   	out    dx,al
    2d18:	48 39 f1             	cmp    rcx,rsi
    2d1b:	74 67                	je     0x2d84
    2d1d:	0f b6 01             	movzx  eax,BYTE PTR [rcx]
    2d20:	84 c0                	test   al,al
    2d22:	79 ec                	jns    0x2d10
    2d24:	89 c2                	mov    edx,eax
    2d26:	83 e2 1f             	and    edx,0x1f
    2d29:	44 0f b6 41 01       	movzx  r8d,BYTE PTR [rcx+0x1]
    2d2e:	41 83 e0 3f          	and    r8d,0x3f
    2d32:	3c df                	cmp    al,0xdf
    2d34:	76 33                	jbe    0x2d69
    2d36:	0f b6 79 02          	movzx  edi,BYTE PTR [rcx+0x2]
    2d3a:	41 c1 e0 06          	shl    r8d,0x6
    2d3e:	83 e7 3f             	and    edi,0x3f
    2d41:	44 09 c7             	or     edi,r8d
    2d44:	3c f0                	cmp    al,0xf0
    2d46:	72 2f                	jb     0x2d77
    2d48:	0f b6 41 03          	movzx  eax,BYTE PTR [rcx+0x3]
    2d4c:	83 e2 07             	and    edx,0x7
    2d4f:	c1 e2 12             	shl    edx,0x12
    2d52:	c1 e7 06             	shl    edi,0x6
    2d55:	83 e0 3f             	and    eax,0x3f
    2d58:	09 f8                	or     eax,edi
    2d5a:	09 d0                	or     eax,edx
    2d5c:	3d 00 00 11 00       	cmp    eax,0x110000
    2d61:	74 21                	je     0x2d84
    2d63:	48 83 c1 04          	add    rcx,0x4
    2d67:	eb aa                	jmp    0x2d13
    2d69:	48 83 c1 02          	add    rcx,0x2
    2d6d:	c1 e2 06             	shl    edx,0x6
    2d70:	44 09 c2             	or     edx,r8d
    2d73:	89 d0                	mov    eax,edx
    2d75:	eb 9c                	jmp    0x2d13
    2d77:	48 83 c1 03          	add    rcx,0x3
    2d7b:	c1 e2 0c             	shl    edx,0xc
    2d7e:	09 d7                	or     edi,edx
    2d80:	89 f8                	mov    eax,edi
    2d82:	eb 8f                	jmp    0x2d13
    2d84:	66 ba 00 10          	mov    dx,0x1000
    2d88:	b0 48                	mov    al,0x48
    2d8a:	ee                   	out    dx,al
    2d8b:	b0 65                	mov    al,0x65
    2d8d:	ee                   	out    dx,al
    2d8e:	b0 6c                	mov    al,0x6c
    2d90:	ee                   	out    dx,al
    2d91:	ee                   	out    dx,al
    2d92:	b0 6f                	mov    al,0x6f
    2d94:	ee                   	out    dx,al
    2d95:	b0 20                	mov    al,0x20
    2d97:	ee                   	out    dx,al
    2d98:	b0 77                	mov    al,0x77
    2d9a:	ee                   	out    dx,al
    2d9b:	b0 6f                	mov    al,0x6f
    2d9d:	ee                   	out    dx,al
    2d9e:	b0 72                	mov    al,0x72
    2da0:	ee                   	out    dx,al
    2da1:	b0 6c                	mov    al,0x6c
    2da3:	ee                   	out    dx,al
    2da4:	b0 64                	mov    al,0x64
    2da6:	ee                   	out    dx,al
    2da7:	b0 20                	mov    al,0x20
    2da9:	ee                   	out    dx,al
    2daa:	b0 70                	mov    al,0x70
    2dac:	ee                   	out    dx,al
    2dad:	b0 6f                	mov    al,0x6f
    2daf:	ee                   	out    dx,al
    2db0:	b0 72                	mov    al,0x72
    2db2:	ee                   	out    dx,al
    2db3:	b0 74                	mov    al,0x74
    2db5:	ee                   	out    dx,al
    2db6:	b0 2c                	mov    al,0x2c
    2db8:	ee                   	out    dx,al
    2db9:	b0 20                	mov    al,0x20
    2dbb:	ee                   	out    dx,al
    2dbc:	b0 66                	mov    al,0x66
    2dbe:	ee                   	out    dx,al
    2dbf:	b0 72                	mov    al,0x72
    2dc1:	ee                   	out    dx,al
    2dc2:	b0 6f                	mov    al,0x6f
    2dc4:	ee                   	out    dx,al
    2dc5:	b0 6d                	mov    al,0x6d
    2dc7:	ee                   	out    dx,al
    2dc8:	b0 20                	mov    al,0x20
    2dca:	ee                   	out    dx,al
    2dcb:	b0 74                	mov    al,0x74
    2dcd:	ee                   	out    dx,al
    2dce:	b0 65                	mov    al,0x65
    2dd0:	ee                   	out    dx,al
    2dd1:	b0 73                	mov    al,0x73
    2dd3:	ee                   	out    dx,al
    2dd4:	b0 74                	mov    al,0x74
    2dd6:	ee                   	out    dx,al
    2dd7:	b0 69                	mov    al,0x69
    2dd9:	ee                   	out    dx,al
    2dda:	b0 6e                	mov    al,0x6e
    2ddc:	ee                   	out    dx,al
    2ddd:	b0 67                	mov    al,0x67
    2ddf:	ee                   	out    dx,al
    2de0:	b0 20                	mov    al,0x20
    2de2:	ee                   	out    dx,al
    2de3:	b0 72                	mov    al,0x72
    2de5:	ee                   	out    dx,al
    2de6:	b0 75                	mov    al,0x75
    2de8:	ee                   	out    dx,al
    2de9:	b0 73                	mov    al,0x73
    2deb:	ee                   	out    dx,al
    2dec:	b0 74                	mov    al,0x74
    2dee:	ee                   	out    dx,al
    2def:	b0 21                	mov    al,0x21
    2df1:	ee                   	out    dx,al
    2df2:	ee                   	out    dx,al
    2df3:	b0 0a                	mov    al,0xa
    2df5:	ee                   	out    dx,al
    2df6:	48 c7 c1 3c 77 00 00 	mov    rcx,0x773c
    2dfd:	48 c7 c6 5a 77 00 00 	mov    rsi,0x775a
    2e04:	eb 17                	jmp    0x2e1d
    2e06:	66 2e 0f 1f 84 00 00 	cs nop WORD PTR [rax+rax*1+0x0]
    2e0d:	00 00 00 
    2e10:	48 ff c1             	inc    rcx
    2e13:	66 ba 00 10          	mov    dx,0x1000
    2e17:	ee                   	out    dx,al
    2e18:	48 39 f1             	cmp    rcx,rsi
    2e1b:	74 67                	je     0x2e84
    2e1d:	0f b6 01             	movzx  eax,BYTE PTR [rcx]
    2e20:	84 c0                	test   al,al
    2e22:	79 ec                	jns    0x2e10
    2e24:	89 c2                	mov    edx,eax
    2e26:	83 e2 1f             	and    edx,0x1f
    2e29:	44 0f b6 41 01       	movzx  r8d,BYTE PTR [rcx+0x1]
    2e2e:	41 83 e0 3f          	and    r8d,0x3f
    2e32:	3c df                	cmp    al,0xdf
    2e34:	76 33                	jbe    0x2e69
    2e36:	0f b6 79 02          	movzx  edi,BYTE PTR [rcx+0x2]
    2e3a:	41 c1 e0 06          	shl    r8d,0x6
    2e3e:	83 e7 3f             	and    edi,0x3f
    2e41:	44 09 c7             	or     edi,r8d
    2e44:	3c f0                	cmp    al,0xf0
    2e46:	72 2f                	jb     0x2e77
    2e48:	0f b6 41 03          	movzx  eax,BYTE PTR [rcx+0x3]
    2e4c:	83 e2 07             	and    edx,0x7
    2e4f:	c1 e2 12             	shl    edx,0x12
    2e52:	c1 e7 06             	shl    edi,0x6
    2e55:	83 e0 3f             	and    eax,0x3f
    2e58:	09 f8                	or     eax,edi
    2e5a:	09 d0                	or     eax,edx
    2e5c:	3d 00 00 11 00       	cmp    eax,0x110000
    2e61:	74 21                	je     0x2e84
    2e63:	48 83 c1 04          	add    rcx,0x4
    2e67:	eb aa                	jmp    0x2e13
    2e69:	48 83 c1 02          	add    rcx,0x2
    2e6d:	c1 e2 06             	shl    edx,0x6
    2e70:	44 09 c2             	or     edx,r8d
    2e73:	89 d0                	mov    eax,edx
    2e75:	eb 9c                	jmp    0x2e13
    2e77:	48 83 c1 03          	add    rcx,0x3
    2e7b:	c1 e2 0c             	shl    edx,0xc
    2e7e:	09 d7                	or     edi,edx
    2e80:	89 f8                	mov    eax,edi
    2e82:	eb 8f                	jmp    0x2e13
    2e84:	48 c7 c1 5a 77 00 00 	mov    rcx,0x775a
    2e8b:	48 c7 c6 74 77 00 00 	mov    rsi,0x7774
    2e92:	eb 19                	jmp    0x2ead
    2e94:	66 66 66 2e 0f 1f 84 	data16 data16 cs nop WORD PTR [rax+rax*1+0x0]
    2e9b:	00 00 00 00 00 
    2ea0:	48 ff c1             	inc    rcx
    2ea3:	66 ba 00 10          	mov    dx,0x1000
    2ea7:	ee                   	out    dx,al
    2ea8:	48 39 f1             	cmp    rcx,rsi
    2eab:	74 67                	je     0x2f14
    2ead:	0f b6 01             	movzx  eax,BYTE PTR [rcx]
    2eb0:	84 c0                	test   al,al
    2eb2:	79 ec                	jns    0x2ea0
    2eb4:	89 c2                	mov    edx,eax
    2eb6:	83 e2 1f             	and    edx,0x1f
    2eb9:	44 0f b6 41 01       	movzx  r8d,BYTE PTR [rcx+0x1]
    2ebe:	41 83 e0 3f          	and    r8d,0x3f
    2ec2:	3c df                	cmp    al,0xdf
    2ec4:	76 33                	jbe    0x2ef9
    2ec6:	0f b6 79 02          	movzx  edi,BYTE PTR [rcx+0x2]
    2eca:	41 c1 e0 06          	shl    r8d,0x6
    2ece:	83 e7 3f             	and    edi,0x3f
    2ed1:	44 09 c7             	or     edi,r8d
    2ed4:	3c f0                	cmp    al,0xf0
    2ed6:	72 2f                	jb     0x2f07
    2ed8:	0f b6 41 03          	movzx  eax,BYTE PTR [rcx+0x3]
    2edc:	83 e2 07             	and    edx,0x7
    2edf:	c1 e2 12             	shl    edx,0x12
    2ee2:	c1 e7 06             	shl    edi,0x6
    2ee5:	83 e0 3f             	and    eax,0x3f
    2ee8:	09 f8                	or     eax,edi
    2eea:	09 d0                	or     eax,edx
    2eec:	3d 00 00 11 00       	cmp    eax,0x110000
    2ef1:	74 21                	je     0x2f14
    2ef3:	48 83 c1 04          	add    rcx,0x4
    2ef7:	eb aa                	jmp    0x2ea3
    2ef9:	48 83 c1 02          	add    rcx,0x2
    2efd:	c1 e2 06             	shl    edx,0x6
    2f00:	44 09 c2             	or     edx,r8d
    2f03:	89 d0                	mov    eax,edx
    2f05:	eb 9c                	jmp    0x2ea3
    2f07:	48 83 c1 03          	add    rcx,0x3
    2f0b:	c1 e2 0c             	shl    edx,0xc
    2f0e:	09 d7                	or     edi,edx
    2f10:	89 f8                	mov    eax,edi
    2f12:	eb 8f                	jmp    0x2ea3
    2f14:	66 c7 84 24 30 01 00 	mov    WORD PTR [rsp+0x130],0x0
    2f1b:	00 00 00 
    2f1e:	48 c7 84 24 32 01 00 	mov    QWORD PTR [rsp+0x132],0x0
    2f25:	00 00 00 00 00 
    2f2a:	0f 01 0b             	sidt   [rbx]
    2f2d:	0f b7 84 24 38 01 00 	movzx  eax,WORD PTR [rsp+0x138]
    2f34:	00 
    2f35:	66 89 84 24 90 00 00 	mov    WORD PTR [rsp+0x90],ax
    2f3c:	00 
    2f3d:	48 8b 84 24 30 01 00 	mov    rax,QWORD PTR [rsp+0x130]
    2f44:	00 
    2f45:	48 89 84 24 88 00 00 	mov    QWORD PTR [rsp+0x88],rax
    2f4c:	00 
    2f4d:	48 8d 84 24 88 00 00 	lea    rax,[rsp+0x88]
    2f54:	00 
    2f55:	48 89 44 24 28       	mov    QWORD PTR [rsp+0x28],rax
    2f5a:	48 c7 44 24 30 e0 16 	mov    QWORD PTR [rsp+0x30],0x16e0
    2f61:	00 00 
    2f63:	48 c7 84 24 30 01 00 	mov    QWORD PTR [rsp+0x130],0x2
    2f6a:	00 02 00 00 00 
    2f6f:	48 c7 84 24 40 01 00 	mov    QWORD PTR [rsp+0x140],0x2
    2f76:	00 02 00 00 00 
    2f7b:	48 c7 84 24 50 01 00 	mov    QWORD PTR [rsp+0x150],0x0
    2f82:	00 00 00 00 00 
    2f87:	48 b8 20 00 00 00 04 	movabs rax,0x400000020
    2f8e:	00 00 00 
    2f91:	48 89 84 24 58 01 00 	mov    QWORD PTR [rsp+0x158],rax
    2f98:	00 
    2f99:	c6 84 24 60 01 00 00 	mov    BYTE PTR [rsp+0x160],0x3
    2fa0:	03 
    2fa1:	48 c7 84 24 30 0f 00 	mov    QWORD PTR [rsp+0xf30],0x7780
    2fa8:	00 80 77 00 00 
    2fad:	48 c7 84 24 38 0f 00 	mov    QWORD PTR [rsp+0xf38],0x2
    2fb4:	00 02 00 00 00 
    2fb9:	48 89 9c 24 50 0f 00 	mov    QWORD PTR [rsp+0xf50],rbx
    2fc0:	00 
    2fc1:	48 c7 84 24 58 0f 00 	mov    QWORD PTR [rsp+0xf58],0x1
    2fc8:	00 01 00 00 00 
    2fcd:	4c 89 b4 24 40 0f 00 	mov    QWORD PTR [rsp+0xf40],r14
    2fd4:	00 
    2fd5:	48 c7 84 24 48 0f 00 	mov    QWORD PTR [rsp+0xf48],0x1
    2fdc:	00 01 00 00 00 
    2fe1:	48 8d 9c 24 30 0f 00 	lea    rbx,[rsp+0xf30]
    2fe8:	00 
    2fe9:	48 89 df             	mov    rdi,rbx
    2fec:	e8 8f ea ff ff       	call   0x1a80
    2ff1:	0f b6 04 25 01 40 06 	movzx  eax,BYTE PTR ds:0x64001
    2ff8:	00 
    2ff9:	88 44 24 28          	mov    BYTE PTR [rsp+0x28],al
    2ffd:	4c 89 b4 24 30 0f 00 	mov    QWORD PTR [rsp+0xf30],r14
    3004:	00 
    3005:	48 c7 84 24 38 0f 00 	mov    QWORD PTR [rsp+0xf38],0x49f0
    300c:	00 f0 49 00 00 
    3011:	48 c7 84 24 30 01 00 	mov    QWORD PTR [rsp+0x130],0x77b0
    3018:	00 b0 77 00 00 
    301d:	48 c7 84 24 38 01 00 	mov    QWORD PTR [rsp+0x138],0x2
    3024:	00 02 00 00 00 
    3029:	48 c7 84 24 50 01 00 	mov    QWORD PTR [rsp+0x150],0x0
    3030:	00 00 00 00 00 
    3035:	48 89 9c 24 40 01 00 	mov    QWORD PTR [rsp+0x140],rbx
    303c:	00 
    303d:	48 c7 84 24 48 01 00 	mov    QWORD PTR [rsp+0x148],0x1
    3044:	00 01 00 00 00 
    3049:	48 8d bc 24 30 01 00 	lea    rdi,[rsp+0x130]
    3050:	00 
    3051:	e8 2a ea ff ff       	call   0x1a80
    3056:	48 c7 c1 d0 77 00 00 	mov    rcx,0x77d0
    305d:	48 c7 c6 eb 77 00 00 	mov    rsi,0x77eb
    3064:	eb 17                	jmp    0x307d
    3066:	66 2e 0f 1f 84 00 00 	cs nop WORD PTR [rax+rax*1+0x0]
    306d:	00 00 00 
    3070:	48 ff c1             	inc    rcx
    3073:	66 ba 00 10          	mov    dx,0x1000
    3077:	ee                   	out    dx,al
    3078:	48 39 f1             	cmp    rcx,rsi
    307b:	74 73                	je     0x30f0
    307d:	0f b6 01             	movzx  eax,BYTE PTR [rcx]
    3080:	84 c0                	test   al,al
    3082:	79 ec                	jns    0x3070
    3084:	89 c2                	mov    edx,eax
    3086:	83 e2 1f             	and    edx,0x1f
    3089:	44 0f b6 41 01       	movzx  r8d,BYTE PTR [rcx+0x1]
    308e:	41 83 e0 3f          	and    r8d,0x3f
    3092:	3c df                	cmp    al,0xdf
    3094:	76 33                	jbe    0x30c9
    3096:	0f b6 79 02          	movzx  edi,BYTE PTR [rcx+0x2]
    309a:	41 c1 e0 06          	shl    r8d,0x6
    309e:	83 e7 3f             	and    edi,0x3f
    30a1:	44 09 c7             	or     edi,r8d
    30a4:	3c f0                	cmp    al,0xf0
    30a6:	72 2f                	jb     0x30d7
    30a8:	0f b6 41 03          	movzx  eax,BYTE PTR [rcx+0x3]
    30ac:	83 e2 07             	and    edx,0x7
    30af:	c1 e2 12             	shl    edx,0x12
    30b2:	c1 e7 06             	shl    edi,0x6
    30b5:	83 e0 3f             	and    eax,0x3f
    30b8:	09 f8                	or     eax,edi
    30ba:	09 d0                	or     eax,edx
    30bc:	3d 00 00 11 00       	cmp    eax,0x110000
    30c1:	74 2d                	je     0x30f0
    30c3:	48 83 c1 04          	add    rcx,0x4
    30c7:	eb aa                	jmp    0x3073
    30c9:	48 83 c1 02          	add    rcx,0x2
    30cd:	c1 e2 06             	shl    edx,0x6
    30d0:	44 09 c2             	or     edx,r8d
    30d3:	89 d0                	mov    eax,edx
    30d5:	eb 9c                	jmp    0x3073
    30d7:	48 83 c1 03          	add    rcx,0x3
    30db:	c1 e2 0c             	shl    edx,0xc
    30de:	09 d7                	or     edi,edx
    30e0:	89 f8                	mov    eax,edi
    30e2:	eb 8f                	jmp    0x3073
    30e4:	66 66 66 2e 0f 1f 84 	data16 data16 cs nop WORD PTR [rax+rax*1+0x0]
    30eb:	00 00 00 00 00 
    30f0:	f4                   	hlt
    30f1:	eb fd                	jmp    0x30f0
    30f3:	48 c7 c1 10 76 00 00 	mov    rcx,0x7610
    30fa:	48 c7 c6 27 76 00 00 	mov    rsi,0x7627
    3101:	eb 1e                	jmp    0x3121
    3103:	66 66 66 66 2e 0f 1f 	data16 data16 data16 cs nop WORD PTR [rax+rax*1+0x0]
    310a:	84 00 00 00 00 00 
    3110:	48 ff c1             	inc    rcx
    3113:	66 ba 00 10          	mov    dx,0x1000
    3117:	ee                   	out    dx,al
    3118:	48 39 f1             	cmp    rcx,rsi
    311b:	0f 84 c3 ed ff ff    	je     0x1ee4
    3121:	0f b6 01             	movzx  eax,BYTE PTR [rcx]
    3124:	84 c0                	test   al,al
    3126:	79 e8                	jns    0x3110
    3128:	89 c2                	mov    edx,eax
    312a:	83 e2 1f             	and    edx,0x1f
    312d:	44 0f b6 41 01       	movzx  r8d,BYTE PTR [rcx+0x1]
    3132:	41 83 e0 3f          	and    r8d,0x3f
    3136:	3c df                	cmp    al,0xdf
    3138:	76 37                	jbe    0x3171
    313a:	0f b6 79 02          	movzx  edi,BYTE PTR [rcx+0x2]
    313e:	41 c1 e0 06          	shl    r8d,0x6
    3142:	83 e7 3f             	and    edi,0x3f
    3145:	44 09 c7             	or     edi,r8d
    3148:	3c f0                	cmp    al,0xf0
    314a:	72 33                	jb     0x317f
    314c:	0f b6 41 03          	movzx  eax,BYTE PTR [rcx+0x3]
    3150:	83 e2 07             	and    edx,0x7
    3153:	c1 e2 12             	shl    edx,0x12
    3156:	c1 e7 06             	shl    edi,0x6
    3159:	83 e0 3f             	and    eax,0x3f
    315c:	09 f8                	or     eax,edi
    315e:	09 d0                	or     eax,edx
    3160:	3d 00 00 11 00       	cmp    eax,0x110000
    3165:	0f 84 79 ed ff ff    	je     0x1ee4
    316b:	48 83 c1 04          	add    rcx,0x4
    316f:	eb a2                	jmp    0x3113
    3171:	48 83 c1 02          	add    rcx,0x2
    3175:	c1 e2 06             	shl    edx,0x6
    3178:	44 09 c2             	or     edx,r8d
    317b:	89 d0                	mov    eax,edx
    317d:	eb 94                	jmp    0x3113
    317f:	48 83 c1 03          	add    rcx,0x3
    3183:	c1 e2 0c             	shl    edx,0xc
    3186:	09 d7                	or     edi,edx
    3188:	89 f8                	mov    eax,edi
    318a:	eb 87                	jmp    0x3113
    318c:	bd 0a 00 00 00       	mov    ebp,0xa
    3191:	48 8d 9c 24 30 01 00 	lea    rbx,[rsp+0x130]
    3198:	00 
    3199:	4c 8d b4 24 30 0f 00 	lea    r14,[rsp+0xf30]
    31a0:	00 
    31a1:	4c 8d 7c 24 28       	lea    r15,[rsp+0x28]
    31a6:	eb 7b                	jmp    0x3223
    31a8:	0f 1f 84 00 00 00 00 	nop    DWORD PTR [rax+rax*1+0x0]
    31af:	00 
    31b0:	48 8b 84 24 30 01 00 	mov    rax,QWORD PTR [rsp+0x130]
    31b7:	00 
    31b8:	48 89 84 24 38 0f 00 	mov    QWORD PTR [rsp+0xf38],rax
    31bf:	00 
    31c0:	b8 01 00 00 00       	mov    eax,0x1
    31c5:	48 89 84 24 30 0f 00 	mov    QWORD PTR [rsp+0xf30],rax
    31cc:	00 
    31cd:	4c 89 74 24 28       	mov    QWORD PTR [rsp+0x28],r14
    31d2:	48 c7 44 24 30 e0 15 	mov    QWORD PTR [rsp+0x30],0x15e0
    31d9:	00 00 
    31db:	48 c7 84 24 30 01 00 	mov    QWORD PTR [rsp+0x130],0x7640
    31e2:	00 40 76 00 00 
    31e7:	48 c7 84 24 38 01 00 	mov    QWORD PTR [rsp+0x138],0x2
    31ee:	00 02 00 00 00 
    31f3:	48 c7 84 24 50 01 00 	mov    QWORD PTR [rsp+0x150],0x0
    31fa:	00 00 00 00 00 
    31ff:	4c 89 bc 24 40 01 00 	mov    QWORD PTR [rsp+0x140],r15
    3206:	00 
    3207:	48 c7 84 24 48 01 00 	mov    QWORD PTR [rsp+0x148],0x1
    320e:	00 01 00 00 00 
    3213:	48 89 df             	mov    rdi,rbx
    3216:	e8 65 e8 ff ff       	call   0x1a80
    321b:	ff cd                	dec    ebp
    321d:	0f 84 dc ec ff ff    	je     0x1eff
    3223:	48 c7 84 24 30 01 00 	mov    QWORD PTR [rsp+0x130],0x0
    322a:	00 00 00 00 00 
    322f:	48 89 df             	mov    rdi,rbx
    3232:	e8 79 e2 ff ff       	call   0x14b0
    3237:	83 f8 01             	cmp    eax,0x1
    323a:	0f 84 70 ff ff ff    	je     0x31b0
    3240:	31 c0                	xor    eax,eax
    3242:	eb 81                	jmp    0x31c5
    3244:	48 c7 c1 10 76 00 00 	mov    rcx,0x7610
    324b:	48 c7 c6 27 76 00 00 	mov    rsi,0x7627
    3252:	eb 1d                	jmp    0x3271
    3254:	66 66 66 2e 0f 1f 84 	data16 data16 cs nop WORD PTR [rax+rax*1+0x0]
    325b:	00 00 00 00 00 
    3260:	48 ff c1             	inc    rcx
    3263:	66 ba 00 10          	mov    dx,0x1000
    3267:	ee                   	out    dx,al
    3268:	48 39 f1             	cmp    rcx,rsi
    326b:	0f 84 8d fa ff ff    	je     0x2cfe
    3271:	0f b6 01             	movzx  eax,BYTE PTR [rcx]
    3274:	84 c0                	test   al,al
    3276:	79 e8                	jns    0x3260
    3278:	89 c2                	mov    edx,eax
    327a:	83 e2 1f             	and    edx,0x1f
    327d:	44 0f b6 41 01       	movzx  r8d,BYTE PTR [rcx+0x1]
    3282:	41 83 e0 3f          	and    r8d,0x3f
    3286:	3c df                	cmp    al,0xdf
    3288:	76 37                	jbe    0x32c1
    328a:	0f b6 79 02          	movzx  edi,BYTE PTR [rcx+0x2]
    328e:	41 c1 e0 06          	shl    r8d,0x6
    3292:	83 e7 3f             	and    edi,0x3f
    3295:	44 09 c7             	or     edi,r8d
    3298:	3c f0                	cmp    al,0xf0
    329a:	72 33                	jb     0x32cf
    329c:	0f b6 41 03          	movzx  eax,BYTE PTR [rcx+0x3]
    32a0:	83 e2 07             	and    edx,0x7
    32a3:	c1 e2 12             	shl    edx,0x12
    32a6:	c1 e7 06             	shl    edi,0x6
    32a9:	83 e0 3f             	and    eax,0x3f
    32ac:	09 f8                	or     eax,edi
    32ae:	09 d0                	or     eax,edx
    32b0:	3d 00 00 11 00       	cmp    eax,0x110000
    32b5:	0f 84 43 fa ff ff    	je     0x2cfe
    32bb:	48 83 c1 04          	add    rcx,0x4
    32bf:	eb a2                	jmp    0x3263
    32c1:	48 83 c1 02          	add    rcx,0x2
    32c5:	c1 e2 06             	shl    edx,0x6
    32c8:	44 09 c2             	or     edx,r8d
    32cb:	89 d0                	mov    eax,edx
    32cd:	eb 94                	jmp    0x3263
    32cf:	48 83 c1 03          	add    rcx,0x3
    32d3:	c1 e2 0c             	shl    edx,0xc
    32d6:	09 d7                	or     edi,edx
    32d8:	89 f8                	mov    eax,edi
    32da:	eb 87                	jmp    0x3263
    32dc:	48 85 c0             	test   rax,rax
    32df:	75 1a                	jne    0x32fb
    32e1:	be 28 00 00 00       	mov    esi,0x28
    32e6:	48 c7 c7 c0 72 00 00 	mov    rdi,0x72c0
    32ed:	48 c7 c2 48 73 00 00 	mov    rdx,0x7348
    32f4:	e8 67 0c 00 00       	call   0x3f60
    32f9:	0f 0b                	ud2
    32fb:	be 11 00 00 00       	mov    esi,0x11
    3300:	48 c7 c7 60 73 00 00 	mov    rdi,0x7360
    3307:	48 c7 c2 78 73 00 00 	mov    rdx,0x7378
    330e:	e8 4d 0c 00 00       	call   0x3f60
    3313:	0f 0b                	ud2
    3315:	48 c7 84 24 30 01 00 	mov    QWORD PTR [rsp+0x130],0x1d50
    331c:	00 50 1d 00 00 
    3321:	eb 5d                	jmp    0x3380
    3323:	48 c7 84 24 30 01 00 	mov    QWORD PTR [rsp+0x130],0x6130
    332a:	00 30 61 00 00 
    332f:	48 8d 94 24 30 01 00 	lea    rdx,[rsp+0x130]
    3336:	00 
    3337:	be 4a 00 00 00       	mov    esi,0x4a
    333c:	48 c7 c7 26 8a 00 00 	mov    rdi,0x8a26
    3343:	48 c7 c1 70 8a 00 00 	mov    rcx,0x8a70
    334a:	49 c7 c0 90 8a 00 00 	mov    r8,0x8a90
    3351:	e8 1a 16 00 00       	call   0x4970
    3356:	0f 0b                	ud2
    3358:	48 c7 84 24 30 01 00 	mov    QWORD PTR [rsp+0x130],0x1b90
    335f:	00 90 1b 00 00 
    3364:	eb 1a                	jmp    0x3380
    3366:	48 c7 84 24 30 01 00 	mov    QWORD PTR [rsp+0x130],0x1c30
    336d:	00 30 1c 00 00 
    3372:	eb 0c                	jmp    0x3380
    3374:	48 c7 84 24 30 01 00 	mov    QWORD PTR [rsp+0x130],0x1cc0
    337b:	00 c0 1c 00 00 
    3380:	48 8d 94 24 30 01 00 	lea    rdx,[rsp+0x130]
    3387:	00 
    3388:	be 4a 00 00 00       	mov    esi,0x4a
    338d:	48 c7 c7 26 8a 00 00 	mov    rdi,0x8a26
    3394:	48 c7 c1 f0 73 00 00 	mov    rcx,0x73f0
    339b:	49 c7 c0 90 8a 00 00 	mov    r8,0x8a90
    33a2:	e8 c9 15 00 00       	call   0x4970
    33a7:	0f 0b                	ud2
    33a9:	cc                   	int3
    33aa:	cc                   	int3
    33ab:	cc                   	int3
    33ac:	cc                   	int3
    33ad:	cc                   	int3
    33ae:	cc                   	int3
    33af:	cc                   	int3
    33b0:	48 8b 07             	mov    rax,QWORD PTR [rdi]
    33b3:	66 66 66 66 2e 0f 1f 	data16 data16 data16 cs nop WORD PTR [rax+rax*1+0x0]
    33ba:	84 00 00 00 00 00 
    33c0:	eb fe                	jmp    0x33c0
    33c2:	cc                   	int3
    33c3:	cc                   	int3
    33c4:	cc                   	int3
    33c5:	cc                   	int3
    33c6:	cc                   	int3
    33c7:	cc                   	int3
    33c8:	cc                   	int3
    33c9:	cc                   	int3
    33ca:	cc                   	int3
    33cb:	cc                   	int3
    33cc:	cc                   	int3
    33cd:	cc                   	int3
    33ce:	cc                   	int3
    33cf:	cc                   	int3
    33d0:	48 83 ec 28          	sub    rsp,0x28
    33d4:	48 c7 04 24 68 88 00 	mov    QWORD PTR [rsp],0x8868
    33db:	00 
    33dc:	48 c7 44 24 08 a8 78 	mov    QWORD PTR [rsp+0x8],0x78a8
    33e3:	00 00 
    33e5:	48 89 7c 24 10       	mov    QWORD PTR [rsp+0x10],rdi
    33ea:	48 89 74 24 18       	mov    QWORD PTR [rsp+0x18],rsi
    33ef:	66 c7 44 24 20 01 00 	mov    WORD PTR [rsp+0x20],0x1
    33f6:	48 89 e7             	mov    rdi,rsp
    33f9:	e8 12 ea ff ff       	call   0x1e10
    33fe:	0f 0b                	ud2
    3400:	48 b8 2b 26 43 a5 54 	movabs rax,0x91afb254a543262b
    3407:	b2 af 91 
    340a:	48 ba 58 c4 5d dc 7d 	movabs rdx,0xd17eac7ddc5dc458
    3411:	ac 7e d1 
    3414:	c3                   	ret
    3415:	cc                   	int3
    3416:	cc                   	int3
    3417:	cc                   	int3
    3418:	cc                   	int3
    3419:	cc                   	int3
    341a:	cc                   	int3
    341b:	cc                   	int3
    341c:	cc                   	int3
    341d:	cc                   	int3
    341e:	cc                   	int3
    341f:	cc                   	int3
    3420:	48 83 ec 68          	sub    rsp,0x68
    3424:	48 89 7c 24 08       	mov    QWORD PTR [rsp+0x8],rdi
    3429:	48 c7 44 24 10 80 00 	mov    QWORD PTR [rsp+0x10],0x80
    3430:	00 00 
    3432:	48 8d 44 24 08       	lea    rax,[rsp+0x8]
    3437:	48 89 44 24 18       	mov    QWORD PTR [rsp+0x18],rax
    343c:	48 c7 44 24 20 20 59 	mov    QWORD PTR [rsp+0x20],0x5920
    3443:	00 00 
    3445:	48 8d 44 24 10       	lea    rax,[rsp+0x10]
    344a:	48 89 44 24 28       	mov    QWORD PTR [rsp+0x28],rax
    344f:	48 c7 44 24 30 20 59 	mov    QWORD PTR [rsp+0x30],0x5920
    3456:	00 00 
    3458:	48 c7 44 24 38 58 7b 	mov    QWORD PTR [rsp+0x38],0x7b58
    345f:	00 00 
    3461:	48 c7 44 24 40 02 00 	mov    QWORD PTR [rsp+0x40],0x2
    3468:	00 00 
    346a:	48 c7 44 24 58 00 00 	mov    QWORD PTR [rsp+0x58],0x0
    3471:	00 00 
    3473:	48 8d 44 24 18       	lea    rax,[rsp+0x18]
    3478:	48 89 44 24 48       	mov    QWORD PTR [rsp+0x48],rax
    347d:	48 c7 44 24 50 02 00 	mov    QWORD PTR [rsp+0x50],0x2
    3484:	00 00 
    3486:	48 8d 7c 24 38       	lea    rdi,[rsp+0x38]
    348b:	48 c7 c6 08 7a 00 00 	mov    rsi,0x7a08
    3492:	e8 39 ff ff ff       	call   0x33d0
    3497:	0f 0b                	ud2
    3499:	cc                   	int3
    349a:	cc                   	int3
    349b:	cc                   	int3
    349c:	cc                   	int3
    349d:	cc                   	int3
    349e:	cc                   	int3
    349f:	cc                   	int3
    34a0:	48 83 ec 68          	sub    rsp,0x68
    34a4:	48 89 7c 24 08       	mov    QWORD PTR [rsp+0x8],rdi
    34a9:	48 89 74 24 10       	mov    QWORD PTR [rsp+0x10],rsi
    34ae:	48 8d 44 24 10       	lea    rax,[rsp+0x10]
    34b3:	48 89 44 24 18       	mov    QWORD PTR [rsp+0x18],rax
    34b8:	48 c7 44 24 20 20 59 	mov    QWORD PTR [rsp+0x20],0x5920
    34bf:	00 00 
    34c1:	48 8d 44 24 08       	lea    rax,[rsp+0x8]
    34c6:	48 89 44 24 28       	mov    QWORD PTR [rsp+0x28],rax
    34cb:	48 c7 44 24 30 20 59 	mov    QWORD PTR [rsp+0x30],0x5920
    34d2:	00 00 
    34d4:	48 c7 44 24 38 00 79 	mov    QWORD PTR [rsp+0x38],0x7900
    34db:	00 00 
    34dd:	48 c7 44 24 40 02 00 	mov    QWORD PTR [rsp+0x40],0x2
    34e4:	00 00 
    34e6:	48 c7 44 24 58 00 00 	mov    QWORD PTR [rsp+0x58],0x0
    34ed:	00 00 
    34ef:	48 8d 44 24 18       	lea    rax,[rsp+0x18]
    34f4:	48 89 44 24 48       	mov    QWORD PTR [rsp+0x48],rax
    34f9:	48 c7 44 24 50 02 00 	mov    QWORD PTR [rsp+0x50],0x2
    3500:	00 00 
    3502:	48 8d 7c 24 38       	lea    rdi,[rsp+0x38]
    3507:	48 89 d6             	mov    rsi,rdx
    350a:	e8 c1 fe ff ff       	call   0x33d0
    350f:	0f 0b                	ud2
    3511:	cc                   	int3
    3512:	cc                   	int3
    3513:	cc                   	int3
    3514:	cc                   	int3
    3515:	cc                   	int3
    3516:	cc                   	int3
    3517:	cc                   	int3
    3518:	cc                   	int3
    3519:	cc                   	int3
    351a:	cc                   	int3
    351b:	cc                   	int3
    351c:	cc                   	int3
    351d:	cc                   	int3
    351e:	cc                   	int3
    351f:	cc                   	int3
    3520:	55                   	push   rbp
    3521:	41 57                	push   r15
    3523:	41 56                	push   r14
    3525:	41 55                	push   r13
    3527:	41 54                	push   r12
    3529:	53                   	push   rbx
    352a:	48 83 ec 28          	sub    rsp,0x28
    352e:	4c 89 c5             	mov    rbp,r8
    3531:	48 89 4c 24 10       	mov    QWORD PTR [rsp+0x10],rcx
    3536:	49 89 d3             	mov    r11,rdx
    3539:	49 89 f5             	mov    r13,rsi
    353c:	49 89 ff             	mov    r15,rdi
    353f:	8b 47 34             	mov    eax,DWORD PTR [rdi+0x34]
    3542:	89 c1                	mov    ecx,eax
    3544:	83 e1 01             	and    ecx,0x1
    3547:	be 00 00 11 00       	mov    esi,0x110000
    354c:	ba 2b 00 00 00       	mov    edx,0x2b
    3551:	0f 44 d6             	cmove  edx,esi
    3554:	4c 01 c1             	add    rcx,r8
    3557:	a8 04                	test   al,0x4
    3559:	75 3f                	jne    0x359a
    355b:	45 31 ed             	xor    r13d,r13d
    355e:	49 83 3f 00          	cmp    QWORD PTR [r15],0x0
    3562:	0f 84 8c 01 00 00    	je     0x36f4
    3568:	48 89 6c 24 20       	mov    QWORD PTR [rsp+0x20],rbp
    356d:	49 8b 6f 08          	mov    rbp,QWORD PTR [r15+0x8]
    3571:	48 29 cd             	sub    rbp,rcx
    3574:	76 42                	jbe    0x35b8
    3576:	a8 08                	test   al,0x8
    3578:	75 7f                	jne    0x35f9
    357a:	89 54 24 0c          	mov    DWORD PTR [rsp+0xc],edx
    357e:	4c 89 5c 24 18       	mov    QWORD PTR [rsp+0x18],r11
    3583:	45 0f b6 67 38       	movzx  r12d,BYTE PTR [r15+0x38]
    3588:	42 ff 24 e5 40 71 00 	jmp    QWORD PTR [r12*8+0x7140]
    358f:	00 
    3590:	49 89 ec             	mov    r12,rbp
    3593:	31 ed                	xor    ebp,ebp
    3595:	e9 a9 01 00 00       	jmp    0x3743
    359a:	4d 85 db             	test   r11,r11
    359d:	74 53                	je     0x35f2
    359f:	44 89 db             	mov    ebx,r11d
    35a2:	83 e3 03             	and    ebx,0x3
    35a5:	49 83 fb 04          	cmp    r11,0x4
    35a9:	0f 83 ae 00 00 00    	jae    0x365d
    35af:	31 ff                	xor    edi,edi
    35b1:	31 f6                	xor    esi,esi
    35b3:	e9 ff 00 00 00       	jmp    0x36b7
    35b8:	49 8b 5f 20          	mov    rbx,QWORD PTR [r15+0x20]
    35bc:	4d 8b 77 28          	mov    r14,QWORD PTR [r15+0x28]
    35c0:	48 89 df             	mov    rdi,rbx
    35c3:	4c 89 f6             	mov    rsi,r14
    35c6:	4c 89 e9             	mov    rcx,r13
    35c9:	4d 89 d8             	mov    r8,r11
    35cc:	e8 5f 02 00 00       	call   0x3830
    35d1:	41 b4 01             	mov    r12b,0x1
    35d4:	84 c0                	test   al,al
    35d6:	48 8b 54 24 20       	mov    rdx,QWORD PTR [rsp+0x20]
    35db:	0f 85 2f 02 00 00    	jne    0x3810
    35e1:	49 8b 46 18          	mov    rax,QWORD PTR [r14+0x18]
    35e5:	48 89 df             	mov    rdi,rbx
    35e8:	48 8b 74 24 10       	mov    rsi,QWORD PTR [rsp+0x10]
    35ed:	e9 35 01 00 00       	jmp    0x3727
    35f2:	31 ff                	xor    edi,edi
    35f4:	e9 ee 00 00 00       	jmp    0x36e7
    35f9:	41 8b 47 30          	mov    eax,DWORD PTR [r15+0x30]
    35fd:	89 44 24 18          	mov    DWORD PTR [rsp+0x18],eax
    3601:	41 c7 47 30 30 00 00 	mov    DWORD PTR [r15+0x30],0x30
    3608:	00 
    3609:	41 0f b6 47 38       	movzx  eax,BYTE PTR [r15+0x38]
    360e:	88 44 24 0c          	mov    BYTE PTR [rsp+0xc],al
    3612:	41 c6 47 38 01       	mov    BYTE PTR [r15+0x38],0x1
    3617:	4d 8b 77 20          	mov    r14,QWORD PTR [r15+0x20]
    361b:	49 8b 5f 28          	mov    rbx,QWORD PTR [r15+0x28]
    361f:	4c 89 f7             	mov    rdi,r14
    3622:	48 89 de             	mov    rsi,rbx
    3625:	4c 89 e9             	mov    rcx,r13
    3628:	4d 89 d8             	mov    r8,r11
    362b:	e8 00 02 00 00       	call   0x3830
    3630:	41 b4 01             	mov    r12b,0x1
    3633:	84 c0                	test   al,al
    3635:	0f 85 d5 01 00 00    	jne    0x3810
    363b:	48 ff c5             	inc    rbp
    363e:	66 90                	xchg   ax,ax
    3640:	48 ff cd             	dec    rbp
    3643:	0f 84 93 01 00 00    	je     0x37dc
    3649:	4c 89 f7             	mov    rdi,r14
    364c:	be 30 00 00 00       	mov    esi,0x30
    3651:	ff 53 20             	call   QWORD PTR [rbx+0x20]
    3654:	84 c0                	test   al,al
    3656:	74 e8                	je     0x3640
    3658:	e9 b3 01 00 00       	jmp    0x3810
    365d:	4d 89 d8             	mov    r8,r11
    3660:	49 83 e0 fc          	and    r8,0xfffffffffffffffc
    3664:	31 ff                	xor    edi,edi
    3666:	31 f6                	xor    esi,esi
    3668:	0f 1f 84 00 00 00 00 	nop    DWORD PTR [rax+rax*1+0x0]
    366f:	00 
    3670:	45 31 c9             	xor    r9d,r9d
    3673:	41 80 7c 35 00 c0    	cmp    BYTE PTR [r13+rsi*1+0x0],0xc0
    3679:	41 0f 9d c1          	setge  r9b
    367d:	49 01 f9             	add    r9,rdi
    3680:	31 ff                	xor    edi,edi
    3682:	41 80 7c 35 01 c0    	cmp    BYTE PTR [r13+rsi*1+0x1],0xc0
    3688:	40 0f 9d c7          	setge  dil
    368c:	45 31 d2             	xor    r10d,r10d
    368f:	41 80 7c 35 02 c0    	cmp    BYTE PTR [r13+rsi*1+0x2],0xc0
    3695:	41 0f 9d c2          	setge  r10b
    3699:	49 01 fa             	add    r10,rdi
    369c:	4d 01 ca             	add    r10,r9
    369f:	31 ff                	xor    edi,edi
    36a1:	41 80 7c 35 03 c0    	cmp    BYTE PTR [r13+rsi*1+0x3],0xc0
    36a7:	40 0f 9d c7          	setge  dil
    36ab:	4c 01 d7             	add    rdi,r10
    36ae:	48 83 c6 04          	add    rsi,0x4
    36b2:	49 39 f0             	cmp    r8,rsi
    36b5:	75 b9                	jne    0x3670
    36b7:	48 85 db             	test   rbx,rbx
    36ba:	74 2b                	je     0x36e7
    36bc:	4c 01 ee             	add    rsi,r13
    36bf:	45 31 c0             	xor    r8d,r8d
    36c2:	66 66 66 66 66 2e 0f 	data16 data16 data16 data16 cs nop WORD PTR [rax+rax*1+0x0]
    36c9:	1f 84 00 00 00 00 00 
    36d0:	45 31 c9             	xor    r9d,r9d
    36d3:	42 80 3c 06 c0       	cmp    BYTE PTR [rsi+r8*1],0xc0
    36d8:	41 0f 9d c1          	setge  r9b
    36dc:	4c 01 cf             	add    rdi,r9
    36df:	49 ff c0             	inc    r8
    36e2:	4c 39 c3             	cmp    rbx,r8
    36e5:	75 e9                	jne    0x36d0
    36e7:	48 01 f9             	add    rcx,rdi
    36ea:	49 83 3f 00          	cmp    QWORD PTR [r15],0x0
    36ee:	0f 85 74 fe ff ff    	jne    0x3568
    36f4:	49 8b 5f 20          	mov    rbx,QWORD PTR [r15+0x20]
    36f8:	4d 8b 77 28          	mov    r14,QWORD PTR [r15+0x28]
    36fc:	48 89 df             	mov    rdi,rbx
    36ff:	4c 89 f6             	mov    rsi,r14
    3702:	4c 89 e9             	mov    rcx,r13
    3705:	4d 89 d8             	mov    r8,r11
    3708:	e8 23 01 00 00       	call   0x3830
    370d:	41 b4 01             	mov    r12b,0x1
    3710:	84 c0                	test   al,al
    3712:	0f 85 f8 00 00 00    	jne    0x3810
    3718:	49 8b 46 18          	mov    rax,QWORD PTR [r14+0x18]
    371c:	48 89 df             	mov    rdi,rbx
    371f:	48 8b 74 24 10       	mov    rsi,QWORD PTR [rsp+0x10]
    3724:	48 89 ea             	mov    rdx,rbp
    3727:	48 83 c4 28          	add    rsp,0x28
    372b:	5b                   	pop    rbx
    372c:	41 5c                	pop    r12
    372e:	41 5d                	pop    r13
    3730:	41 5e                	pop    r14
    3732:	41 5f                	pop    r15
    3734:	5d                   	pop    rbp
    3735:	ff e0                	jmp    rax
    3737:	49 89 ec             	mov    r12,rbp
    373a:	49 d1 ec             	shr    r12,1
    373d:	48 ff c5             	inc    rbp
    3740:	48 d1 ed             	shr    rbp,1
    3743:	4d 8b 77 20          	mov    r14,QWORD PTR [r15+0x20]
    3747:	49 8b 5f 28          	mov    rbx,QWORD PTR [r15+0x28]
    374b:	45 8b 7f 30          	mov    r15d,DWORD PTR [r15+0x30]
    374f:	49 ff c4             	inc    r12
    3752:	66 66 66 66 66 2e 0f 	data16 data16 data16 data16 cs nop WORD PTR [rax+rax*1+0x0]
    3759:	1f 84 00 00 00 00 00 
    3760:	4c 89 f7             	mov    rdi,r14
    3763:	49 ff cc             	dec    r12
    3766:	74 12                	je     0x377a
    3768:	44 89 fe             	mov    esi,r15d
    376b:	ff 53 20             	call   QWORD PTR [rbx+0x20]
    376e:	84 c0                	test   al,al
    3770:	74 ee                	je     0x3760
    3772:	41 b4 01             	mov    r12b,0x1
    3775:	e9 96 00 00 00       	jmp    0x3810
    377a:	48 89 de             	mov    rsi,rbx
    377d:	8b 54 24 0c          	mov    edx,DWORD PTR [rsp+0xc]
    3781:	4c 89 e9             	mov    rcx,r13
    3784:	4c 8b 44 24 18       	mov    r8,QWORD PTR [rsp+0x18]
    3789:	e8 a2 00 00 00       	call   0x3830
    378e:	41 b4 01             	mov    r12b,0x1
    3791:	84 c0                	test   al,al
    3793:	75 7b                	jne    0x3810
    3795:	4c 89 f7             	mov    rdi,r14
    3798:	48 8b 74 24 10       	mov    rsi,QWORD PTR [rsp+0x10]
    379d:	48 8b 54 24 20       	mov    rdx,QWORD PTR [rsp+0x20]
    37a2:	ff 53 18             	call   QWORD PTR [rbx+0x18]
    37a5:	84 c0                	test   al,al
    37a7:	75 67                	jne    0x3810
    37a9:	49 89 ed             	mov    r13,rbp
    37ac:	49 f7 dd             	neg    r13
    37af:	49 c7 c4 ff ff ff ff 	mov    r12,0xffffffffffffffff
    37b6:	66 2e 0f 1f 84 00 00 	cs nop WORD PTR [rax+rax*1+0x0]
    37bd:	00 00 00 
    37c0:	4b 8d 04 2c          	lea    rax,[r12+r13*1]
    37c4:	48 83 f8 ff          	cmp    rax,0xffffffffffffffff
    37c8:	74 3c                	je     0x3806
    37ca:	4c 89 f7             	mov    rdi,r14
    37cd:	44 89 fe             	mov    esi,r15d
    37d0:	ff 53 20             	call   QWORD PTR [rbx+0x20]
    37d3:	49 ff c4             	inc    r12
    37d6:	84 c0                	test   al,al
    37d8:	74 e6                	je     0x37c0
    37da:	eb 2d                	jmp    0x3809
    37dc:	4c 89 f7             	mov    rdi,r14
    37df:	48 8b 74 24 10       	mov    rsi,QWORD PTR [rsp+0x10]
    37e4:	48 8b 54 24 20       	mov    rdx,QWORD PTR [rsp+0x20]
    37e9:	ff 53 18             	call   QWORD PTR [rbx+0x18]
    37ec:	84 c0                	test   al,al
    37ee:	75 20                	jne    0x3810
    37f0:	8b 44 24 18          	mov    eax,DWORD PTR [rsp+0x18]
    37f4:	41 89 47 30          	mov    DWORD PTR [r15+0x30],eax
    37f8:	0f b6 44 24 0c       	movzx  eax,BYTE PTR [rsp+0xc]
    37fd:	41 88 47 38          	mov    BYTE PTR [r15+0x38],al
    3801:	45 31 e4             	xor    r12d,r12d
    3804:	eb 0a                	jmp    0x3810
    3806:	49 89 ec             	mov    r12,rbp
    3809:	49 39 ec             	cmp    r12,rbp
    380c:	41 0f 92 c4          	setb   r12b
    3810:	44 89 e0             	mov    eax,r12d
    3813:	48 83 c4 28          	add    rsp,0x28
    3817:	5b                   	pop    rbx
    3818:	41 5c                	pop    r12
    381a:	41 5d                	pop    r13
    381c:	41 5e                	pop    r14
    381e:	41 5f                	pop    r15
    3820:	5d                   	pop    rbp
    3821:	c3                   	ret
    3822:	cc                   	int3
    3823:	cc                   	int3
    3824:	cc                   	int3
    3825:	cc                   	int3
    3826:	cc                   	int3
    3827:	cc                   	int3
    3828:	cc                   	int3
    3829:	cc                   	int3
    382a:	cc                   	int3
    382b:	cc                   	int3
    382c:	cc                   	int3
    382d:	cc                   	int3
    382e:	cc                   	int3
    382f:	cc                   	int3
    3830:	41 57                	push   r15
    3832:	41 56                	push   r14
    3834:	41 54                	push   r12
    3836:	53                   	push   rbx
    3837:	50                   	push   rax
    3838:	4c 89 c3             	mov    rbx,r8
    383b:	49 89 ce             	mov    r14,rcx
    383e:	49 89 f4             	mov    r12,rsi
    3841:	49 89 ff             	mov    r15,rdi
    3844:	81 fa 00 00 11 00    	cmp    edx,0x110000
    384a:	74 12                	je     0x385e
    384c:	4c 89 ff             	mov    rdi,r15
    384f:	89 d6                	mov    esi,edx
    3851:	41 ff 54 24 20       	call   QWORD PTR [r12+0x20]
    3856:	89 c1                	mov    ecx,eax
    3858:	b0 01                	mov    al,0x1
    385a:	84 c9                	test   cl,cl
    385c:	75 22                	jne    0x3880
    385e:	4d 85 f6             	test   r14,r14
    3861:	74 1b                	je     0x387e
    3863:	49 8b 44 24 18       	mov    rax,QWORD PTR [r12+0x18]
    3868:	4c 89 ff             	mov    rdi,r15
    386b:	4c 89 f6             	mov    rsi,r14
    386e:	48 89 da             	mov    rdx,rbx
    3871:	48 83 c4 08          	add    rsp,0x8
    3875:	5b                   	pop    rbx
    3876:	41 5c                	pop    r12
    3878:	41 5e                	pop    r14
    387a:	41 5f                	pop    r15
    387c:	ff e0                	jmp    rax
    387e:	31 c0                	xor    eax,eax
    3880:	48 83 c4 08          	add    rsp,0x8
    3884:	5b                   	pop    rbx
    3885:	41 5c                	pop    r12
    3887:	41 5e                	pop    r14
    3889:	41 5f                	pop    r15
    388b:	c3                   	ret
    388c:	cc                   	int3
    388d:	cc                   	int3
    388e:	cc                   	int3
    388f:	cc                   	int3
    3890:	48 83 ec 68          	sub    rsp,0x68
    3894:	48 89 7c 24 08       	mov    QWORD PTR [rsp+0x8],rdi
    3899:	48 89 74 24 10       	mov    QWORD PTR [rsp+0x10],rsi
    389e:	48 8d 44 24 08       	lea    rax,[rsp+0x8]
    38a3:	48 89 44 24 18       	mov    QWORD PTR [rsp+0x18],rax
    38a8:	48 c7 44 24 20 20 59 	mov    QWORD PTR [rsp+0x20],0x5920
    38af:	00 00 
    38b1:	48 8d 44 24 10       	lea    rax,[rsp+0x10]
    38b6:	48 89 44 24 28       	mov    QWORD PTR [rsp+0x28],rax
    38bb:	48 c7 44 24 30 20 59 	mov    QWORD PTR [rsp+0x30],0x5920
    38c2:	00 00 
    38c4:	48 c7 44 24 38 78 7b 	mov    QWORD PTR [rsp+0x38],0x7b78
    38cb:	00 00 
    38cd:	48 c7 44 24 40 02 00 	mov    QWORD PTR [rsp+0x40],0x2
    38d4:	00 00 
    38d6:	48 c7 44 24 58 00 00 	mov    QWORD PTR [rsp+0x58],0x0
    38dd:	00 00 
    38df:	48 8d 44 24 18       	lea    rax,[rsp+0x18]
    38e4:	48 89 44 24 48       	mov    QWORD PTR [rsp+0x48],rax
    38e9:	48 c7 44 24 50 02 00 	mov    QWORD PTR [rsp+0x50],0x2
    38f0:	00 00 
    38f2:	48 8d 7c 24 38       	lea    rdi,[rsp+0x38]
    38f7:	48 c7 c6 30 7e 00 00 	mov    rsi,0x7e30
    38fe:	e8 cd fa ff ff       	call   0x33d0
    3903:	0f 0b                	ud2
    3905:	cc                   	int3
    3906:	cc                   	int3
    3907:	cc                   	int3
    3908:	cc                   	int3
    3909:	cc                   	int3
    390a:	cc                   	int3
    390b:	cc                   	int3
    390c:	cc                   	int3
    390d:	cc                   	int3
    390e:	cc                   	int3
    390f:	cc                   	int3
    3910:	55                   	push   rbp
    3911:	41 57                	push   r15
    3913:	41 56                	push   r14
    3915:	41 55                	push   r13
    3917:	41 54                	push   r12
    3919:	53                   	push   rbx
    391a:	48 83 ec 18          	sub    rsp,0x18
    391e:	49 89 f6             	mov    r14,rsi
    3921:	48 8b 07             	mov    rax,QWORD PTR [rdi]
    3924:	48 8b 4f 10          	mov    rcx,QWORD PTR [rdi+0x10]
    3928:	48 89 c6             	mov    rsi,rax
    392b:	48 09 ce             	or     rsi,rcx
    392e:	0f 84 c8 04 00 00    	je     0x3dfc
    3934:	48 85 c9             	test   rcx,rcx
    3937:	0f 84 41 01 00 00    	je     0x3a7e
    393d:	4c 8b 47 18          	mov    r8,QWORD PTR [rdi+0x18]
    3941:	49 8d 34 16          	lea    rsi,[r14+rdx*1]
    3945:	49 ff c0             	inc    r8
    3948:	31 c9                	xor    ecx,ecx
    394a:	4c 89 f3             	mov    rbx,r14
    394d:	eb 1b                	jmp    0x396a
    394f:	90                   	nop
    3950:	4c 8d 5b 01          	lea    r11,[rbx+0x1]
    3954:	48 29 d9             	sub    rcx,rbx
    3957:	4c 01 d9             	add    rcx,r11
    395a:	4c 89 db             	mov    rbx,r11
    395d:	41 81 f9 00 00 11 00 	cmp    r9d,0x110000
    3964:	0f 84 14 01 00 00    	je     0x3a7e
    396a:	49 ff c8             	dec    r8
    396d:	0f 84 92 00 00 00    	je     0x3a05
    3973:	48 39 f3             	cmp    rbx,rsi
    3976:	0f 84 02 01 00 00    	je     0x3a7e
    397c:	44 0f b6 0b          	movzx  r9d,BYTE PTR [rbx]
    3980:	45 84 c9             	test   r9b,r9b
    3983:	79 cb                	jns    0x3950
    3985:	45 89 ca             	mov    r10d,r9d
    3988:	41 83 e2 1f          	and    r10d,0x1f
    398c:	44 0f b6 7b 01       	movzx  r15d,BYTE PTR [rbx+0x1]
    3991:	41 83 e7 3f          	and    r15d,0x3f
    3995:	41 80 f9 df          	cmp    r9b,0xdf
    3999:	76 44                	jbe    0x39df
    399b:	0f b6 6b 02          	movzx  ebp,BYTE PTR [rbx+0x2]
    399f:	41 c1 e7 06          	shl    r15d,0x6
    39a3:	83 e5 3f             	and    ebp,0x3f
    39a6:	44 09 fd             	or     ebp,r15d
    39a9:	41 80 f9 f0          	cmp    r9b,0xf0
    39ad:	72 43                	jb     0x39f2
    39af:	44 0f b6 4b 03       	movzx  r9d,BYTE PTR [rbx+0x3]
    39b4:	41 83 e2 07          	and    r10d,0x7
    39b8:	41 c1 e2 12          	shl    r10d,0x12
    39bc:	c1 e5 06             	shl    ebp,0x6
    39bf:	41 83 e1 3f          	and    r9d,0x3f
    39c3:	41 09 e9             	or     r9d,ebp
    39c6:	45 09 d1             	or     r9d,r10d
    39c9:	41 81 f9 00 00 11 00 	cmp    r9d,0x110000
    39d0:	0f 84 a8 00 00 00    	je     0x3a7e
    39d6:	4c 8d 5b 04          	lea    r11,[rbx+0x4]
    39da:	e9 75 ff ff ff       	jmp    0x3954
    39df:	4c 8d 5b 02          	lea    r11,[rbx+0x2]
    39e3:	41 c1 e2 06          	shl    r10d,0x6
    39e7:	45 09 fa             	or     r10d,r15d
    39ea:	45 89 d1             	mov    r9d,r10d
    39ed:	e9 62 ff ff ff       	jmp    0x3954
    39f2:	4c 8d 5b 03          	lea    r11,[rbx+0x3]
    39f6:	41 c1 e2 0c          	shl    r10d,0xc
    39fa:	44 09 d5             	or     ebp,r10d
    39fd:	41 89 e9             	mov    r9d,ebp
    3a00:	e9 4f ff ff ff       	jmp    0x3954
    3a05:	48 39 f3             	cmp    rbx,rsi
    3a08:	74 74                	je     0x3a7e
    3a0a:	0f b6 33             	movzx  esi,BYTE PTR [rbx]
    3a0d:	40 84 f6             	test   sil,sil
    3a10:	79 47                	jns    0x3a59
    3a12:	40 80 fe e0          	cmp    sil,0xe0
    3a16:	72 41                	jb     0x3a59
    3a18:	40 80 fe f0          	cmp    sil,0xf0
    3a1c:	72 3b                	jb     0x3a59
    3a1e:	44 0f b6 43 01       	movzx  r8d,BYTE PTR [rbx+0x1]
    3a23:	41 83 e0 3f          	and    r8d,0x3f
    3a27:	44 0f b6 4b 02       	movzx  r9d,BYTE PTR [rbx+0x2]
    3a2c:	41 83 e1 3f          	and    r9d,0x3f
    3a30:	44 0f b6 53 03       	movzx  r10d,BYTE PTR [rbx+0x3]
    3a35:	83 e6 07             	and    esi,0x7
    3a38:	c1 e6 12             	shl    esi,0x12
    3a3b:	41 c1 e0 0c          	shl    r8d,0xc
    3a3f:	41 c1 e1 06          	shl    r9d,0x6
    3a43:	45 09 c1             	or     r9d,r8d
    3a46:	41 83 e2 3f          	and    r10d,0x3f
    3a4a:	45 09 ca             	or     r10d,r9d
    3a4d:	41 09 f2             	or     r10d,esi
    3a50:	41 81 fa 00 00 11 00 	cmp    r10d,0x110000
    3a57:	74 25                	je     0x3a7e
    3a59:	48 85 c9             	test   rcx,rcx
    3a5c:	74 12                	je     0x3a70
    3a5e:	48 39 d1             	cmp    rcx,rdx
    3a61:	73 0b                	jae    0x3a6e
    3a63:	41 80 3c 0e c0       	cmp    BYTE PTR [r14+rcx*1],0xc0
    3a68:	7d 06                	jge    0x3a70
    3a6a:	31 f6                	xor    esi,esi
    3a6c:	eb 05                	jmp    0x3a73
    3a6e:	75 fa                	jne    0x3a6a
    3a70:	4c 89 f6             	mov    rsi,r14
    3a73:	48 85 f6             	test   rsi,rsi
    3a76:	48 0f 45 d1          	cmovne rdx,rcx
    3a7a:	4c 0f 45 f6          	cmovne r14,rsi
    3a7e:	48 85 c0             	test   rax,rax
    3a81:	0f 84 75 03 00 00    	je     0x3dfc
    3a87:	4c 8b 67 08          	mov    r12,QWORD PTR [rdi+0x8]
    3a8b:	48 83 fa 20          	cmp    rdx,0x20
    3a8f:	73 1a                	jae    0x3aab
    3a91:	48 85 d2             	test   rdx,rdx
    3a94:	74 67                	je     0x3afd
    3a96:	89 d1                	mov    ecx,edx
    3a98:	83 e1 03             	and    ecx,0x3
    3a9b:	48 83 fa 04          	cmp    rdx,0x4
    3a9f:	73 6c                	jae    0x3b0d
    3aa1:	31 c0                	xor    eax,eax
    3aa3:	45 31 d2             	xor    r10d,r10d
    3aa6:	e9 b9 00 00 00       	jmp    0x3b64
    3aab:	4c 89 64 24 08       	mov    QWORD PTR [rsp+0x8],r12
    3ab0:	4d 8d 66 07          	lea    r12,[r14+0x7]
    3ab4:	49 83 e4 f8          	and    r12,0xfffffffffffffff8
    3ab8:	4c 89 e0             	mov    rax,r12
    3abb:	4c 29 f0             	sub    rax,r14
    3abe:	48 89 d1             	mov    rcx,rdx
    3ac1:	48 29 c1             	sub    rcx,rax
    3ac4:	89 ce                	mov    esi,ecx
    3ac6:	83 e6 07             	and    esi,0x7
    3ac9:	4d 89 e2             	mov    r10,r12
    3acc:	4d 29 f2             	sub    r10,r14
    3acf:	75 08                	jne    0x3ad9
    3ad1:	45 31 c0             	xor    r8d,r8d
    3ad4:	e9 5e 01 00 00       	jmp    0x3c37
    3ad9:	4d 89 f0             	mov    r8,r14
    3adc:	49 f7 d0             	not    r8
    3adf:	4d 01 e0             	add    r8,r12
    3ae2:	44 89 d0             	mov    eax,r10d
    3ae5:	83 e0 03             	and    eax,0x3
    3ae8:	49 83 f8 03          	cmp    r8,0x3
    3aec:	0f 83 b9 00 00 00    	jae    0x3bab
    3af2:	45 31 c0             	xor    r8d,r8d
    3af5:	45 31 c9             	xor    r9d,r9d
    3af8:	e9 0b 01 00 00       	jmp    0x3c08
    3afd:	31 c0                	xor    eax,eax
    3aff:	49 29 c4             	sub    r12,rax
    3b02:	0f 87 88 00 00 00    	ja     0x3b90
    3b08:	e9 ef 02 00 00       	jmp    0x3dfc
    3b0d:	48 89 d6             	mov    rsi,rdx
    3b10:	48 83 e6 fc          	and    rsi,0xfffffffffffffffc
    3b14:	31 c0                	xor    eax,eax
    3b16:	45 31 d2             	xor    r10d,r10d
    3b19:	0f 1f 80 00 00 00 00 	nop    DWORD PTR [rax+0x0]
    3b20:	45 31 c0             	xor    r8d,r8d
    3b23:	43 80 3c 16 c0       	cmp    BYTE PTR [r14+r10*1],0xc0
    3b28:	41 0f 9d c0          	setge  r8b
    3b2c:	49 01 c0             	add    r8,rax
    3b2f:	31 c0                	xor    eax,eax
    3b31:	43 80 7c 16 01 c0    	cmp    BYTE PTR [r14+r10*1+0x1],0xc0
    3b37:	0f 9d c0             	setge  al
    3b3a:	45 31 c9             	xor    r9d,r9d
    3b3d:	43 80 7c 16 02 c0    	cmp    BYTE PTR [r14+r10*1+0x2],0xc0
    3b43:	41 0f 9d c1          	setge  r9b
    3b47:	49 01 c1             	add    r9,rax
    3b4a:	4d 01 c1             	add    r9,r8
    3b4d:	31 c0                	xor    eax,eax
    3b4f:	43 80 7c 16 03 c0    	cmp    BYTE PTR [r14+r10*1+0x3],0xc0
    3b55:	0f 9d c0             	setge  al
    3b58:	4c 01 c8             	add    rax,r9
    3b5b:	49 83 c2 04          	add    r10,0x4
    3b5f:	4c 39 d6             	cmp    rsi,r10
    3b62:	75 bc                	jne    0x3b20
    3b64:	48 85 c9             	test   rcx,rcx
    3b67:	74 1e                	je     0x3b87
    3b69:	4d 01 f2             	add    r10,r14
    3b6c:	31 f6                	xor    esi,esi
    3b6e:	66 90                	xchg   ax,ax
    3b70:	45 31 c0             	xor    r8d,r8d
    3b73:	41 80 3c 32 c0       	cmp    BYTE PTR [r10+rsi*1],0xc0
    3b78:	41 0f 9d c0          	setge  r8b
    3b7c:	4c 01 c0             	add    rax,r8
    3b7f:	48 ff c6             	inc    rsi
    3b82:	48 39 f1             	cmp    rcx,rsi
    3b85:	75 e9                	jne    0x3b70
    3b87:	49 29 c4             	sub    r12,rax
    3b8a:	0f 86 6c 02 00 00    	jbe    0x3dfc
    3b90:	0f b6 47 38          	movzx  eax,BYTE PTR [rdi+0x38]
    3b94:	ff 24 c5 60 71 00 00 	jmp    QWORD PTR [rax*8+0x7160]
    3b9b:	4c 89 64 24 08       	mov    QWORD PTR [rsp+0x8],r12
    3ba0:	48 89 d3             	mov    rbx,rdx
    3ba3:	45 31 e4             	xor    r12d,r12d
    3ba6:	e9 24 03 00 00       	jmp    0x3ecf
    3bab:	41 83 e2 04          	and    r10d,0x4
    3baf:	45 31 c0             	xor    r8d,r8d
    3bb2:	45 31 c9             	xor    r9d,r9d
    3bb5:	66 66 2e 0f 1f 84 00 	data16 cs nop WORD PTR [rax+rax*1+0x0]
    3bbc:	00 00 00 00 
    3bc0:	45 31 db             	xor    r11d,r11d
    3bc3:	43 80 3c 0e c0       	cmp    BYTE PTR [r14+r9*1],0xc0
    3bc8:	41 0f 9d c3          	setge  r11b
    3bcc:	4d 01 c3             	add    r11,r8
    3bcf:	45 31 c0             	xor    r8d,r8d
    3bd2:	43 80 7c 0e 01 c0    	cmp    BYTE PTR [r14+r9*1+0x1],0xc0
    3bd8:	41 0f 9d c0          	setge  r8b
    3bdc:	45 31 ff             	xor    r15d,r15d
    3bdf:	43 80 7c 0e 02 c0    	cmp    BYTE PTR [r14+r9*1+0x2],0xc0
    3be5:	41 0f 9d c7          	setge  r15b
    3be9:	4d 01 c7             	add    r15,r8
    3bec:	4d 01 df             	add    r15,r11
    3bef:	45 31 c0             	xor    r8d,r8d
    3bf2:	43 80 7c 0e 03 c0    	cmp    BYTE PTR [r14+r9*1+0x3],0xc0
    3bf8:	41 0f 9d c0          	setge  r8b
    3bfc:	4d 01 f8             	add    r8,r15
    3bff:	49 83 c1 04          	add    r9,0x4
    3c03:	4d 39 ca             	cmp    r10,r9
    3c06:	75 b8                	jne    0x3bc0
    3c08:	48 85 c0             	test   rax,rax
    3c0b:	74 2a                	je     0x3c37
    3c0d:	4d 01 f1             	add    r9,r14
    3c10:	45 31 d2             	xor    r10d,r10d
    3c13:	66 66 66 66 2e 0f 1f 	data16 data16 data16 cs nop WORD PTR [rax+rax*1+0x0]
    3c1a:	84 00 00 00 00 00 
    3c20:	45 31 db             	xor    r11d,r11d
    3c23:	43 80 3c 11 c0       	cmp    BYTE PTR [r9+r10*1],0xc0
    3c28:	41 0f 9d c3          	setge  r11b
    3c2c:	4d 01 d8             	add    r8,r11
    3c2f:	49 ff c2             	inc    r10
    3c32:	4c 39 d0             	cmp    rax,r10
    3c35:	75 e9                	jne    0x3c20
    3c37:	48 85 f6             	test   rsi,rsi
    3c3a:	48 89 54 24 10       	mov    QWORD PTR [rsp+0x10],rdx
    3c3f:	0f 84 90 00 00 00    	je     0x3cd5
    3c45:	49 89 c9             	mov    r9,rcx
    3c48:	49 83 e1 f8          	and    r9,0xfffffffffffffff8
    3c4c:	31 c0                	xor    eax,eax
    3c4e:	43 80 3c 0c c0       	cmp    BYTE PTR [r12+r9*1],0xc0
    3c53:	0f 9d c0             	setge  al
    3c56:	83 fe 01             	cmp    esi,0x1
    3c59:	74 7c                	je     0x3cd7
    3c5b:	45 31 d2             	xor    r10d,r10d
    3c5e:	43 80 7c 0c 01 c0    	cmp    BYTE PTR [r12+r9*1+0x1],0xc0
    3c64:	41 0f 9d c2          	setge  r10b
    3c68:	4c 01 d0             	add    rax,r10
    3c6b:	83 fe 02             	cmp    esi,0x2
    3c6e:	74 67                	je     0x3cd7
    3c70:	45 31 d2             	xor    r10d,r10d
    3c73:	43 80 7c 0c 02 c0    	cmp    BYTE PTR [r12+r9*1+0x2],0xc0
    3c79:	41 0f 9d c2          	setge  r10b
    3c7d:	4c 01 d0             	add    rax,r10
    3c80:	83 fe 03             	cmp    esi,0x3
    3c83:	74 52                	je     0x3cd7
    3c85:	45 31 d2             	xor    r10d,r10d
    3c88:	43 80 7c 0c 03 c0    	cmp    BYTE PTR [r12+r9*1+0x3],0xc0
    3c8e:	41 0f 9d c2          	setge  r10b
    3c92:	4c 01 d0             	add    rax,r10
    3c95:	83 fe 04             	cmp    esi,0x4
    3c98:	74 3d                	je     0x3cd7
    3c9a:	45 31 d2             	xor    r10d,r10d
    3c9d:	43 80 7c 0c 04 c0    	cmp    BYTE PTR [r12+r9*1+0x4],0xc0
    3ca3:	41 0f 9d c2          	setge  r10b
    3ca7:	4c 01 d0             	add    rax,r10
    3caa:	83 fe 05             	cmp    esi,0x5
    3cad:	74 28                	je     0x3cd7
    3caf:	45 31 d2             	xor    r10d,r10d
    3cb2:	43 80 7c 0c 05 c0    	cmp    BYTE PTR [r12+r9*1+0x5],0xc0
    3cb8:	41 0f 9d c2          	setge  r10b
    3cbc:	4c 01 d0             	add    rax,r10
    3cbf:	83 fe 06             	cmp    esi,0x6
    3cc2:	74 13                	je     0x3cd7
    3cc4:	31 f6                	xor    esi,esi
    3cc6:	43 80 7c 0c 06 c0    	cmp    BYTE PTR [r12+r9*1+0x6],0xc0
    3ccc:	40 0f 9d c6          	setge  sil
    3cd0:	48 01 f0             	add    rax,rsi
    3cd3:	eb 02                	jmp    0x3cd7
    3cd5:	31 c0                	xor    eax,eax
    3cd7:	4c 01 c0             	add    rax,r8
    3cda:	48 c1 e9 03          	shr    rcx,0x3
    3cde:	49 b9 01 01 01 01 01 	movabs r9,0x101010101010101
    3ce5:	01 01 01 
    3ce8:	49 b8 ff 00 ff 00 ff 	movabs r8,0xff00ff00ff00ff
    3cef:	00 ff 00 
    3cf2:	48 be 01 00 01 00 01 	movabs rsi,0x1000100010001
    3cf9:	00 01 00 
    3cfc:	eb 37                	jmp    0x3d35
    3cfe:	66 90                	xchg   ax,ax
    3d00:	45 31 ed             	xor    r13d,r13d
    3d03:	4f 8d 24 da          	lea    r12,[r10+r11*8]
    3d07:	4c 29 d9             	sub    rcx,r11
    3d0a:	45 89 df             	mov    r15d,r11d
    3d0d:	41 83 e7 03          	and    r15d,0x3
    3d11:	4c 89 eb             	mov    rbx,r13
    3d14:	4c 21 c3             	and    rbx,r8
    3d17:	49 c1 ed 08          	shr    r13,0x8
    3d1b:	4d 21 c5             	and    r13,r8
    3d1e:	49 01 dd             	add    r13,rbx
    3d21:	4c 0f af ee          	imul   r13,rsi
    3d25:	49 c1 ed 30          	shr    r13,0x30
    3d29:	4c 01 e8             	add    rax,r13
    3d2c:	4d 85 ff             	test   r15,r15
    3d2f:	0f 85 e9 00 00 00    	jne    0x3e1e
    3d35:	48 85 c9             	test   rcx,rcx
    3d38:	0f 84 ab 00 00 00    	je     0x3de9
    3d3e:	4d 89 e2             	mov    r10,r12
    3d41:	48 81 f9 c0 00 00 00 	cmp    rcx,0xc0
    3d48:	41 bb c0 00 00 00    	mov    r11d,0xc0
    3d4e:	4c 0f 42 d9          	cmovb  r11,rcx
    3d52:	49 83 fb 04          	cmp    r11,0x4
    3d56:	72 a8                	jb     0x3d00
    3d58:	44 89 da             	mov    edx,r11d
    3d5b:	c1 ea 02             	shr    edx,0x2
    3d5e:	48 c1 e2 05          	shl    rdx,0x5
    3d62:	4c 01 d2             	add    rdx,r10
    3d65:	45 31 ed             	xor    r13d,r13d
    3d68:	4d 89 d7             	mov    r15,r10
    3d6b:	0f 1f 44 00 00       	nop    DWORD PTR [rax+rax*1+0x0]
    3d70:	49 8b 1f             	mov    rbx,QWORD PTR [r15]
    3d73:	49 8b 6f 08          	mov    rbp,QWORD PTR [r15+0x8]
    3d77:	49 89 dc             	mov    r12,rbx
    3d7a:	49 f7 d4             	not    r12
    3d7d:	49 c1 ec 07          	shr    r12,0x7
    3d81:	48 c1 eb 06          	shr    rbx,0x6
    3d85:	4c 09 e3             	or     rbx,r12
    3d88:	4c 21 cb             	and    rbx,r9
    3d8b:	4c 01 eb             	add    rbx,r13
    3d8e:	49 89 ec             	mov    r12,rbp
    3d91:	49 f7 d4             	not    r12
    3d94:	49 c1 ec 07          	shr    r12,0x7
    3d98:	48 c1 ed 06          	shr    rbp,0x6
    3d9c:	4c 09 e5             	or     rbp,r12
    3d9f:	4c 21 cd             	and    rbp,r9
    3da2:	4d 8b 67 10          	mov    r12,QWORD PTR [r15+0x10]
    3da6:	4d 89 e5             	mov    r13,r12
    3da9:	49 f7 d5             	not    r13
    3dac:	49 c1 ed 07          	shr    r13,0x7
    3db0:	49 c1 ec 06          	shr    r12,0x6
    3db4:	4d 09 ec             	or     r12,r13
    3db7:	4d 21 cc             	and    r12,r9
    3dba:	49 01 ec             	add    r12,rbp
    3dbd:	49 01 dc             	add    r12,rbx
    3dc0:	4d 8b 6f 18          	mov    r13,QWORD PTR [r15+0x18]
    3dc4:	4c 89 eb             	mov    rbx,r13
    3dc7:	48 f7 d3             	not    rbx
    3dca:	48 c1 eb 07          	shr    rbx,0x7
    3dce:	49 c1 ed 06          	shr    r13,0x6
    3dd2:	49 09 dd             	or     r13,rbx
    3dd5:	4d 21 cd             	and    r13,r9
    3dd8:	4d 01 e5             	add    r13,r12
    3ddb:	49 83 c7 20          	add    r15,0x20
    3ddf:	49 39 d7             	cmp    r15,rdx
    3de2:	75 8c                	jne    0x3d70
    3de4:	e9 1a ff ff ff       	jmp    0x3d03
    3de9:	48 8b 54 24 10       	mov    rdx,QWORD PTR [rsp+0x10]
    3dee:	4c 8b 64 24 08       	mov    r12,QWORD PTR [rsp+0x8]
    3df3:	49 29 c4             	sub    r12,rax
    3df6:	0f 87 94 fd ff ff    	ja     0x3b90
    3dfc:	48 8b 47 20          	mov    rax,QWORD PTR [rdi+0x20]
    3e00:	48 8b 4f 28          	mov    rcx,QWORD PTR [rdi+0x28]
    3e04:	48 8b 49 18          	mov    rcx,QWORD PTR [rcx+0x18]
    3e08:	48 89 c7             	mov    rdi,rax
    3e0b:	4c 89 f6             	mov    rsi,r14
    3e0e:	48 83 c4 18          	add    rsp,0x18
    3e12:	5b                   	pop    rbx
    3e13:	41 5c                	pop    r12
    3e15:	41 5d                	pop    r13
    3e17:	41 5e                	pop    r14
    3e19:	41 5f                	pop    r15
    3e1b:	5d                   	pop    rbp
    3e1c:	ff e1                	jmp    rcx
    3e1e:	41 81 e3 fc 00 00 00 	and    r11d,0xfc
    3e25:	4b 8b 0c da          	mov    rcx,QWORD PTR [r10+r11*8]
    3e29:	48 89 ca             	mov    rdx,rcx
    3e2c:	48 f7 d2             	not    rdx
    3e2f:	48 c1 ea 07          	shr    rdx,0x7
    3e33:	48 c1 e9 06          	shr    rcx,0x6
    3e37:	48 09 d1             	or     rcx,rdx
    3e3a:	4c 21 c9             	and    rcx,r9
    3e3d:	41 83 ff 01          	cmp    r15d,0x1
    3e41:	74 3e                	je     0x3e81
    3e43:	4b 8b 54 da 08       	mov    rdx,QWORD PTR [r10+r11*8+0x8]
    3e48:	48 89 d3             	mov    rbx,rdx
    3e4b:	48 f7 d3             	not    rbx
    3e4e:	48 c1 eb 07          	shr    rbx,0x7
    3e52:	48 c1 ea 06          	shr    rdx,0x6
    3e56:	48 09 da             	or     rdx,rbx
    3e59:	4c 21 ca             	and    rdx,r9
    3e5c:	48 01 d1             	add    rcx,rdx
    3e5f:	41 83 ff 02          	cmp    r15d,0x2
    3e63:	74 1c                	je     0x3e81
    3e65:	4b 8b 54 da 10       	mov    rdx,QWORD PTR [r10+r11*8+0x10]
    3e6a:	49 89 d2             	mov    r10,rdx
    3e6d:	49 f7 d2             	not    r10
    3e70:	49 c1 ea 07          	shr    r10,0x7
    3e74:	48 c1 ea 06          	shr    rdx,0x6
    3e78:	4c 09 d2             	or     rdx,r10
    3e7b:	4c 21 ca             	and    rdx,r9
    3e7e:	48 01 d1             	add    rcx,rdx
    3e81:	48 8b 54 24 10       	mov    rdx,QWORD PTR [rsp+0x10]
    3e86:	4c 8b 64 24 08       	mov    r12,QWORD PTR [rsp+0x8]
    3e8b:	49 89 c9             	mov    r9,rcx
    3e8e:	4d 21 c1             	and    r9,r8
    3e91:	48 c1 e9 08          	shr    rcx,0x8
    3e95:	4c 21 c1             	and    rcx,r8
    3e98:	4c 01 c9             	add    rcx,r9
    3e9b:	48 0f af ce          	imul   rcx,rsi
    3e9f:	48 c1 e9 30          	shr    rcx,0x30
    3ea3:	48 01 c8             	add    rax,rcx
    3ea6:	49 29 c4             	sub    r12,rax
    3ea9:	0f 87 e1 fc ff ff    	ja     0x3b90
    3eaf:	e9 48 ff ff ff       	jmp    0x3dfc
    3eb4:	48 89 d3             	mov    rbx,rdx
    3eb7:	31 c0                	xor    eax,eax
    3eb9:	eb 0f                	jmp    0x3eca
    3ebb:	48 89 d3             	mov    rbx,rdx
    3ebe:	4c 89 e0             	mov    rax,r12
    3ec1:	49 d1 ec             	shr    r12,1
    3ec4:	48 ff c0             	inc    rax
    3ec7:	48 d1 e8             	shr    rax,1
    3eca:	48 89 44 24 08       	mov    QWORD PTR [rsp+0x8],rax
    3ecf:	4c 8b 7f 20          	mov    r15,QWORD PTR [rdi+0x20]
    3ed3:	4c 8b 6f 28          	mov    r13,QWORD PTR [rdi+0x28]
    3ed7:	8b 6f 30             	mov    ebp,DWORD PTR [rdi+0x30]
    3eda:	49 ff c4             	inc    r12
    3edd:	0f 1f 00             	nop    DWORD PTR [rax]
    3ee0:	4c 89 ff             	mov    rdi,r15
    3ee3:	49 ff cc             	dec    r12
    3ee6:	74 0e                	je     0x3ef6
    3ee8:	89 ee                	mov    esi,ebp
    3eea:	41 ff 55 20          	call   QWORD PTR [r13+0x20]
    3eee:	84 c0                	test   al,al
    3ef0:	74 ee                	je     0x3ee0
    3ef2:	b0 01                	mov    al,0x1
    3ef4:	eb 4f                	jmp    0x3f45
    3ef6:	4c 89 f6             	mov    rsi,r14
    3ef9:	48 89 da             	mov    rdx,rbx
    3efc:	41 ff 55 18          	call   QWORD PTR [r13+0x18]
    3f00:	89 c1                	mov    ecx,eax
    3f02:	b0 01                	mov    al,0x1
    3f04:	84 c9                	test   cl,cl
    3f06:	75 3d                	jne    0x3f45
    3f08:	4c 8b 64 24 08       	mov    r12,QWORD PTR [rsp+0x8]
    3f0d:	4d 89 e6             	mov    r14,r12
    3f10:	49 f7 de             	neg    r14
    3f13:	48 c7 c3 ff ff ff ff 	mov    rbx,0xffffffffffffffff
    3f1a:	66 0f 1f 44 00 00    	nop    WORD PTR [rax+rax*1+0x0]
    3f20:	49 8d 04 1e          	lea    rax,[r14+rbx*1]
    3f24:	48 83 f8 ff          	cmp    rax,0xffffffffffffffff
    3f28:	74 12                	je     0x3f3c
    3f2a:	4c 89 ff             	mov    rdi,r15
    3f2d:	89 ee                	mov    esi,ebp
    3f2f:	41 ff 55 20          	call   QWORD PTR [r13+0x20]
    3f33:	48 ff c3             	inc    rbx
    3f36:	84 c0                	test   al,al
    3f38:	74 e6                	je     0x3f20
    3f3a:	eb 03                	jmp    0x3f3f
    3f3c:	4c 89 e3             	mov    rbx,r12
    3f3f:	4c 39 e3             	cmp    rbx,r12
    3f42:	0f 92 c0             	setb   al
    3f45:	48 83 c4 18          	add    rsp,0x18
    3f49:	5b                   	pop    rbx
    3f4a:	41 5c                	pop    r12
    3f4c:	41 5d                	pop    r13
    3f4e:	41 5e                	pop    r14
    3f50:	41 5f                	pop    r15
    3f52:	5d                   	pop    rbp
    3f53:	c3                   	ret
    3f54:	cc                   	int3
    3f55:	cc                   	int3
    3f56:	cc                   	int3
    3f57:	cc                   	int3
    3f58:	cc                   	int3
    3f59:	cc                   	int3
    3f5a:	cc                   	int3
    3f5b:	cc                   	int3
    3f5c:	cc                   	int3
    3f5d:	cc                   	int3
    3f5e:	cc                   	int3
    3f5f:	cc                   	int3
    3f60:	48 83 ec 48          	sub    rsp,0x48
    3f64:	48 89 7c 24 08       	mov    QWORD PTR [rsp+0x8],rdi
    3f69:	48 89 74 24 10       	mov    QWORD PTR [rsp+0x10],rsi
    3f6e:	48 8d 44 24 08       	lea    rax,[rsp+0x8]
    3f73:	48 89 44 24 18       	mov    QWORD PTR [rsp+0x18],rax
    3f78:	48 c7 44 24 20 01 00 	mov    QWORD PTR [rsp+0x20],0x1
    3f7f:	00 00 
    3f81:	48 c7 44 24 38 00 00 	mov    QWORD PTR [rsp+0x38],0x0
    3f88:	00 00 
    3f8a:	48 c7 44 24 28 68 88 	mov    QWORD PTR [rsp+0x28],0x8868
    3f91:	00 00 
    3f93:	48 c7 44 24 30 00 00 	mov    QWORD PTR [rsp+0x30],0x0
    3f9a:	00 00 
    3f9c:	48 8d 7c 24 18       	lea    rdi,[rsp+0x18]
    3fa1:	48 89 d6             	mov    rsi,rdx
    3fa4:	e8 27 f4 ff ff       	call   0x33d0
    3fa9:	0f 0b                	ud2
    3fab:	cc                   	int3
    3fac:	cc                   	int3
    3fad:	cc                   	int3
    3fae:	cc                   	int3
    3faf:	cc                   	int3
    3fb0:	48 89 f0             	mov    rax,rsi
    3fb3:	48 8b 37             	mov    rsi,QWORD PTR [rdi]
    3fb6:	48 8b 57 08          	mov    rdx,QWORD PTR [rdi+0x8]
    3fba:	48 89 c7             	mov    rdi,rax
    3fbd:	e9 4e f9 ff ff       	jmp    0x3910
    3fc2:	cc                   	int3
    3fc3:	cc                   	int3
    3fc4:	cc                   	int3
    3fc5:	cc                   	int3
    3fc6:	cc                   	int3
    3fc7:	cc                   	int3
    3fc8:	cc                   	int3
    3fc9:	cc                   	int3
    3fca:	cc                   	int3
    3fcb:	cc                   	int3
    3fcc:	cc                   	int3
    3fcd:	cc                   	int3
    3fce:	cc                   	int3
    3fcf:	cc                   	int3
    3fd0:	48 8b 07             	mov    rax,QWORD PTR [rdi]
    3fd3:	48 8b 4f 08          	mov    rcx,QWORD PTR [rdi+0x8]
    3fd7:	48 8b 49 18          	mov    rcx,QWORD PTR [rcx+0x18]
    3fdb:	48 89 c7             	mov    rdi,rax
    3fde:	ff e1                	jmp    rcx
    3fe0:	55                   	push   rbp
    3fe1:	41 57                	push   r15
    3fe3:	41 56                	push   r14
    3fe5:	41 55                	push   r13
    3fe7:	41 54                	push   r12
    3fe9:	53                   	push   rbx
    3fea:	48 83 ec 48          	sub    rsp,0x48
    3fee:	48 c7 44 24 38 20 00 	mov    QWORD PTR [rsp+0x38],0x20
    3ff5:	00 00 
    3ff7:	c6 44 24 40 03       	mov    BYTE PTR [rsp+0x40],0x3
    3ffc:	48 c7 44 24 08 00 00 	mov    QWORD PTR [rsp+0x8],0x0
    4003:	00 00 
    4005:	48 c7 44 24 18 00 00 	mov    QWORD PTR [rsp+0x18],0x0
    400c:	00 00 
    400e:	48 89 7c 24 28       	mov    QWORD PTR [rsp+0x28],rdi
    4013:	48 89 74 24 30       	mov    QWORD PTR [rsp+0x30],rsi
    4018:	4c 8b 62 20          	mov    r12,QWORD PTR [rdx+0x20]
    401c:	4d 85 e4             	test   r12,r12
    401f:	48 89 14 24          	mov    QWORD PTR [rsp],rdx
    4023:	0f 84 1b 01 00 00    	je     0x4144
    4029:	48 8b 42 28          	mov    rax,QWORD PTR [rdx+0x28]
    402d:	48 85 c0             	test   rax,rax
    4030:	0f 84 70 01 00 00    	je     0x41a6
    4036:	4c 8b 2a             	mov    r13,QWORD PTR [rdx]
    4039:	48 8b 6a 10          	mov    rbp,QWORD PTR [rdx+0x10]
    403d:	49 83 c5 08          	add    r13,0x8
    4041:	4c 6b f0 38          	imul   r14,rax,0x38
    4045:	31 db                	xor    ebx,ebx
    4047:	45 31 ff             	xor    r15d,r15d
    404a:	66 0f 1f 44 00 00    	nop    WORD PTR [rax+rax*1+0x0]
    4050:	49 8b 55 00          	mov    rdx,QWORD PTR [r13+0x0]
    4054:	48 85 d2             	test   rdx,rdx
    4057:	74 19                	je     0x4072
    4059:	48 8b 7c 24 28       	mov    rdi,QWORD PTR [rsp+0x28]
    405e:	48 8b 44 24 30       	mov    rax,QWORD PTR [rsp+0x30]
    4063:	49 8b 75 f8          	mov    rsi,QWORD PTR [r13-0x8]
    4067:	ff 50 18             	call   QWORD PTR [rax+0x18]
    406a:	84 c0                	test   al,al
    406c:	0f 85 75 01 00 00    	jne    0x41e7
    4072:	41 8b 44 1c 28       	mov    eax,DWORD PTR [r12+rbx*1+0x28]
    4077:	89 44 24 38          	mov    DWORD PTR [rsp+0x38],eax
    407b:	41 0f b6 44 1c 30    	movzx  eax,BYTE PTR [r12+rbx*1+0x30]
    4081:	88 44 24 40          	mov    BYTE PTR [rsp+0x40],al
    4085:	41 8b 44 1c 2c       	mov    eax,DWORD PTR [r12+rbx*1+0x2c]
    408a:	89 44 24 3c          	mov    DWORD PTR [rsp+0x3c],eax
    408e:	49 8b 4c 1c 10       	mov    rcx,QWORD PTR [r12+rbx*1+0x10]
    4093:	49 8b 44 1c 18       	mov    rax,QWORD PTR [r12+rbx*1+0x18]
    4098:	48 85 c9             	test   rcx,rcx
    409b:	74 23                	je     0x40c0
    409d:	83 f9 01             	cmp    ecx,0x1
    40a0:	75 12                	jne    0x40b4
    40a2:	48 c1 e0 04          	shl    rax,0x4
    40a6:	48 c7 c1 b0 33 00 00 	mov    rcx,0x33b0
    40ad:	48 39 4c 05 08       	cmp    QWORD PTR [rbp+rax*1+0x8],rcx
    40b2:	74 04                	je     0x40b8
    40b4:	31 c9                	xor    ecx,ecx
    40b6:	eb 0d                	jmp    0x40c5
    40b8:	48 8b 44 05 00       	mov    rax,QWORD PTR [rbp+rax*1+0x0]
    40bd:	48 8b 00             	mov    rax,QWORD PTR [rax]
    40c0:	b9 01 00 00 00       	mov    ecx,0x1
    40c5:	48 89 4c 24 08       	mov    QWORD PTR [rsp+0x8],rcx
    40ca:	48 89 44 24 10       	mov    QWORD PTR [rsp+0x10],rax
    40cf:	49 8b 0c 1c          	mov    rcx,QWORD PTR [r12+rbx*1]
    40d3:	49 8b 44 1c 08       	mov    rax,QWORD PTR [r12+rbx*1+0x8]
    40d8:	48 85 c9             	test   rcx,rcx
    40db:	74 23                	je     0x4100
    40dd:	83 f9 01             	cmp    ecx,0x1
    40e0:	75 12                	jne    0x40f4
    40e2:	48 c1 e0 04          	shl    rax,0x4
    40e6:	48 c7 c1 b0 33 00 00 	mov    rcx,0x33b0
    40ed:	48 39 4c 05 08       	cmp    QWORD PTR [rbp+rax*1+0x8],rcx
    40f2:	74 04                	je     0x40f8
    40f4:	31 c9                	xor    ecx,ecx
    40f6:	eb 0d                	jmp    0x4105
    40f8:	48 8b 44 05 00       	mov    rax,QWORD PTR [rbp+rax*1+0x0]
    40fd:	48 8b 00             	mov    rax,QWORD PTR [rax]
    4100:	b9 01 00 00 00       	mov    ecx,0x1
    4105:	48 89 4c 24 18       	mov    QWORD PTR [rsp+0x18],rcx
    410a:	48 89 44 24 20       	mov    QWORD PTR [rsp+0x20],rax
    410f:	49 8b 44 1c 20       	mov    rax,QWORD PTR [r12+rbx*1+0x20]
    4114:	48 c1 e0 04          	shl    rax,0x4
    4118:	48 8b 7c 05 00       	mov    rdi,QWORD PTR [rbp+rax*1+0x0]
    411d:	48 8d 74 24 08       	lea    rsi,[rsp+0x8]
    4122:	ff 54 05 08          	call   QWORD PTR [rbp+rax*1+0x8]
    4126:	84 c0                	test   al,al
    4128:	0f 85 b9 00 00 00    	jne    0x41e7
    412e:	49 83 c5 10          	add    r13,0x10
    4132:	48 83 c3 38          	add    rbx,0x38
    4136:	49 ff c7             	inc    r15
    4139:	49 39 de             	cmp    r14,rbx
    413c:	0f 85 0e ff ff ff    	jne    0x4050
    4142:	eb 65                	jmp    0x41a9
    4144:	48 8b 5a 18          	mov    rbx,QWORD PTR [rdx+0x18]
    4148:	48 85 db             	test   rbx,rbx
    414b:	74 68                	je     0x41b5
    414d:	4c 8b 62 10          	mov    r12,QWORD PTR [rdx+0x10]
    4151:	48 c1 e3 04          	shl    rbx,0x4
    4155:	4c 01 e3             	add    rbx,r12
    4158:	4c 8b 2a             	mov    r13,QWORD PTR [rdx]
    415b:	31 ed                	xor    ebp,ebp
    415d:	45 31 ff             	xor    r15d,r15d
    4160:	49 8b 54 2d 08       	mov    rdx,QWORD PTR [r13+rbp*1+0x8]
    4165:	48 85 d2             	test   rdx,rdx
    4168:	74 16                	je     0x4180
    416a:	48 8b 7c 24 28       	mov    rdi,QWORD PTR [rsp+0x28]
    416f:	48 8b 44 24 30       	mov    rax,QWORD PTR [rsp+0x30]
    4174:	49 8b 74 2d 00       	mov    rsi,QWORD PTR [r13+rbp*1+0x0]
    4179:	ff 50 18             	call   QWORD PTR [rax+0x18]
    417c:	84 c0                	test   al,al
    417e:	75 67                	jne    0x41e7
    4180:	4d 8d 34 2c          	lea    r14,[r12+rbp*1]
    4184:	49 8b 3e             	mov    rdi,QWORD PTR [r14]
    4187:	48 8d 74 24 08       	lea    rsi,[rsp+0x8]
    418c:	41 ff 56 08          	call   QWORD PTR [r14+0x8]
    4190:	84 c0                	test   al,al
    4192:	75 53                	jne    0x41e7
    4194:	48 83 c5 10          	add    rbp,0x10
    4198:	49 83 c6 10          	add    r14,0x10
    419c:	49 ff c7             	inc    r15
    419f:	49 39 de             	cmp    r14,rbx
    41a2:	75 bc                	jne    0x4160
    41a4:	eb 03                	jmp    0x41a9
    41a6:	45 31 ff             	xor    r15d,r15d
    41a9:	48 8b 04 24          	mov    rax,QWORD PTR [rsp]
    41ad:	4c 3b 78 08          	cmp    r15,QWORD PTR [rax+0x8]
    41b1:	72 0f                	jb     0x41c2
    41b3:	eb 36                	jmp    0x41eb
    41b5:	45 31 ff             	xor    r15d,r15d
    41b8:	48 8b 04 24          	mov    rax,QWORD PTR [rsp]
    41bc:	4c 3b 78 08          	cmp    r15,QWORD PTR [rax+0x8]
    41c0:	73 29                	jae    0x41eb
    41c2:	48 8b 04 24          	mov    rax,QWORD PTR [rsp]
    41c6:	48 8b 00             	mov    rax,QWORD PTR [rax]
    41c9:	49 c1 e7 04          	shl    r15,0x4
    41cd:	48 8b 7c 24 28       	mov    rdi,QWORD PTR [rsp+0x28]
    41d2:	48 8b 4c 24 30       	mov    rcx,QWORD PTR [rsp+0x30]
    41d7:	4a 8b 34 38          	mov    rsi,QWORD PTR [rax+r15*1]
    41db:	4a 8b 54 38 08       	mov    rdx,QWORD PTR [rax+r15*1+0x8]
    41e0:	ff 51 18             	call   QWORD PTR [rcx+0x18]
    41e3:	84 c0                	test   al,al
    41e5:	74 04                	je     0x41eb
    41e7:	b0 01                	mov    al,0x1
    41e9:	eb 02                	jmp    0x41ed
    41eb:	31 c0                	xor    eax,eax
    41ed:	48 83 c4 48          	add    rsp,0x48
    41f1:	5b                   	pop    rbx
    41f2:	41 5c                	pop    r12
    41f4:	41 5d                	pop    r13
    41f6:	41 5e                	pop    r14
    41f8:	41 5f                	pop    r15
    41fa:	5d                   	pop    rbp
    41fb:	c3                   	ret
    41fc:	cc                   	int3
    41fd:	cc                   	int3
    41fe:	cc                   	int3
    41ff:	cc                   	int3
    4200:	48 81 ec 88 00 00 00 	sub    rsp,0x88
    4207:	48 89 f9             	mov    rcx,rdi
    420a:	8b 46 34             	mov    eax,DWORD PTR [rsi+0x34]
    420d:	a8 10                	test   al,0x10
    420f:	0f 85 d2 00 00 00    	jne    0x42e7
    4215:	a8 20                	test   al,0x20
    4217:	0f 85 13 01 00 00    	jne    0x4330
    421d:	b8 27 00 00 00       	mov    eax,0x27
    4222:	48 81 f9 10 27 00 00 	cmp    rcx,0x2710
    4229:	0f 82 79 01 00 00    	jb     0x43a8
    422f:	41 b8 27 00 00 00    	mov    r8d,0x27
    4235:	48 bf 4b 59 86 38 d6 	movabs rdi,0x346dc5d63886594b
    423c:	c5 6d 34 
    423f:	90                   	nop
    4240:	48 89 c8             	mov    rax,rcx
    4243:	48 f7 e7             	mul    rdi
    4246:	48 c1 ea 0b          	shr    rdx,0xb
    424a:	69 c2 10 27 00 00    	imul   eax,edx,0x2710
    4250:	41 89 c9             	mov    r9d,ecx
    4253:	41 29 c1             	sub    r9d,eax
    4256:	45 69 d1 7b 14 00 00 	imul   r10d,r9d,0x147b
    425d:	41 c1 ea 13          	shr    r10d,0x13
    4261:	41 6b c2 64          	imul   eax,r10d,0x64
    4265:	41 29 c1             	sub    r9d,eax
    4268:	45 0f b7 c9          	movzx  r9d,r9w
    426c:	49 8d 40 fc          	lea    rax,[r8-0x4]
    4270:	47 0f b7 94 12 20 7a 	movzx  r10d,WORD PTR [r10+r10*1+0x7a20]
    4277:	00 00 
    4279:	66 46 89 54 04 04    	mov    WORD PTR [rsp+r8*1+0x4],r10w
    427f:	47 0f b7 8c 09 20 7a 	movzx  r9d,WORD PTR [r9+r9*1+0x7a20]
    4286:	00 00 
    4288:	66 46 89 4c 04 06    	mov    WORD PTR [rsp+r8*1+0x6],r9w
    428e:	49 89 c0             	mov    r8,rax
    4291:	48 81 f9 ff e0 f5 05 	cmp    rcx,0x5f5e0ff
    4298:	48 89 d1             	mov    rcx,rdx
    429b:	77 a3                	ja     0x4240
    429d:	48 83 fa 63          	cmp    rdx,0x63
    42a1:	76 2b                	jbe    0x42ce
    42a3:	0f b7 ca             	movzx  ecx,dx
    42a6:	c1 e9 02             	shr    ecx,0x2
    42a9:	69 c9 7b 14 00 00    	imul   ecx,ecx,0x147b
    42af:	c1 e9 11             	shr    ecx,0x11
    42b2:	6b f9 64             	imul   edi,ecx,0x64
    42b5:	29 fa                	sub    edx,edi
    42b7:	0f b7 d2             	movzx  edx,dx
    42ba:	0f b7 94 12 20 7a 00 	movzx  edx,WORD PTR [rdx+rdx*1+0x7a20]
    42c1:	00 
    42c2:	66 89 54 04 06       	mov    WORD PTR [rsp+rax*1+0x6],dx
    42c7:	48 83 c0 fe          	add    rax,0xfffffffffffffffe
    42cb:	48 89 ca             	mov    rdx,rcx
    42ce:	48 83 fa 0a          	cmp    rdx,0xa
    42d2:	0f 83 e2 00 00 00    	jae    0x43ba
    42d8:	80 c2 30             	add    dl,0x30
    42db:	88 54 04 07          	mov    BYTE PTR [rsp+rax*1+0x7],dl
    42df:	48 ff c8             	dec    rax
    42e2:	e9 e4 00 00 00       	jmp    0x43cb
    42e7:	ba 81 00 00 00       	mov    edx,0x81
    42ec:	b8 30 00 00 00       	mov    eax,0x30
    42f1:	49 89 c8             	mov    r8,rcx
    42f4:	66 66 66 2e 0f 1f 84 	data16 data16 cs nop WORD PTR [rax+rax*1+0x0]
    42fb:	00 00 00 00 00 
    4300:	48 89 d7             	mov    rdi,rdx
    4303:	49 c1 e8 04          	shr    r8,0x4
    4307:	89 ca                	mov    edx,ecx
    4309:	80 e2 0f             	and    dl,0xf
    430c:	80 fa 0a             	cmp    dl,0xa
    430f:	41 b9 57 00 00 00    	mov    r9d,0x57
    4315:	44 0f 42 c8          	cmovb  r9d,eax
    4319:	41 00 d1             	add    r9b,dl
    431c:	44 88 4c 3c 06       	mov    BYTE PTR [rsp+rdi*1+0x6],r9b
    4321:	48 8d 57 ff          	lea    rdx,[rdi-0x1]
    4325:	48 83 f9 10          	cmp    rcx,0x10
    4329:	4c 89 c1             	mov    rcx,r8
    432c:	73 d2                	jae    0x4300
    432e:	eb 3e                	jmp    0x436e
    4330:	ba 81 00 00 00       	mov    edx,0x81
    4335:	b8 30 00 00 00       	mov    eax,0x30
    433a:	49 89 c8             	mov    r8,rcx
    433d:	0f 1f 00             	nop    DWORD PTR [rax]
    4340:	48 89 d7             	mov    rdi,rdx
    4343:	49 c1 e8 04          	shr    r8,0x4
    4347:	89 ca                	mov    edx,ecx
    4349:	80 e2 0f             	and    dl,0xf
    434c:	80 fa 0a             	cmp    dl,0xa
    434f:	41 b9 37 00 00 00    	mov    r9d,0x37
    4355:	44 0f 42 c8          	cmovb  r9d,eax
    4359:	41 00 d1             	add    r9b,dl
    435c:	44 88 4c 3c 06       	mov    BYTE PTR [rsp+rdi*1+0x6],r9b
    4361:	48 8d 57 ff          	lea    rdx,[rdi-0x1]
    4365:	48 83 f9 10          	cmp    rcx,0x10
    4369:	4c 89 c1             	mov    rcx,r8
    436c:	73 d2                	jae    0x4340
    436e:	48 83 c7 fe          	add    rdi,0xfffffffffffffffe
    4372:	48 81 ff 80 00 00 00 	cmp    rdi,0x80
    4379:	77 7a                	ja     0x43f5
    437b:	41 b8 81 00 00 00    	mov    r8d,0x81
    4381:	49 29 d0             	sub    r8,rdx
    4384:	48 8d 0c 3c          	lea    rcx,[rsp+rdi*1]
    4388:	48 83 c1 08          	add    rcx,0x8
    438c:	ba 02 00 00 00       	mov    edx,0x2
    4391:	48 89 f7             	mov    rdi,rsi
    4394:	48 c7 c6 b0 89 00 00 	mov    rsi,0x89b0
    439b:	e8 80 f1 ff ff       	call   0x3520
    43a0:	48 81 c4 88 00 00 00 	add    rsp,0x88
    43a7:	c3                   	ret
    43a8:	48 89 ca             	mov    rdx,rcx
    43ab:	48 83 fa 63          	cmp    rdx,0x63
    43af:	0f 87 ee fe ff ff    	ja     0x42a3
    43b5:	e9 14 ff ff ff       	jmp    0x42ce
    43ba:	0f b7 8c 12 20 7a 00 	movzx  ecx,WORD PTR [rdx+rdx*1+0x7a20]
    43c1:	00 
    43c2:	66 89 4c 04 06       	mov    WORD PTR [rsp+rax*1+0x6],cx
    43c7:	48 83 c0 fe          	add    rax,0xfffffffffffffffe
    43cb:	48 8d 0c 04          	lea    rcx,[rsp+rax*1]
    43cf:	48 83 c1 08          	add    rcx,0x8
    43d3:	41 b8 27 00 00 00    	mov    r8d,0x27
    43d9:	49 29 c0             	sub    r8,rax
    43dc:	48 89 f7             	mov    rdi,rsi
    43df:	48 c7 c6 68 88 00 00 	mov    rsi,0x8868
    43e6:	31 d2                	xor    edx,edx
    43e8:	e8 33 f1 ff ff       	call   0x3520
    43ed:	48 81 c4 88 00 00 00 	add    rsp,0x88
    43f4:	c3                   	ret
    43f5:	e8 26 f0 ff ff       	call   0x3420
    43fa:	0f 0b                	ud2
    43fc:	cc                   	int3
    43fd:	cc                   	int3
    43fe:	cc                   	int3
    43ff:	cc                   	int3
    4400:	48 83 ec 68          	sub    rsp,0x68
    4404:	48 89 7c 24 08       	mov    QWORD PTR [rsp+0x8],rdi
    4409:	48 89 74 24 10       	mov    QWORD PTR [rsp+0x10],rsi
    440e:	48 8d 44 24 08       	lea    rax,[rsp+0x8]
    4413:	48 89 44 24 18       	mov    QWORD PTR [rsp+0x18],rax
    4418:	48 c7 44 24 20 20 59 	mov    QWORD PTR [rsp+0x20],0x5920
    441f:	00 00 
    4421:	48 8d 44 24 10       	lea    rax,[rsp+0x10]
    4426:	48 89 44 24 28       	mov    QWORD PTR [rsp+0x28],rax
    442b:	48 c7 44 24 30 20 59 	mov    QWORD PTR [rsp+0x30],0x5920
    4432:	00 00 
    4434:	48 c7 44 24 38 c0 7b 	mov    QWORD PTR [rsp+0x38],0x7bc0
    443b:	00 00 
    443d:	48 c7 44 24 40 02 00 	mov    QWORD PTR [rsp+0x40],0x2
    4444:	00 00 
    4446:	48 c7 44 24 58 00 00 	mov    QWORD PTR [rsp+0x58],0x0
    444d:	00 00 
    444f:	48 8d 44 24 18       	lea    rax,[rsp+0x18]
    4454:	48 89 44 24 48       	mov    QWORD PTR [rsp+0x48],rax
    4459:	48 c7 44 24 50 02 00 	mov    QWORD PTR [rsp+0x50],0x2
    4460:	00 00 
    4462:	48 8d 7c 24 38       	lea    rdi,[rsp+0x38]
    4467:	48 89 d6             	mov    rsi,rdx
    446a:	e8 61 ef ff ff       	call   0x33d0
    446f:	0f 0b                	ud2
    4471:	cc                   	int3
    4472:	cc                   	int3
    4473:	cc                   	int3
    4474:	cc                   	int3
    4475:	cc                   	int3
    4476:	cc                   	int3
    4477:	cc                   	int3
    4478:	cc                   	int3
    4479:	cc                   	int3
    447a:	cc                   	int3
    447b:	cc                   	int3
    447c:	cc                   	int3
    447d:	cc                   	int3
    447e:	cc                   	int3
    447f:	cc                   	int3
    4480:	55                   	push   rbp
    4481:	41 57                	push   r15
    4483:	41 56                	push   r14
    4485:	41 55                	push   r13
    4487:	41 54                	push   r12
    4489:	53                   	push   rbx
    448a:	48 83 ec 68          	sub    rsp,0x68
    448e:	48 89 fb             	mov    rbx,rdi
    4491:	41 b6 01             	mov    r14b,0x1
    4494:	80 7f 08 00          	cmp    BYTE PTR [rdi+0x8],0x0
    4498:	74 1a                	je     0x44b4
    449a:	44 88 73 08          	mov    BYTE PTR [rbx+0x8],r14b
    449e:	c6 43 09 01          	mov    BYTE PTR [rbx+0x9],0x1
    44a2:	48 89 d8             	mov    rax,rbx
    44a5:	48 83 c4 68          	add    rsp,0x68
    44a9:	5b                   	pop    rbx
    44aa:	41 5c                	pop    r12
    44ac:	41 5d                	pop    r13
    44ae:	41 5e                	pop    r14
    44b0:	41 5f                	pop    r15
    44b2:	5d                   	pop    rbp
    44b3:	c3                   	ret
    44b4:	49 89 cf             	mov    r15,rcx
    44b7:	49 89 d5             	mov    r13,rdx
    44ba:	48 89 f5             	mov    rbp,rsi
    44bd:	4c 8b 23             	mov    r12,QWORD PTR [rbx]
    44c0:	41 8b 44 24 34       	mov    eax,DWORD PTR [r12+0x34]
    44c5:	0f b6 4b 09          	movzx  ecx,BYTE PTR [rbx+0x9]
    44c9:	a8 04                	test   al,0x4
    44cb:	4c 89 44 24 08       	mov    QWORD PTR [rsp+0x8],r8
    44d0:	75 7b                	jne    0x454d
    44d2:	31 d2                	xor    edx,edx
    44d4:	84 c9                	test   cl,cl
    44d6:	48 c7 c0 78 79 00 00 	mov    rax,0x7978
    44dd:	48 c7 c6 7b 79 00 00 	mov    rsi,0x797b
    44e4:	48 0f 44 f0          	cmove  rsi,rax
    44e8:	0f 94 c2             	sete   dl
    44eb:	48 83 ca 02          	or     rdx,0x2
    44ef:	49 8b 7c 24 20       	mov    rdi,QWORD PTR [r12+0x20]
    44f4:	49 8b 44 24 28       	mov    rax,QWORD PTR [r12+0x28]
    44f9:	ff 50 18             	call   QWORD PTR [rax+0x18]
    44fc:	41 b6 01             	mov    r14b,0x1
    44ff:	84 c0                	test   al,al
    4501:	75 97                	jne    0x449a
    4503:	49 8b 7c 24 20       	mov    rdi,QWORD PTR [r12+0x20]
    4508:	49 8b 44 24 28       	mov    rax,QWORD PTR [r12+0x28]
    450d:	48 89 ee             	mov    rsi,rbp
    4510:	4c 89 ea             	mov    rdx,r13
    4513:	ff 50 18             	call   QWORD PTR [rax+0x18]
    4516:	84 c0                	test   al,al
    4518:	75 80                	jne    0x449a
    451a:	49 8b 7c 24 20       	mov    rdi,QWORD PTR [r12+0x20]
    451f:	49 8b 44 24 28       	mov    rax,QWORD PTR [r12+0x28]
    4524:	ba 02 00 00 00       	mov    edx,0x2
    4529:	48 c7 c6 20 79 00 00 	mov    rsi,0x7920
    4530:	ff 50 18             	call   QWORD PTR [rax+0x18]
    4533:	84 c0                	test   al,al
    4535:	0f 85 5f ff ff ff    	jne    0x449a
    453b:	4c 89 ff             	mov    rdi,r15
    453e:	4c 89 e6             	mov    rsi,r12
    4541:	ff 54 24 08          	call   QWORD PTR [rsp+0x8]
    4545:	41 89 c6             	mov    r14d,eax
    4548:	e9 4d ff ff ff       	jmp    0x449a
    454d:	84 c9                	test   cl,cl
    454f:	75 29                	jne    0x457a
    4551:	49 8b 7c 24 20       	mov    rdi,QWORD PTR [r12+0x20]
    4556:	49 8b 44 24 28       	mov    rax,QWORD PTR [r12+0x28]
    455b:	ba 03 00 00 00       	mov    edx,0x3
    4560:	48 c7 c6 7d 79 00 00 	mov    rsi,0x797d
    4567:	ff 50 18             	call   QWORD PTR [rax+0x18]
    456a:	41 b6 01             	mov    r14b,0x1
    456d:	84 c0                	test   al,al
    456f:	0f 85 25 ff ff ff    	jne    0x449a
    4575:	41 8b 44 24 34       	mov    eax,DWORD PTR [r12+0x34]
    457a:	c6 44 24 07 01       	mov    BYTE PTR [rsp+0x7],0x1
    457f:	49 8b 4c 24 20       	mov    rcx,QWORD PTR [r12+0x20]
    4584:	49 8b 54 24 28       	mov    rdx,QWORD PTR [r12+0x28]
    4589:	48 89 4c 24 10       	mov    QWORD PTR [rsp+0x10],rcx
    458e:	48 89 54 24 18       	mov    QWORD PTR [rsp+0x18],rdx
    4593:	48 8d 4c 24 07       	lea    rcx,[rsp+0x7]
    4598:	48 89 4c 24 20       	mov    QWORD PTR [rsp+0x20],rcx
    459d:	41 8b 4c 24 30       	mov    ecx,DWORD PTR [r12+0x30]
    45a2:	41 0f b6 54 24 38    	movzx  edx,BYTE PTR [r12+0x38]
    45a8:	49 8b 34 24          	mov    rsi,QWORD PTR [r12]
    45ac:	49 8b 7c 24 08       	mov    rdi,QWORD PTR [r12+0x8]
    45b1:	4d 8b 44 24 10       	mov    r8,QWORD PTR [r12+0x10]
    45b6:	4d 8b 4c 24 18       	mov    r9,QWORD PTR [r12+0x18]
    45bb:	89 44 24 5c          	mov    DWORD PTR [rsp+0x5c],eax
    45bf:	89 4c 24 58          	mov    DWORD PTR [rsp+0x58],ecx
    45c3:	88 54 24 60          	mov    BYTE PTR [rsp+0x60],dl
    45c7:	48 89 74 24 28       	mov    QWORD PTR [rsp+0x28],rsi
    45cc:	48 89 7c 24 30       	mov    QWORD PTR [rsp+0x30],rdi
    45d1:	4c 89 44 24 38       	mov    QWORD PTR [rsp+0x38],r8
    45d6:	4c 89 4c 24 40       	mov    QWORD PTR [rsp+0x40],r9
    45db:	48 8d 7c 24 10       	lea    rdi,[rsp+0x10]
    45e0:	48 89 7c 24 48       	mov    QWORD PTR [rsp+0x48],rdi
    45e5:	48 c7 44 24 50 48 79 	mov    QWORD PTR [rsp+0x50],0x7948
    45ec:	00 00 
    45ee:	48 89 ee             	mov    rsi,rbp
    45f1:	4c 89 ea             	mov    rdx,r13
    45f4:	e8 57 00 00 00       	call   0x4650
    45f9:	84 c0                	test   al,al
    45fb:	75 2a                	jne    0x4627
    45fd:	48 8d 7c 24 10       	lea    rdi,[rsp+0x10]
    4602:	ba 02 00 00 00       	mov    edx,0x2
    4607:	48 c7 c6 20 79 00 00 	mov    rsi,0x7920
    460e:	e8 3d 00 00 00       	call   0x4650
    4613:	84 c0                	test   al,al
    4615:	75 10                	jne    0x4627
    4617:	48 8d 74 24 28       	lea    rsi,[rsp+0x28]
    461c:	4c 89 ff             	mov    rdi,r15
    461f:	ff 54 24 08          	call   QWORD PTR [rsp+0x8]
    4623:	84 c0                	test   al,al
    4625:	74 08                	je     0x462f
    4627:	41 b6 01             	mov    r14b,0x1
    462a:	e9 6b fe ff ff       	jmp    0x449a
    462f:	48 8b 7c 24 48       	mov    rdi,QWORD PTR [rsp+0x48]
    4634:	48 8b 44 24 50       	mov    rax,QWORD PTR [rsp+0x50]
    4639:	ba 02 00 00 00       	mov    edx,0x2
    463e:	48 c7 c6 80 79 00 00 	mov    rsi,0x7980
    4645:	ff 50 18             	call   QWORD PTR [rax+0x18]
    4648:	41 89 c6             	mov    r14d,eax
    464b:	e9 4a fe ff ff       	jmp    0x449a
    4650:	55                   	push   rbp
    4651:	41 57                	push   r15
    4653:	41 56                	push   r14
    4655:	41 55                	push   r13
    4657:	41 54                	push   r12
    4659:	53                   	push   rbx
    465a:	48 83 ec 48          	sub    rsp,0x48
    465e:	48 bb ff fe fe fe fe 	movabs rbx,0xfefefefefefefeff
    4665:	fe fe fe 
    4668:	49 bd 0a 0a 0a 0a 0a 	movabs r13,0xa0a0a0a0a0a0a0a
    466f:	0a 0a 0a 
    4672:	48 8b 47 10          	mov    rax,QWORD PTR [rdi+0x10]
    4676:	48 89 44 24 28       	mov    QWORD PTR [rsp+0x28],rax
    467b:	48 8b 07             	mov    rax,QWORD PTR [rdi]
    467e:	48 89 44 24 20       	mov    QWORD PTR [rsp+0x20],rax
    4683:	48 8b 47 08          	mov    rax,QWORD PTR [rdi+0x8]
    4687:	48 89 44 24 18       	mov    QWORD PTR [rsp+0x18],rax
    468c:	48 89 74 24 08       	mov    QWORD PTR [rsp+0x8],rsi
    4691:	48 8d 46 08          	lea    rax,[rsi+0x8]
    4695:	48 89 44 24 30       	mov    QWORD PTR [rsp+0x30],rax
    469a:	31 ed                	xor    ebp,ebp
    469c:	49 bf 80 80 80 80 80 	movabs r15,0x8080808080808080
    46a3:	80 80 80 
    46a6:	31 ff                	xor    edi,edi
    46a8:	31 c0                	xor    eax,eax
    46aa:	48 89 54 24 38       	mov    QWORD PTR [rsp+0x38],rdx
    46af:	eb 48                	jmp    0x46f9
    46b1:	66 66 66 66 66 66 2e 	data16 data16 data16 data16 data16 cs nop WORD PTR [rax+rax*1+0x0]
    46b8:	0f 1f 84 00 00 00 00 
    46bf:	00 
    46c0:	80 7c 32 ff 0a       	cmp    BYTE PTR [rdx+rsi*1-0x1],0xa
    46c5:	0f 94 c0             	sete   al
    46c8:	4c 89 eb             	mov    rbx,r13
    46cb:	48 8b 4c 24 28       	mov    rcx,QWORD PTR [rsp+0x28]
    46d0:	88 01                	mov    BYTE PTR [rcx],al
    46d2:	48 8b 7c 24 20       	mov    rdi,QWORD PTR [rsp+0x20]
    46d7:	48 8b 44 24 18       	mov    rax,QWORD PTR [rsp+0x18]
    46dc:	ff 50 18             	call   QWORD PTR [rax+0x18]
    46df:	4c 89 f7             	mov    rdi,r14
    46e2:	84 c0                	test   al,al
    46e4:	48 8b 54 24 38       	mov    rdx,QWORD PTR [rsp+0x38]
    46e9:	4d 89 fd             	mov    r13,r15
    46ec:	4d 89 e7             	mov    r15,r12
    46ef:	8b 44 24 14          	mov    eax,DWORD PTR [rsp+0x14]
    46f3:	0f 85 f3 01 00 00    	jne    0x48ec
    46f9:	84 c0                	test   al,al
    46fb:	0f 85 e7 01 00 00    	jne    0x48e8
    4701:	48 39 d5             	cmp    rbp,rdx
    4704:	76 16                	jbe    0x471c
    4706:	49 89 ee             	mov    r14,rbp
    4709:	e9 65 01 00 00       	jmp    0x4873
    470e:	66 90                	xchg   ax,ax
    4710:	4c 89 f5             	mov    rbp,r14
    4713:	49 39 d6             	cmp    r14,rdx
    4716:	0f 87 57 01 00 00    	ja     0x4873
    471c:	48 89 d1             	mov    rcx,rdx
    471f:	48 29 e9             	sub    rcx,rbp
    4722:	48 8b 44 24 08       	mov    rax,QWORD PTR [rsp+0x8]
    4727:	48 01 e8             	add    rax,rbp
    472a:	48 83 f9 10          	cmp    rcx,0x10
    472e:	73 30                	jae    0x4760
    4730:	48 39 ea             	cmp    rdx,rbp
    4733:	0f 84 37 01 00 00    	je     0x4870
    4739:	31 f6                	xor    esi,esi
    473b:	0f 1f 44 00 00       	nop    DWORD PTR [rax+rax*1+0x0]
    4740:	80 3c 30 0a          	cmp    BYTE PTR [rax+rsi*1],0xa
    4744:	0f 84 e9 00 00 00    	je     0x4833
    474a:	48 ff c6             	inc    rsi
    474d:	48 39 f1             	cmp    rcx,rsi
    4750:	75 ee                	jne    0x4740
    4752:	e9 19 01 00 00       	jmp    0x4870
    4757:	66 0f 1f 84 00 00 00 	nop    WORD PTR [rax+rax*1+0x0]
    475e:	00 00 
    4760:	4c 8d 58 07          	lea    r11,[rax+0x7]
    4764:	49 83 e3 f8          	and    r11,0xfffffffffffffff8
    4768:	49 29 c3             	sub    r11,rax
    476b:	74 33                	je     0x47a0
    476d:	74 31                	je     0x47a0
    476f:	31 f6                	xor    esi,esi
    4771:	66 66 66 66 66 66 2e 	data16 data16 data16 data16 data16 cs nop WORD PTR [rax+rax*1+0x0]
    4778:	0f 1f 84 00 00 00 00 
    477f:	00 
    4780:	80 3c 30 0a          	cmp    BYTE PTR [rax+rsi*1],0xa
    4784:	0f 84 a9 00 00 00    	je     0x4833
    478a:	48 ff c6             	inc    rsi
    478d:	49 39 f3             	cmp    r11,rsi
    4790:	75 ee                	jne    0x4780
    4792:	49 89 fc             	mov    r12,rdi
    4795:	48 8d 71 f0          	lea    rsi,[rcx-0x10]
    4799:	49 39 f3             	cmp    r11,rsi
    479c:	76 0c                	jbe    0x47aa
    479e:	eb 58                	jmp    0x47f8
    47a0:	49 89 fc             	mov    r12,rdi
    47a3:	48 8d 71 f0          	lea    rsi,[rcx-0x10]
    47a7:	45 31 db             	xor    r11d,r11d
    47aa:	48 8b 7c 24 30       	mov    rdi,QWORD PTR [rsp+0x30]
    47af:	48 01 ef             	add    rdi,rbp
    47b2:	66 66 66 66 66 2e 0f 	data16 data16 data16 data16 cs nop WORD PTR [rax+rax*1+0x0]
    47b9:	1f 84 00 00 00 00 00 
    47c0:	4e 8b 44 1f f8       	mov    r8,QWORD PTR [rdi+r11*1-0x8]
    47c5:	4e 8b 0c 1f          	mov    r9,QWORD PTR [rdi+r11*1]
    47c9:	4d 89 c2             	mov    r10,r8
    47cc:	4d 31 ea             	xor    r10,r13
    47cf:	49 01 da             	add    r10,rbx
    47d2:	49 f7 d0             	not    r8
    47d5:	4d 21 d0             	and    r8,r10
    47d8:	4d 89 ca             	mov    r10,r9
    47db:	4d 31 ea             	xor    r10,r13
    47de:	49 01 da             	add    r10,rbx
    47e1:	49 f7 d1             	not    r9
    47e4:	4d 21 d1             	and    r9,r10
    47e7:	4d 09 c1             	or     r9,r8
    47ea:	4d 85 f9             	test   r9,r15
    47ed:	75 09                	jne    0x47f8
    47ef:	49 83 c3 10          	add    r11,0x10
    47f3:	49 39 f3             	cmp    r11,rsi
    47f6:	76 c8                	jbe    0x47c0
    47f8:	49 39 cb             	cmp    r11,rcx
    47fb:	0f 84 df 00 00 00    	je     0x48e0
    4801:	4c 01 d8             	add    rax,r11
    4804:	48 89 d1             	mov    rcx,rdx
    4807:	4c 29 d9             	sub    rcx,r11
    480a:	48 29 e9             	sub    rcx,rbp
    480d:	31 f6                	xor    esi,esi
    480f:	4c 89 e7             	mov    rdi,r12
    4812:	66 66 66 66 66 2e 0f 	data16 data16 data16 data16 cs nop WORD PTR [rax+rax*1+0x0]
    4819:	1f 84 00 00 00 00 00 
    4820:	80 3c 30 0a          	cmp    BYTE PTR [rax+rsi*1],0xa
    4824:	74 0a                	je     0x4830
    4826:	48 ff c6             	inc    rsi
    4829:	48 39 f1             	cmp    rcx,rsi
    482c:	75 f2                	jne    0x4820
    482e:	eb 40                	jmp    0x4870
    4830:	4c 01 de             	add    rsi,r11
    4833:	4c 8d 34 2e          	lea    r14,[rsi+rbp*1]
    4837:	49 ff c6             	inc    r14
    483a:	48 01 f5             	add    rbp,rsi
    483d:	48 39 d5             	cmp    rbp,rdx
    4840:	0f 83 ca fe ff ff    	jae    0x4710
    4846:	48 8b 44 24 08       	mov    rax,QWORD PTR [rsp+0x8]
    484b:	80 3c 28 0a          	cmp    BYTE PTR [rax+rbp*1],0xa
    484f:	0f 85 bb fe ff ff    	jne    0x4710
    4855:	4d 89 fc             	mov    r12,r15
    4858:	4d 89 ef             	mov    r15,r13
    485b:	49 89 dd             	mov    r13,rbx
    485e:	31 c0                	xor    eax,eax
    4860:	4c 89 f5             	mov    rbp,r14
    4863:	4c 89 f3             	mov    rbx,r14
    4866:	eb 24                	jmp    0x488c
    4868:	0f 1f 84 00 00 00 00 	nop    DWORD PTR [rax+rax*1+0x0]
    486f:	00 
    4870:	49 89 d6             	mov    r14,rdx
    4873:	4d 89 fc             	mov    r12,r15
    4876:	4d 89 ef             	mov    r15,r13
    4879:	49 89 dd             	mov    r13,rbx
    487c:	b0 01                	mov    al,0x1
    487e:	4c 89 f5             	mov    rbp,r14
    4881:	49 89 fe             	mov    r14,rdi
    4884:	48 89 d3             	mov    rbx,rdx
    4887:	48 39 d7             	cmp    rdi,rdx
    488a:	74 5c                	je     0x48e8
    488c:	89 44 24 14          	mov    DWORD PTR [rsp+0x14],eax
    4890:	48 8b 44 24 28       	mov    rax,QWORD PTR [rsp+0x28]
    4895:	80 38 00             	cmp    BYTE PTR [rax],0x0
    4898:	74 27                	je     0x48c1
    489a:	ba 04 00 00 00       	mov    edx,0x4
    489f:	48 89 7c 24 40       	mov    QWORD PTR [rsp+0x40],rdi
    48a4:	48 8b 7c 24 20       	mov    rdi,QWORD PTR [rsp+0x20]
    48a9:	48 c7 c6 b1 73 00 00 	mov    rsi,0x73b1
    48b0:	48 8b 44 24 18       	mov    rax,QWORD PTR [rsp+0x18]
    48b5:	ff 50 18             	call   QWORD PTR [rax+0x18]
    48b8:	48 8b 7c 24 40       	mov    rdi,QWORD PTR [rsp+0x40]
    48bd:	84 c0                	test   al,al
    48bf:	75 2b                	jne    0x48ec
    48c1:	48 89 da             	mov    rdx,rbx
    48c4:	48 29 fa             	sub    rdx,rdi
    48c7:	48 8b 44 24 08       	mov    rax,QWORD PTR [rsp+0x8]
    48cc:	48 8d 34 38          	lea    rsi,[rax+rdi*1]
    48d0:	48 39 fb             	cmp    rbx,rdi
    48d3:	0f 85 e7 fd ff ff    	jne    0x46c0
    48d9:	31 c0                	xor    eax,eax
    48db:	e9 e8 fd ff ff       	jmp    0x46c8
    48e0:	49 89 d6             	mov    r14,rdx
    48e3:	4c 89 e7             	mov    rdi,r12
    48e6:	eb 8b                	jmp    0x4873
    48e8:	31 c0                	xor    eax,eax
    48ea:	eb 02                	jmp    0x48ee
    48ec:	b0 01                	mov    al,0x1
    48ee:	48 83 c4 48          	add    rsp,0x48
    48f2:	5b                   	pop    rbx
    48f3:	41 5c                	pop    r12
    48f5:	41 5d                	pop    r13
    48f7:	41 5e                	pop    r14
    48f9:	41 5f                	pop    r15
    48fb:	5d                   	pop    rbp
    48fc:	c3                   	ret
    48fd:	cc                   	int3
    48fe:	cc                   	int3
    48ff:	cc                   	int3
    4900:	41 57                	push   r15
    4902:	41 56                	push   r14
    4904:	41 54                	push   r12
    4906:	53                   	push   rbx
    4907:	50                   	push   rax
    4908:	89 f3                	mov    ebx,esi
    490a:	4c 8b 7f 10          	mov    r15,QWORD PTR [rdi+0x10]
    490e:	41 80 3f 00          	cmp    BYTE PTR [r15],0x0
    4912:	4c 8b 37             	mov    r14,QWORD PTR [rdi]
    4915:	4c 8b 67 08          	mov    r12,QWORD PTR [rdi+0x8]
    4919:	74 26                	je     0x4941
    491b:	ba 04 00 00 00       	mov    edx,0x4
    4920:	4c 89 f7             	mov    rdi,r14
    4923:	48 c7 c6 b1 73 00 00 	mov    rsi,0x73b1
    492a:	41 ff 54 24 18       	call   QWORD PTR [r12+0x18]
    492f:	84 c0                	test   al,al
    4931:	74 0e                	je     0x4941
    4933:	b0 01                	mov    al,0x1
    4935:	48 83 c4 08          	add    rsp,0x8
    4939:	5b                   	pop    rbx
    493a:	41 5c                	pop    r12
    493c:	41 5e                	pop    r14
    493e:	41 5f                	pop    r15
    4940:	c3                   	ret
    4941:	83 fb 0a             	cmp    ebx,0xa
    4944:	41 0f 94 07          	sete   BYTE PTR [r15]
    4948:	49 8b 44 24 20       	mov    rax,QWORD PTR [r12+0x20]
    494d:	4c 89 f7             	mov    rdi,r14
    4950:	89 de                	mov    esi,ebx
    4952:	48 83 c4 08          	add    rsp,0x8
    4956:	5b                   	pop    rbx
    4957:	41 5c                	pop    r12
    4959:	41 5e                	pop    r14
    495b:	41 5f                	pop    r15
    495d:	ff e0                	jmp    rax
    495f:	cc                   	int3
    4960:	48 89 f2             	mov    rdx,rsi
    4963:	48 c7 c6 48 79 00 00 	mov    rsi,0x7948
    496a:	e9 71 f6 ff ff       	jmp    0x3fe0
    496f:	cc                   	int3
    4970:	48 83 ec 78          	sub    rsp,0x78
    4974:	48 89 7c 24 08       	mov    QWORD PTR [rsp+0x8],rdi
    4979:	48 89 74 24 10       	mov    QWORD PTR [rsp+0x10],rsi
    497e:	48 89 54 24 18       	mov    QWORD PTR [rsp+0x18],rdx
    4983:	48 89 4c 24 20       	mov    QWORD PTR [rsp+0x20],rcx
    4988:	48 8d 44 24 08       	lea    rax,[rsp+0x8]
    498d:	48 89 44 24 28       	mov    QWORD PTR [rsp+0x28],rax
    4992:	48 c7 44 24 30 b0 3f 	mov    QWORD PTR [rsp+0x30],0x3fb0
    4999:	00 00 
    499b:	48 8d 44 24 18       	lea    rax,[rsp+0x18]
    49a0:	48 89 44 24 38       	mov    QWORD PTR [rsp+0x38],rax
    49a5:	48 c7 44 24 40 d0 3f 	mov    QWORD PTR [rsp+0x40],0x3fd0
    49ac:	00 00 
    49ae:	48 c7 44 24 48 28 79 	mov    QWORD PTR [rsp+0x48],0x7928
    49b5:	00 00 
    49b7:	48 c7 44 24 50 02 00 	mov    QWORD PTR [rsp+0x50],0x2
    49be:	00 00 
    49c0:	48 c7 44 24 68 00 00 	mov    QWORD PTR [rsp+0x68],0x0
    49c7:	00 00 
    49c9:	48 8d 44 24 28       	lea    rax,[rsp+0x28]
    49ce:	48 89 44 24 58       	mov    QWORD PTR [rsp+0x58],rax
    49d3:	48 c7 44 24 60 02 00 	mov    QWORD PTR [rsp+0x60],0x2
    49da:	00 00 
    49dc:	48 8d 7c 24 48       	lea    rdi,[rsp+0x48]
    49e1:	4c 89 c6             	mov    rsi,r8
    49e4:	e8 e7 e9 ff ff       	call   0x33d0
    49e9:	0f 0b                	ud2
    49eb:	cc                   	int3
    49ec:	cc                   	int3
    49ed:	cc                   	int3
    49ee:	cc                   	int3
    49ef:	cc                   	int3
    49f0:	48 83 ec 28          	sub    rsp,0x28
    49f4:	0f b6 07             	movzx  eax,BYTE PTR [rdi]
    49f7:	48 83 f8 64          	cmp    rax,0x64
    49fb:	72 2a                	jb     0x4a27
    49fd:	0f b6 c8             	movzx  ecx,al
    4a00:	8d 14 89             	lea    edx,[rcx+rcx*4]
    4a03:	8d 0c d1             	lea    ecx,[rcx+rdx*8]
    4a06:	c1 e9 0c             	shr    ecx,0xc
    4a09:	6b d1 64             	imul   edx,ecx,0x64
    4a0c:	28 d0                	sub    al,dl
    4a0e:	0f b6 c0             	movzx  eax,al
    4a11:	0f b7 84 00 20 7a 00 	movzx  eax,WORD PTR [rax+rax*1+0x7a20]
    4a18:	00 
    4a19:	66 89 44 24 26       	mov    WORD PTR [rsp+0x26],ax
    4a1e:	ba 24 00 00 00       	mov    edx,0x24
    4a23:	89 c8                	mov    eax,ecx
    4a25:	eb 09                	jmp    0x4a30
    4a27:	ba 26 00 00 00       	mov    edx,0x26
    4a2c:	3c 0a                	cmp    al,0xa
    4a2e:	73 08                	jae    0x4a38
    4a30:	0c 30                	or     al,0x30
    4a32:	88 44 14 01          	mov    BYTE PTR [rsp+rdx*1+0x1],al
    4a36:	eb 12                	jmp    0x4a4a
    4a38:	0f b7 84 00 20 7a 00 	movzx  eax,WORD PTR [rax+rax*1+0x7a20]
    4a3f:	00 
    4a40:	66 89 44 24 26       	mov    WORD PTR [rsp+0x26],ax
    4a45:	ba 25 00 00 00       	mov    edx,0x25
    4a4a:	48 8d 0c 14          	lea    rcx,[rsp+rdx*1]
    4a4e:	48 ff c1             	inc    rcx
    4a51:	41 b8 27 00 00 00    	mov    r8d,0x27
    4a57:	49 29 d0             	sub    r8,rdx
    4a5a:	48 89 f7             	mov    rdi,rsi
    4a5d:	48 c7 c6 68 88 00 00 	mov    rsi,0x8868
    4a64:	31 d2                	xor    edx,edx
    4a66:	e8 b5 ea ff ff       	call   0x3520
    4a6b:	48 83 c4 28          	add    rsp,0x28
    4a6f:	c3                   	ret
    4a70:	48 83 ec 28          	sub    rsp,0x28
    4a74:	0f b7 07             	movzx  eax,WORD PTR [rdi]
    4a77:	3d 10 27 00 00       	cmp    eax,0x2710
    4a7c:	72 4e                	jb     0x4acc
    4a7e:	0f b7 c8             	movzx  ecx,ax
    4a81:	c1 e9 04             	shr    ecx,0x4
    4a84:	69 c9 47 03 00 00    	imul   ecx,ecx,0x347
    4a8a:	c1 e9 13             	shr    ecx,0x13
    4a8d:	69 d1 10 27 00 00    	imul   edx,ecx,0x2710
    4a93:	29 d0                	sub    eax,edx
    4a95:	0f b7 d0             	movzx  edx,ax
    4a98:	69 d2 7b 14 00 00    	imul   edx,edx,0x147b
    4a9e:	c1 ea 13             	shr    edx,0x13
    4aa1:	6b fa 64             	imul   edi,edx,0x64
    4aa4:	29 f8                	sub    eax,edi
    4aa6:	0f b7 c0             	movzx  eax,ax
    4aa9:	0f b7 94 12 20 7a 00 	movzx  edx,WORD PTR [rdx+rdx*1+0x7a20]
    4ab0:	00 
    4ab1:	66 89 54 24 24       	mov    WORD PTR [rsp+0x24],dx
    4ab6:	0f b7 84 00 20 7a 00 	movzx  eax,WORD PTR [rax+rax*1+0x7a20]
    4abd:	00 
    4abe:	66 89 44 24 26       	mov    WORD PTR [rsp+0x26],ax
    4ac3:	ba 23 00 00 00       	mov    edx,0x23
    4ac8:	89 c8                	mov    eax,ecx
    4aca:	eb 3c                	jmp    0x4b08
    4acc:	ba 27 00 00 00       	mov    edx,0x27
    4ad1:	66 83 f8 64          	cmp    ax,0x64
    4ad5:	72 2b                	jb     0x4b02
    4ad7:	0f b7 c8             	movzx  ecx,ax
    4ada:	c1 e9 02             	shr    ecx,0x2
    4add:	69 c9 7b 14 00 00    	imul   ecx,ecx,0x147b
    4ae3:	c1 e9 11             	shr    ecx,0x11
    4ae6:	6b d1 64             	imul   edx,ecx,0x64
    4ae9:	29 d0                	sub    eax,edx
    4aeb:	0f b7 c0             	movzx  eax,ax
    4aee:	0f b7 84 00 20 7a 00 	movzx  eax,WORD PTR [rax+rax*1+0x7a20]
    4af5:	00 
    4af6:	66 89 44 24 26       	mov    WORD PTR [rsp+0x26],ax
    4afb:	ba 25 00 00 00       	mov    edx,0x25
    4b00:	89 c8                	mov    eax,ecx
    4b02:	66 83 f8 0a          	cmp    ax,0xa
    4b06:	73 0a                	jae    0x4b12
    4b08:	0c 30                	or     al,0x30
    4b0a:	88 04 14             	mov    BYTE PTR [rsp+rdx*1],al
    4b0d:	48 ff ca             	dec    rdx
    4b10:	eb 14                	jmp    0x4b26
    4b12:	0f b7 c0             	movzx  eax,ax
    4b15:	0f b7 84 00 20 7a 00 	movzx  eax,WORD PTR [rax+rax*1+0x7a20]
    4b1c:	00 
    4b1d:	66 89 44 14 ff       	mov    WORD PTR [rsp+rdx*1-0x1],ax
    4b22:	48 83 c2 fe          	add    rdx,0xfffffffffffffffe
    4b26:	48 8d 0c 14          	lea    rcx,[rsp+rdx*1]
    4b2a:	48 ff c1             	inc    rcx
    4b2d:	41 b8 27 00 00 00    	mov    r8d,0x27
    4b33:	49 29 d0             	sub    r8,rdx
    4b36:	48 89 f7             	mov    rdi,rsi
    4b39:	48 c7 c6 68 88 00 00 	mov    rsi,0x8868
    4b40:	31 d2                	xor    edx,edx
    4b42:	e8 d9 e9 ff ff       	call   0x3520
    4b47:	48 83 c4 28          	add    rsp,0x28
    4b4b:	c3                   	ret
    4b4c:	cc                   	int3
    4b4d:	cc                   	int3
    4b4e:	cc                   	int3
    4b4f:	cc                   	int3
    4b50:	41 57                	push   r15
    4b52:	41 56                	push   r14
    4b54:	41 55                	push   r13
    4b56:	41 54                	push   r12
    4b58:	53                   	push   rbx
    4b59:	48 83 ec 60          	sub    rsp,0x60
    4b5d:	48 89 fb             	mov    rbx,rdi
    4b60:	80 7f 10 00          	cmp    BYTE PTR [rdi+0x10],0x0
    4b64:	4c 8b 2f             	mov    r13,QWORD PTR [rdi]
    4b67:	b0 01                	mov    al,0x1
    4b69:	74 1a                	je     0x4b85
    4b6b:	88 43 10             	mov    BYTE PTR [rbx+0x10],al
    4b6e:	49 ff c5             	inc    r13
    4b71:	4c 89 2b             	mov    QWORD PTR [rbx],r13
    4b74:	48 89 d8             	mov    rax,rbx
    4b77:	48 83 c4 60          	add    rsp,0x60
    4b7b:	5b                   	pop    rbx
    4b7c:	41 5c                	pop    r12
    4b7e:	41 5d                	pop    r13
    4b80:	41 5e                	pop    r14
    4b82:	41 5f                	pop    r15
    4b84:	c3                   	ret
    4b85:	49 89 d6             	mov    r14,rdx
    4b88:	49 89 f7             	mov    r15,rsi
    4b8b:	4c 8b 63 08          	mov    r12,QWORD PTR [rbx+0x8]
    4b8f:	41 8b 44 24 34       	mov    eax,DWORD PTR [r12+0x34]
    4b94:	a8 04                	test   al,0x4
    4b96:	75 3d                	jne    0x4bd5
    4b98:	31 d2                	xor    edx,edx
    4b9a:	4d 85 ed             	test   r13,r13
    4b9d:	48 c7 c0 8c 79 00 00 	mov    rax,0x798c
    4ba4:	48 c7 c6 7b 79 00 00 	mov    rsi,0x797b
    4bab:	48 0f 44 f0          	cmove  rsi,rax
    4baf:	0f 95 c2             	setne  dl
    4bb2:	48 ff c2             	inc    rdx
    4bb5:	49 8b 7c 24 20       	mov    rdi,QWORD PTR [r12+0x20]
    4bba:	49 8b 44 24 28       	mov    rax,QWORD PTR [r12+0x28]
    4bbf:	ff 50 18             	call   QWORD PTR [rax+0x18]
    4bc2:	89 c1                	mov    ecx,eax
    4bc4:	b0 01                	mov    al,0x1
    4bc6:	84 c9                	test   cl,cl
    4bc8:	75 a1                	jne    0x4b6b
    4bca:	4c 89 ff             	mov    rdi,r15
    4bcd:	4c 89 e6             	mov    rsi,r12
    4bd0:	41 ff d6             	call   r14
    4bd3:	eb 96                	jmp    0x4b6b
    4bd5:	4d 85 ed             	test   r13,r13
    4bd8:	75 2a                	jne    0x4c04
    4bda:	49 8b 7c 24 20       	mov    rdi,QWORD PTR [r12+0x20]
    4bdf:	49 8b 44 24 28       	mov    rax,QWORD PTR [r12+0x28]
    4be4:	ba 02 00 00 00       	mov    edx,0x2
    4be9:	48 c7 c6 8d 79 00 00 	mov    rsi,0x798d
    4bf0:	ff 50 18             	call   QWORD PTR [rax+0x18]
    4bf3:	89 c1                	mov    ecx,eax
    4bf5:	b0 01                	mov    al,0x1
    4bf7:	84 c9                	test   cl,cl
    4bf9:	0f 85 6c ff ff ff    	jne    0x4b6b
    4bff:	41 8b 44 24 34       	mov    eax,DWORD PTR [r12+0x34]
    4c04:	c6 44 24 07 01       	mov    BYTE PTR [rsp+0x7],0x1
    4c09:	49 8b 4c 24 20       	mov    rcx,QWORD PTR [r12+0x20]
    4c0e:	49 8b 54 24 28       	mov    rdx,QWORD PTR [r12+0x28]
    4c13:	48 89 4c 24 48       	mov    QWORD PTR [rsp+0x48],rcx
    4c18:	48 89 54 24 50       	mov    QWORD PTR [rsp+0x50],rdx
    4c1d:	48 8d 4c 24 07       	lea    rcx,[rsp+0x7]
    4c22:	48 89 4c 24 58       	mov    QWORD PTR [rsp+0x58],rcx
    4c27:	41 8b 4c 24 30       	mov    ecx,DWORD PTR [r12+0x30]
    4c2c:	41 0f b6 54 24 38    	movzx  edx,BYTE PTR [r12+0x38]
    4c32:	49 8b 34 24          	mov    rsi,QWORD PTR [r12]
    4c36:	49 8b 7c 24 08       	mov    rdi,QWORD PTR [r12+0x8]
    4c3b:	4d 8b 44 24 10       	mov    r8,QWORD PTR [r12+0x10]
    4c40:	4d 8b 4c 24 18       	mov    r9,QWORD PTR [r12+0x18]
    4c45:	89 44 24 3c          	mov    DWORD PTR [rsp+0x3c],eax
    4c49:	89 4c 24 38          	mov    DWORD PTR [rsp+0x38],ecx
    4c4d:	88 54 24 40          	mov    BYTE PTR [rsp+0x40],dl
    4c51:	48 89 74 24 08       	mov    QWORD PTR [rsp+0x8],rsi
    4c56:	48 89 7c 24 10       	mov    QWORD PTR [rsp+0x10],rdi
    4c5b:	4c 89 44 24 18       	mov    QWORD PTR [rsp+0x18],r8
    4c60:	4c 89 4c 24 20       	mov    QWORD PTR [rsp+0x20],r9
    4c65:	48 8d 44 24 48       	lea    rax,[rsp+0x48]
    4c6a:	48 89 44 24 28       	mov    QWORD PTR [rsp+0x28],rax
    4c6f:	48 c7 44 24 30 48 79 	mov    QWORD PTR [rsp+0x30],0x7948
    4c76:	00 00 
    4c78:	48 8d 74 24 08       	lea    rsi,[rsp+0x8]
    4c7d:	4c 89 ff             	mov    rdi,r15
    4c80:	41 ff d6             	call   r14
    4c83:	84 c0                	test   al,al
    4c85:	74 07                	je     0x4c8e
    4c87:	b0 01                	mov    al,0x1
    4c89:	e9 dd fe ff ff       	jmp    0x4b6b
    4c8e:	48 8b 7c 24 28       	mov    rdi,QWORD PTR [rsp+0x28]
    4c93:	48 8b 44 24 30       	mov    rax,QWORD PTR [rsp+0x30]
    4c98:	ba 02 00 00 00       	mov    edx,0x2
    4c9d:	48 c7 c6 80 79 00 00 	mov    rsi,0x7980
    4ca4:	ff 50 18             	call   QWORD PTR [rax+0x18]
    4ca7:	e9 bf fe ff ff       	jmp    0x4b6b
    4cac:	cc                   	int3
    4cad:	cc                   	int3
    4cae:	cc                   	int3
    4caf:	cc                   	int3
    4cb0:	41 57                	push   r15
    4cb2:	41 56                	push   r14
    4cb4:	53                   	push   rbx
    4cb5:	48 83 ec 60          	sub    rsp,0x60
    4cb9:	48 89 fb             	mov    rbx,rdi
    4cbc:	b0 01                	mov    al,0x1
    4cbe:	80 7f 08 00          	cmp    BYTE PTR [rdi+0x8],0x0
    4cc2:	74 14                	je     0x4cd8
    4cc4:	88 43 08             	mov    BYTE PTR [rbx+0x8],al
    4cc7:	c6 43 09 01          	mov    BYTE PTR [rbx+0x9],0x1
    4ccb:	48 89 d8             	mov    rax,rbx
    4cce:	48 83 c4 60          	add    rsp,0x60
    4cd2:	5b                   	pop    rbx
    4cd3:	41 5e                	pop    r14
    4cd5:	41 5f                	pop    r15
    4cd7:	c3                   	ret
    4cd8:	49 89 f6             	mov    r14,rsi
    4cdb:	4c 8b 3b             	mov    r15,QWORD PTR [rbx]
    4cde:	41 8b 47 34          	mov    eax,DWORD PTR [r15+0x34]
    4ce2:	0f b6 4b 09          	movzx  ecx,BYTE PTR [rbx+0x9]
    4ce6:	a8 04                	test   al,0x4
    4ce8:	75 30                	jne    0x4d1a
    4cea:	84 c9                	test   cl,cl
    4cec:	74 1f                	je     0x4d0d
    4cee:	49 8b 7f 20          	mov    rdi,QWORD PTR [r15+0x20]
    4cf2:	49 8b 47 28          	mov    rax,QWORD PTR [r15+0x28]
    4cf6:	ba 02 00 00 00       	mov    edx,0x2
    4cfb:	48 c7 c6 7b 79 00 00 	mov    rsi,0x797b
    4d02:	ff 50 18             	call   QWORD PTR [rax+0x18]
    4d05:	89 c1                	mov    ecx,eax
    4d07:	b0 01                	mov    al,0x1
    4d09:	84 c9                	test   cl,cl
    4d0b:	75 b7                	jne    0x4cc4
    4d0d:	49 8b 3e             	mov    rdi,QWORD PTR [r14]
    4d10:	4c 89 fe             	mov    rsi,r15
    4d13:	e8 68 b3 ff ff       	call   0x80
    4d18:	eb aa                	jmp    0x4cc4
    4d1a:	84 c9                	test   cl,cl
    4d1c:	75 23                	jne    0x4d41
    4d1e:	49 8b 7f 20          	mov    rdi,QWORD PTR [r15+0x20]
    4d22:	49 8b 47 28          	mov    rax,QWORD PTR [r15+0x28]
    4d26:	ba 01 00 00 00       	mov    edx,0x1
    4d2b:	48 c7 c6 90 79 00 00 	mov    rsi,0x7990
    4d32:	ff 50 18             	call   QWORD PTR [rax+0x18]
    4d35:	89 c1                	mov    ecx,eax
    4d37:	b0 01                	mov    al,0x1
    4d39:	84 c9                	test   cl,cl
    4d3b:	75 87                	jne    0x4cc4
    4d3d:	41 8b 47 34          	mov    eax,DWORD PTR [r15+0x34]
    4d41:	c6 44 24 07 01       	mov    BYTE PTR [rsp+0x7],0x1
    4d46:	49 8b 4f 20          	mov    rcx,QWORD PTR [r15+0x20]
    4d4a:	49 8b 57 28          	mov    rdx,QWORD PTR [r15+0x28]
    4d4e:	48 89 4c 24 48       	mov    QWORD PTR [rsp+0x48],rcx
    4d53:	48 89 54 24 50       	mov    QWORD PTR [rsp+0x50],rdx
    4d58:	48 8d 4c 24 07       	lea    rcx,[rsp+0x7]
    4d5d:	48 89 4c 24 58       	mov    QWORD PTR [rsp+0x58],rcx
    4d62:	41 8b 4f 30          	mov    ecx,DWORD PTR [r15+0x30]
    4d66:	41 0f b6 57 38       	movzx  edx,BYTE PTR [r15+0x38]
    4d6b:	49 8b 37             	mov    rsi,QWORD PTR [r15]
    4d6e:	49 8b 7f 08          	mov    rdi,QWORD PTR [r15+0x8]
    4d72:	4d 8b 47 10          	mov    r8,QWORD PTR [r15+0x10]
    4d76:	4d 8b 4f 18          	mov    r9,QWORD PTR [r15+0x18]
    4d7a:	89 44 24 3c          	mov    DWORD PTR [rsp+0x3c],eax
    4d7e:	89 4c 24 38          	mov    DWORD PTR [rsp+0x38],ecx
    4d82:	88 54 24 40          	mov    BYTE PTR [rsp+0x40],dl
    4d86:	48 89 74 24 08       	mov    QWORD PTR [rsp+0x8],rsi
    4d8b:	48 89 7c 24 10       	mov    QWORD PTR [rsp+0x10],rdi
    4d90:	4c 89 44 24 18       	mov    QWORD PTR [rsp+0x18],r8
    4d95:	4c 89 4c 24 20       	mov    QWORD PTR [rsp+0x20],r9
    4d9a:	48 8d 44 24 48       	lea    rax,[rsp+0x48]
    4d9f:	48 89 44 24 28       	mov    QWORD PTR [rsp+0x28],rax
    4da4:	48 c7 44 24 30 48 79 	mov    QWORD PTR [rsp+0x30],0x7948
    4dab:	00 00 
    4dad:	49 8b 3e             	mov    rdi,QWORD PTR [r14]
    4db0:	48 8d 74 24 08       	lea    rsi,[rsp+0x8]
    4db5:	e8 c6 b2 ff ff       	call   0x80
    4dba:	84 c0                	test   al,al
    4dbc:	74 07                	je     0x4dc5
    4dbe:	b0 01                	mov    al,0x1
    4dc0:	e9 ff fe ff ff       	jmp    0x4cc4
    4dc5:	48 8b 7c 24 28       	mov    rdi,QWORD PTR [rsp+0x28]
    4dca:	48 8b 44 24 30       	mov    rax,QWORD PTR [rsp+0x30]
    4dcf:	ba 02 00 00 00       	mov    edx,0x2
    4dd4:	48 c7 c6 80 79 00 00 	mov    rsi,0x7980
    4ddb:	ff 50 18             	call   QWORD PTR [rax+0x18]
    4dde:	e9 e1 fe ff ff       	jmp    0x4cc4
    4de3:	cc                   	int3
    4de4:	cc                   	int3
    4de5:	cc                   	int3
    4de6:	cc                   	int3
    4de7:	cc                   	int3
    4de8:	cc                   	int3
    4de9:	cc                   	int3
    4dea:	cc                   	int3
    4deb:	cc                   	int3
    4dec:	cc                   	int3
    4ded:	cc                   	int3
    4dee:	cc                   	int3
    4def:	cc                   	int3
    4df0:	48 89 fa             	mov    rdx,rdi
    4df3:	48 8b 7e 20          	mov    rdi,QWORD PTR [rsi+0x20]
    4df7:	48 8b 76 28          	mov    rsi,QWORD PTR [rsi+0x28]
    4dfb:	e9 e0 f1 ff ff       	jmp    0x3fe0
    4e00:	41 56                	push   r14
    4e02:	53                   	push   rbx
    4e03:	48 83 ec 18          	sub    rsp,0x18
    4e07:	41 89 f6             	mov    r14d,esi
    4e0a:	48 89 fb             	mov    rbx,rdi
    4e0d:	83 fe 27             	cmp    esi,0x27
    4e10:	77 14                	ja     0x4e26
    4e12:	44 89 f0             	mov    eax,r14d
    4e15:	ff 24 c5 80 71 00 00 	jmp    QWORD PTR [rax*8+0x7180]
    4e1c:	66 c7 03 5c 30       	mov    WORD PTR [rbx],0x305c
    4e21:	e9 b8 00 00 00       	jmp    0x4ede
    4e26:	41 83 fe 5c          	cmp    r14d,0x5c
    4e2a:	75 3f                	jne    0x4e6b
    4e2c:	66 c7 03 5c 5c       	mov    WORD PTR [rbx],0x5c5c
    4e31:	e9 a8 00 00 00       	jmp    0x4ede
    4e36:	66 c7 03 5c 74       	mov    WORD PTR [rbx],0x745c
    4e3b:	e9 9e 00 00 00       	jmp    0x4ede
    4e40:	66 c7 03 5c 6e       	mov    WORD PTR [rbx],0x6e5c
    4e45:	e9 94 00 00 00       	jmp    0x4ede
    4e4a:	66 c7 03 5c 72       	mov    WORD PTR [rbx],0x725c
    4e4f:	e9 8a 00 00 00       	jmp    0x4ede
    4e54:	f7 c2 00 00 01 00    	test   edx,0x10000
    4e5a:	74 0f                	je     0x4e6b
    4e5c:	66 c7 03 5c 22       	mov    WORD PTR [rbx],0x225c
    4e61:	eb 7b                	jmp    0x4ede
    4e63:	f7 c2 00 01 00 00    	test   edx,0x100
    4e69:	75 6e                	jne    0x4ed9
    4e6b:	f6 c2 01             	test   dl,0x1
    4e6e:	0f 84 1e 01 00 00    	je     0x4f92
    4e74:	44 89 f2             	mov    edx,r14d
    4e77:	c1 e2 0b             	shl    edx,0xb
    4e7a:	b9 21 00 00 00       	mov    ecx,0x21
    4e7f:	31 c0                	xor    eax,eax
    4e81:	be ff 00 00 00       	mov    esi,0xff
    4e86:	bf 21 00 00 00       	mov    edi,0x21
    4e8b:	eb 0b                	jmp    0x4e98
    4e8d:	0f 1f 00             	nop    DWORD PTR [rax]
    4e90:	48 89 cf             	mov    rdi,rcx
    4e93:	48 29 c1             	sub    rcx,rax
    4e96:	76 5f                	jbe    0x4ef7
    4e98:	48 d1 e9             	shr    rcx,1
    4e9b:	48 01 c1             	add    rcx,rax
    4e9e:	44 8b 0c 8d 08 85 00 	mov    r9d,DWORD PTR [rcx*4+0x8508]
    4ea5:	00 
    4ea6:	41 c1 e1 0b          	shl    r9d,0xb
    4eaa:	45 31 c0             	xor    r8d,r8d
    4ead:	41 39 d1             	cmp    r9d,edx
    4eb0:	41 0f 95 c0          	setne  r8b
    4eb4:	44 0f 42 c6          	cmovb  r8d,esi
    4eb8:	41 80 f8 01          	cmp    r8b,0x1
    4ebc:	74 d2                	je     0x4e90
    4ebe:	41 0f b6 c0          	movzx  eax,r8b
    4ec2:	48 ff c1             	inc    rcx
    4ec5:	3d ff 00 00 00       	cmp    eax,0xff
    4eca:	75 28                	jne    0x4ef4
    4ecc:	48 89 c8             	mov    rax,rcx
    4ecf:	48 89 f9             	mov    rcx,rdi
    4ed2:	48 29 c1             	sub    rcx,rax
    4ed5:	77 c1                	ja     0x4e98
    4ed7:	eb 1e                	jmp    0x4ef7
    4ed9:	66 c7 03 5c 27       	mov    WORD PTR [rbx],0x275c
    4ede:	48 c7 43 02 00 00 00 	mov    QWORD PTR [rbx+0x2],0x0
    4ee5:	00 
    4ee6:	66 c7 43 0a 00 02    	mov    WORD PTR [rbx+0xa],0x200
    4eec:	48 83 c4 18          	add    rsp,0x18
    4ef0:	5b                   	pop    rbx
    4ef1:	41 5e                	pop    r14
    4ef3:	c3                   	ret
    4ef4:	48 89 c8             	mov    rax,rcx
    4ef7:	48 83 f8 20          	cmp    rax,0x20
    4efb:	0f 87 c7 02 00 00    	ja     0x51c8
    4f01:	8b 3c 85 08 85 00 00 	mov    edi,DWORD PTR [rax*4+0x8508]
    4f08:	c1 ef 15             	shr    edi,0x15
    4f0b:	48 83 f8 20          	cmp    rax,0x20
    4f0f:	75 0c                	jne    0x4f1d
    4f11:	b8 1f 00 00 00       	mov    eax,0x1f
    4f16:	b9 d7 02 00 00       	mov    ecx,0x2d7
    4f1b:	eb 16                	jmp    0x4f33
    4f1d:	8b 0c 85 0c 85 00 00 	mov    ecx,DWORD PTR [rax*4+0x850c]
    4f24:	c1 e9 15             	shr    ecx,0x15
    4f27:	48 85 c0             	test   rax,rax
    4f2a:	0f 84 70 01 00 00    	je     0x50a0
    4f30:	48 ff c8             	dec    rax
    4f33:	ba ff ff 1f 00       	mov    edx,0x1fffff
    4f38:	23 14 85 08 85 00 00 	and    edx,DWORD PTR [rax*4+0x8508]
    4f3f:	48 89 f8             	mov    rax,rdi
    4f42:	48 f7 d0             	not    rax
    4f45:	48 01 c8             	add    rax,rcx
    4f48:	74 42                	je     0x4f8c
    4f4a:	44 89 f0             	mov    eax,r14d
    4f4d:	29 d0                	sub    eax,edx
    4f4f:	48 ff c9             	dec    rcx
    4f52:	31 f6                	xor    esi,esi
    4f54:	48 89 fa             	mov    rdx,rdi
    4f57:	66 0f 1f 84 00 00 00 	nop    WORD PTR [rax+rax*1+0x0]
    4f5e:	00 00 
    4f60:	48 81 fa d6 02 00 00 	cmp    rdx,0x2d6
    4f67:	0f 87 38 02 00 00    	ja     0x51a5
    4f6d:	44 0f b6 82 8c 85 00 	movzx  r8d,BYTE PTR [rdx+0x858c]
    4f74:	00 
    4f75:	44 01 c6             	add    esi,r8d
    4f78:	39 c6                	cmp    esi,eax
    4f7a:	77 0d                	ja     0x4f89
    4f7c:	48 ff c2             	inc    rdx
    4f7f:	48 39 d1             	cmp    rcx,rdx
    4f82:	75 dc                	jne    0x4f60
    4f84:	48 89 cf             	mov    rdi,rcx
    4f87:	eb 03                	jmp    0x4f8c
    4f89:	48 89 d7             	mov    rdi,rdx
    4f8c:	40 f6 c7 01          	test   dil,0x1
    4f90:	75 0a                	jne    0x4f9c
    4f92:	41 83 fe 20          	cmp    r14d,0x20
    4f96:	0f 83 c4 00 00 00    	jae    0x5060
    4f9c:	c6 44 24 10 00       	mov    BYTE PTR [rsp+0x10],0x0
    4fa1:	66 c7 44 24 0e 00 00 	mov    WORD PTR [rsp+0xe],0x0
    4fa8:	c6 44 24 17 7d       	mov    BYTE PTR [rsp+0x17],0x7d
    4fad:	44 89 f0             	mov    eax,r14d
    4fb0:	c1 e8 14             	shr    eax,0x14
    4fb3:	83 e0 0f             	and    eax,0xf
    4fb6:	0f b6 80 b8 75 00 00 	movzx  eax,BYTE PTR [rax+0x75b8]
    4fbd:	88 44 24 11          	mov    BYTE PTR [rsp+0x11],al
    4fc1:	44 89 f0             	mov    eax,r14d
    4fc4:	c1 e8 10             	shr    eax,0x10
    4fc7:	83 e0 0f             	and    eax,0xf
    4fca:	0f b6 80 b8 75 00 00 	movzx  eax,BYTE PTR [rax+0x75b8]
    4fd1:	88 44 24 12          	mov    BYTE PTR [rsp+0x12],al
    4fd5:	44 89 f0             	mov    eax,r14d
    4fd8:	c1 e8 0c             	shr    eax,0xc
    4fdb:	83 e0 0f             	and    eax,0xf
    4fde:	0f b6 80 b8 75 00 00 	movzx  eax,BYTE PTR [rax+0x75b8]
    4fe5:	88 44 24 13          	mov    BYTE PTR [rsp+0x13],al
    4fe9:	44 89 f0             	mov    eax,r14d
    4fec:	c1 e8 08             	shr    eax,0x8
    4fef:	83 e0 0f             	and    eax,0xf
    4ff2:	0f b6 80 b8 75 00 00 	movzx  eax,BYTE PTR [rax+0x75b8]
    4ff9:	88 44 24 14          	mov    BYTE PTR [rsp+0x14],al
    4ffd:	44 89 f0             	mov    eax,r14d
    5000:	c1 e8 04             	shr    eax,0x4
    5003:	83 e0 0f             	and    eax,0xf
    5006:	0f b6 80 b8 75 00 00 	movzx  eax,BYTE PTR [rax+0x75b8]
    500d:	88 44 24 15          	mov    BYTE PTR [rsp+0x15],al
    5011:	44 89 f0             	mov    eax,r14d
    5014:	83 e0 0f             	and    eax,0xf
    5017:	0f b6 80 b8 75 00 00 	movzx  eax,BYTE PTR [rax+0x75b8]
    501e:	88 44 24 16          	mov    BYTE PTR [rsp+0x16],al
    5022:	41 83 ce 01          	or     r14d,0x1
    5026:	41 0f bd c6          	bsr    eax,r14d
    502a:	83 f0 1c             	xor    eax,0x1c
    502d:	c1 e8 02             	shr    eax,0x2
    5030:	48 8d 48 fe          	lea    rcx,[rax-0x2]
    5034:	c6 44 04 0e 7b       	mov    BYTE PTR [rsp+rax*1+0xe],0x7b
    5039:	66 c7 44 04 0c 5c 75 	mov    WORD PTR [rsp+rax*1+0xc],0x755c
    5040:	0f b7 44 24 16       	movzx  eax,WORD PTR [rsp+0x16]
    5045:	66 89 43 08          	mov    WORD PTR [rbx+0x8],ax
    5049:	48 8b 44 24 0e       	mov    rax,QWORD PTR [rsp+0xe]
    504e:	48 89 03             	mov    QWORD PTR [rbx],rax
    5051:	88 4b 0a             	mov    BYTE PTR [rbx+0xa],cl
    5054:	c6 43 0b 0a          	mov    BYTE PTR [rbx+0xb],0xa
    5058:	48 83 c4 18          	add    rsp,0x18
    505c:	5b                   	pop    rbx
    505d:	41 5e                	pop    r14
    505f:	c3                   	ret
    5060:	41 83 fe 7f          	cmp    r14d,0x7f
    5064:	0f 82 2c 01 00 00    	jb     0x5196
    506a:	41 81 fe 00 00 01 00 	cmp    r14d,0x10000
    5071:	73 43                	jae    0x50b6
    5073:	48 c7 04 24 2f 01 00 	mov    QWORD PTR [rsp],0x12f
    507a:	00 
    507b:	ba 28 00 00 00       	mov    edx,0x28
    5080:	41 b8 1f 01 00 00    	mov    r8d,0x11f
    5086:	44 89 f7             	mov    edi,r14d
    5089:	48 c7 c6 26 81 00 00 	mov    rsi,0x8126
    5090:	48 c7 c1 76 81 00 00 	mov    rcx,0x8176
    5097:	49 c7 c1 95 82 00 00 	mov    r9,0x8295
    509e:	eb 4a                	jmp    0x50ea
    50a0:	31 d2                	xor    edx,edx
    50a2:	48 89 f8             	mov    rax,rdi
    50a5:	48 f7 d0             	not    rax
    50a8:	48 01 c8             	add    rax,rcx
    50ab:	0f 85 99 fe ff ff    	jne    0x4f4a
    50b1:	e9 d6 fe ff ff       	jmp    0x4f8c
    50b6:	41 81 fe 00 00 02 00 	cmp    r14d,0x20000
    50bd:	73 3d                	jae    0x50fc
    50bf:	48 c7 04 24 c2 01 00 	mov    QWORD PTR [rsp],0x1c2
    50c6:	00 
    50c7:	ba 2c 00 00 00       	mov    edx,0x2c
    50cc:	41 b8 c4 00 00 00    	mov    r8d,0xc4
    50d2:	44 89 f7             	mov    edi,r14d
    50d5:	48 c7 c6 48 7e 00 00 	mov    rsi,0x7e48
    50dc:	48 c7 c1 a0 7e 00 00 	mov    rcx,0x7ea0
    50e3:	49 c7 c1 64 7f 00 00 	mov    r9,0x7f64
    50ea:	e8 11 07 00 00       	call   0x5800
    50ef:	84 c0                	test   al,al
    50f1:	0f 84 a5 fe ff ff    	je     0x4f9c
    50f7:	e9 9a 00 00 00       	jmp    0x5196
    50fc:	41 8d 86 50 dc fc ff 	lea    eax,[r14-0x323b0]
    5103:	3d 50 dd 0a 00       	cmp    eax,0xadd50
    5108:	0f 82 8e fe ff ff    	jb     0x4f9c
    510e:	41 8d 86 b5 ec fc ff 	lea    eax,[r14-0x3134b]
    5115:	83 f8 05             	cmp    eax,0x5
    5118:	0f 82 7e fe ff ff    	jb     0x4f9c
    511e:	41 8d 86 e2 05 fd ff 	lea    eax,[r14-0x2fa1e]
    5125:	3d e2 05 00 00       	cmp    eax,0x5e2
    512a:	0f 82 6c fe ff ff    	jb     0x4f9c
    5130:	41 8d 86 1f 14 fd ff 	lea    eax,[r14-0x2ebe1]
    5137:	3d 1f 0c 00 00       	cmp    eax,0xc1f
    513c:	0f 82 5a fe ff ff    	jb     0x4f9c
    5142:	41 8d 86 5e 31 fd ff 	lea    eax,[r14-0x2cea2]
    5149:	83 f8 0e             	cmp    eax,0xe
    514c:	0f 82 4a fe ff ff    	jb     0x4f9c
    5152:	44 89 f0             	mov    eax,r14d
    5155:	83 e0 fe             	and    eax,0xfffffffe
    5158:	3d 1e b8 02 00       	cmp    eax,0x2b81e
    515d:	0f 84 39 fe ff ff    	je     0x4f9c
    5163:	44 89 f0             	mov    eax,r14d
    5166:	83 e0 e0             	and    eax,0xffffffe0
    5169:	3d e0 a6 02 00       	cmp    eax,0x2a6e0
    516e:	0f 84 28 fe ff ff    	je     0x4f9c
    5174:	41 8d 86 c6 48 fd ff 	lea    eax,[r14-0x2b73a]
    517b:	83 f8 06             	cmp    eax,0x6
    517e:	0f 82 18 fe ff ff    	jb     0x4f9c
    5184:	41 8d 86 10 fe f1 ff 	lea    eax,[r14-0xe01f0]
    518b:	3d 10 fe 02 00       	cmp    eax,0x2fe10
    5190:	0f 82 06 fe ff ff    	jb     0x4f9c
    5196:	c6 03 80             	mov    BYTE PTR [rbx],0x80
    5199:	44 89 73 04          	mov    DWORD PTR [rbx+0x4],r14d
    519d:	48 83 c4 18          	add    rsp,0x18
    51a1:	5b                   	pop    rbx
    51a2:	41 5e                	pop    r14
    51a4:	c3                   	ret
    51a5:	48 81 ff d8 02 00 00 	cmp    rdi,0x2d8
    51ac:	b8 d7 02 00 00       	mov    eax,0x2d7
    51b1:	48 0f 42 f8          	cmovb  rdi,rax
    51b5:	be d7 02 00 00       	mov    esi,0x2d7
    51ba:	48 c7 c2 60 84 00 00 	mov    rdx,0x8460
    51c1:	e8 da e2 ff ff       	call   0x34a0
    51c6:	0f 0b                	ud2
    51c8:	bf 21 00 00 00       	mov    edi,0x21
    51cd:	be 21 00 00 00       	mov    esi,0x21
    51d2:	48 c7 c2 48 84 00 00 	mov    rdx,0x8448
    51d9:	e8 c2 e2 ff ff       	call   0x34a0
    51de:	0f 0b                	ud2
    51e0:	50                   	push   rax
    51e1:	e8 0a 00 00 00       	call   0x51f0
    51e6:	0f 0b                	ud2
    51e8:	cc                   	int3
    51e9:	cc                   	int3
    51ea:	cc                   	int3
    51eb:	cc                   	int3
    51ec:	cc                   	int3
    51ed:	cc                   	int3
    51ee:	cc                   	int3
    51ef:	cc                   	int3
    51f0:	48 81 ec d8 00 00 00 	sub    rsp,0xd8
    51f7:	48 89 94 24 c0 00 00 	mov    QWORD PTR [rsp+0xc0],rdx
    51fe:	00 
    51ff:	48 89 8c 24 c8 00 00 	mov    QWORD PTR [rsp+0xc8],rcx
    5206:	00 
    5207:	48 81 fe 01 01 00 00 	cmp    rsi,0x101
    520e:	72 6c                	jb     0x527c
    5210:	b8 00 01 00 00       	mov    eax,0x100
    5215:	80 bf 00 01 00 00 bf 	cmp    BYTE PTR [rdi+0x100],0xbf
    521c:	7f 2e                	jg     0x524c
    521e:	b8 ff 00 00 00       	mov    eax,0xff
    5223:	80 bf ff 00 00 00 bf 	cmp    BYTE PTR [rdi+0xff],0xbf
    522a:	7f 20                	jg     0x524c
    522c:	b8 fe 00 00 00       	mov    eax,0xfe
    5231:	80 bf fe 00 00 00 bf 	cmp    BYTE PTR [rdi+0xfe],0xbf
    5238:	7f 12                	jg     0x524c
    523a:	b8 fd 00 00 00       	mov    eax,0xfd
    523f:	80 bf fd 00 00 00 bf 	cmp    BYTE PTR [rdi+0xfd],0xbf
    5246:	0f 8e f9 01 00 00    	jle    0x5445
    524c:	48 89 7c 24 10       	mov    QWORD PTR [rsp+0x10],rdi
    5251:	48 89 44 24 18       	mov    QWORD PTR [rsp+0x18],rax
    5256:	b8 05 00 00 00       	mov    eax,0x5
    525b:	49 c7 c1 e0 7b 00 00 	mov    r9,0x7be0
    5262:	4c 89 8c 24 a0 00 00 	mov    QWORD PTR [rsp+0xa0],r9
    5269:	00 
    526a:	48 89 84 24 a8 00 00 	mov    QWORD PTR [rsp+0xa8],rax
    5271:	00 
    5272:	48 39 f2             	cmp    rdx,rsi
    5275:	76 31                	jbe    0x52a8
    5277:	e9 d6 00 00 00       	jmp    0x5352
    527c:	48 89 7c 24 10       	mov    QWORD PTR [rsp+0x10],rdi
    5281:	48 89 74 24 18       	mov    QWORD PTR [rsp+0x18],rsi
    5286:	49 c7 c1 68 88 00 00 	mov    r9,0x8868
    528d:	31 c0                	xor    eax,eax
    528f:	4c 89 8c 24 a0 00 00 	mov    QWORD PTR [rsp+0xa0],r9
    5296:	00 
    5297:	48 89 84 24 a8 00 00 	mov    QWORD PTR [rsp+0xa8],rax
    529e:	00 
    529f:	48 39 f2             	cmp    rdx,rsi
    52a2:	0f 87 aa 00 00 00    	ja     0x5352
    52a8:	48 39 f1             	cmp    rcx,rsi
    52ab:	0f 87 a1 00 00 00    	ja     0x5352
    52b1:	48 39 ca             	cmp    rdx,rcx
    52b4:	0f 86 23 01 00 00    	jbe    0x53dd
    52ba:	48 8d 84 24 c0 00 00 	lea    rax,[rsp+0xc0]
    52c1:	00 
    52c2:	48 89 44 24 50       	mov    QWORD PTR [rsp+0x50],rax
    52c7:	48 c7 44 24 58 20 59 	mov    QWORD PTR [rsp+0x58],0x5920
    52ce:	00 00 
    52d0:	48 8d 84 24 c8 00 00 	lea    rax,[rsp+0xc8]
    52d7:	00 
    52d8:	48 89 44 24 60       	mov    QWORD PTR [rsp+0x60],rax
    52dd:	48 c7 44 24 68 20 59 	mov    QWORD PTR [rsp+0x68],0x5920
    52e4:	00 00 
    52e6:	48 8d 44 24 10       	lea    rax,[rsp+0x10]
    52eb:	48 89 44 24 70       	mov    QWORD PTR [rsp+0x70],rax
    52f0:	48 c7 44 24 78 b0 3f 	mov    QWORD PTR [rsp+0x78],0x3fb0
    52f7:	00 00 
    52f9:	48 8d 84 24 a0 00 00 	lea    rax,[rsp+0xa0]
    5300:	00 
    5301:	48 89 84 24 80 00 00 	mov    QWORD PTR [rsp+0x80],rax
    5308:	00 
    5309:	48 c7 84 24 88 00 00 	mov    QWORD PTR [rsp+0x88],0x3fb0
    5310:	00 b0 3f 00 00 
    5315:	48 c7 44 24 20 f8 7b 	mov    QWORD PTR [rsp+0x20],0x7bf8
    531c:	00 00 
    531e:	48 c7 44 24 28 04 00 	mov    QWORD PTR [rsp+0x28],0x4
    5325:	00 00 
    5327:	48 c7 44 24 40 00 00 	mov    QWORD PTR [rsp+0x40],0x0
    532e:	00 00 
    5330:	48 8d 44 24 50       	lea    rax,[rsp+0x50]
    5335:	48 89 44 24 30       	mov    QWORD PTR [rsp+0x30],rax
    533a:	48 c7 44 24 38 04 00 	mov    QWORD PTR [rsp+0x38],0x4
    5341:	00 00 
    5343:	48 8d 7c 24 20       	lea    rdi,[rsp+0x20]
    5348:	4c 89 c6             	mov    rsi,r8
    534b:	e8 80 e0 ff ff       	call   0x33d0
    5350:	0f 0b                	ud2
    5352:	48 39 f2             	cmp    rdx,rsi
    5355:	48 0f 47 ca          	cmova  rcx,rdx
    5359:	48 89 8c 24 b0 00 00 	mov    QWORD PTR [rsp+0xb0],rcx
    5360:	00 
    5361:	48 8d 84 24 b0 00 00 	lea    rax,[rsp+0xb0]
    5368:	00 
    5369:	48 89 44 24 50       	mov    QWORD PTR [rsp+0x50],rax
    536e:	48 c7 44 24 58 20 59 	mov    QWORD PTR [rsp+0x58],0x5920
    5375:	00 00 
    5377:	48 8d 44 24 10       	lea    rax,[rsp+0x10]
    537c:	48 89 44 24 60       	mov    QWORD PTR [rsp+0x60],rax
    5381:	48 c7 44 24 68 b0 3f 	mov    QWORD PTR [rsp+0x68],0x3fb0
    5388:	00 00 
    538a:	48 8d 84 24 a0 00 00 	lea    rax,[rsp+0xa0]
    5391:	00 
    5392:	48 89 44 24 70       	mov    QWORD PTR [rsp+0x70],rax
    5397:	48 c7 44 24 78 b0 3f 	mov    QWORD PTR [rsp+0x78],0x3fb0
    539e:	00 00 
    53a0:	48 c7 44 24 20 d8 7c 	mov    QWORD PTR [rsp+0x20],0x7cd8
    53a7:	00 00 
    53a9:	48 c7 44 24 28 03 00 	mov    QWORD PTR [rsp+0x28],0x3
    53b0:	00 00 
    53b2:	48 c7 44 24 40 00 00 	mov    QWORD PTR [rsp+0x40],0x0
    53b9:	00 00 
    53bb:	48 8d 44 24 50       	lea    rax,[rsp+0x50]
    53c0:	48 89 44 24 30       	mov    QWORD PTR [rsp+0x30],rax
    53c5:	48 c7 44 24 38 03 00 	mov    QWORD PTR [rsp+0x38],0x3
    53cc:	00 00 
    53ce:	48 8d 7c 24 20       	lea    rdi,[rsp+0x20]
    53d3:	4c 89 c6             	mov    rsi,r8
    53d6:	e8 f5 df ff ff       	call   0x33d0
    53db:	0f 0b                	ud2
    53dd:	48 85 d2             	test   rdx,rdx
    53e0:	74 0b                	je     0x53ed
    53e2:	48 39 f2             	cmp    rdx,rsi
    53e5:	73 06                	jae    0x53ed
    53e7:	80 3c 17 c0          	cmp    BYTE PTR [rdi+rdx*1],0xc0
    53eb:	7c 03                	jl     0x53f0
    53ed:	48 89 ca             	mov    rdx,rcx
    53f0:	48 89 94 24 d0 00 00 	mov    QWORD PTR [rsp+0xd0],rdx
    53f7:	00 
    53f8:	48 89 f0             	mov    rax,rsi
    53fb:	48 39 f2             	cmp    rdx,rsi
    53fe:	0f 83 9d 00 00 00    	jae    0x54a1
    5404:	31 c9                	xor    ecx,ecx
    5406:	48 89 d0             	mov    rax,rdx
    5409:	48 83 e8 03          	sub    rax,0x3
    540d:	48 0f 43 c8          	cmovae rcx,rax
    5411:	48 8d 42 01          	lea    rax,[rdx+0x1]
    5415:	48 39 c1             	cmp    rcx,rax
    5418:	76 14                	jbe    0x542e
    541a:	48 89 cf             	mov    rdi,rcx
    541d:	48 89 c6             	mov    rsi,rax
    5420:	48 c7 c2 80 7d 00 00 	mov    rdx,0x7d80
    5427:	e8 d4 ef ff ff       	call   0x4400
    542c:	0f 0b                	ud2
    542e:	74 6e                	je     0x549e
    5430:	4c 8d 0c 0f          	lea    r9,[rdi+rcx*1]
    5434:	48 01 f8             	add    rax,rdi
    5437:	4c 29 c8             	sub    rax,r9
    543a:	80 3c 17 bf          	cmp    BYTE PTR [rdi+rdx*1],0xbf
    543e:	7e 13                	jle    0x5453
    5440:	48 ff c8             	dec    rax
    5443:	eb 59                	jmp    0x549e
    5445:	b9 fd 00 00 00       	mov    ecx,0xfd
    544a:	31 d2                	xor    edx,edx
    544c:	e8 8f fd ff ff       	call   0x51e0
    5451:	0f 0b                	ud2
    5453:	48 39 d1             	cmp    rcx,rdx
    5456:	74 46                	je     0x549e
    5458:	48 01 fa             	add    rdx,rdi
    545b:	80 7a ff bf          	cmp    BYTE PTR [rdx-0x1],0xbf
    545f:	7e 06                	jle    0x5467
    5461:	48 83 c0 fe          	add    rax,0xfffffffffffffffe
    5465:	eb 37                	jmp    0x549e
    5467:	4c 8d 52 ff          	lea    r10,[rdx-0x1]
    546b:	4d 39 d1             	cmp    r9,r10
    546e:	74 2e                	je     0x549e
    5470:	80 7a fe bf          	cmp    BYTE PTR [rdx-0x2],0xbf
    5474:	7e 06                	jle    0x547c
    5476:	48 83 c0 fd          	add    rax,0xfffffffffffffffd
    547a:	eb 22                	jmp    0x549e
    547c:	4c 8d 52 fe          	lea    r10,[rdx-0x2]
    5480:	4d 39 d1             	cmp    r9,r10
    5483:	74 19                	je     0x549e
    5485:	80 7a fd bf          	cmp    BYTE PTR [rdx-0x3],0xbf
    5489:	7e 06                	jle    0x5491
    548b:	48 83 c0 fc          	add    rax,0xfffffffffffffffc
    548f:	eb 0d                	jmp    0x549e
    5491:	48 83 c2 fd          	add    rdx,0xfffffffffffffffd
    5495:	49 39 d1             	cmp    r9,rdx
    5498:	74 04                	je     0x549e
    549a:	48 83 c0 fb          	add    rax,0xfffffffffffffffb
    549e:	48 01 c8             	add    rax,rcx
    54a1:	48 85 c0             	test   rax,rax
    54a4:	75 05                	jne    0x54ab
    54a6:	48 89 f1             	mov    rcx,rsi
    54a9:	eb 1d                	jmp    0x54c8
    54ab:	48 89 f1             	mov    rcx,rsi
    54ae:	48 29 c1             	sub    rcx,rax
    54b1:	76 13                	jbe    0x54c6
    54b3:	80 3c 07 bf          	cmp    BYTE PTR [rdi+rax*1],0xbf
    54b7:	7f 0f                	jg     0x54c8
    54b9:	48 89 c2             	mov    rdx,rax
    54bc:	48 89 f1             	mov    rcx,rsi
    54bf:	e8 1c fd ff ff       	call   0x51e0
    54c4:	0f 0b                	ud2
    54c6:	75 f1                	jne    0x54b9
    54c8:	48 85 c9             	test   rcx,rcx
    54cb:	75 16                	jne    0x54e3
    54cd:	be 2b 00 00 00       	mov    esi,0x2b
    54d2:	48 c7 c7 eb 77 00 00 	mov    rdi,0x77eb
    54d9:	4c 89 c2             	mov    rdx,r8
    54dc:	e8 7f ea ff ff       	call   0x3f60
    54e1:	0f 0b                	ud2
    54e3:	0f b6 14 07          	movzx  edx,BYTE PTR [rdi+rax*1]
    54e7:	84 d2                	test   dl,dl
    54e9:	78 0e                	js     0x54f9
    54eb:	89 54 24 0c          	mov    DWORD PTR [rsp+0xc],edx
    54ef:	b9 01 00 00 00       	mov    ecx,0x1
    54f4:	e9 85 00 00 00       	jmp    0x557e
    54f9:	89 d1                	mov    ecx,edx
    54fb:	83 e1 1f             	and    ecx,0x1f
    54fe:	44 0f b6 4c 07 01    	movzx  r9d,BYTE PTR [rdi+rax*1+0x1]
    5504:	41 83 e1 3f          	and    r9d,0x3f
    5508:	80 fa df             	cmp    dl,0xdf
    550b:	76 33                	jbe    0x5540
    550d:	0f b6 74 07 02       	movzx  esi,BYTE PTR [rdi+rax*1+0x2]
    5512:	41 c1 e1 06          	shl    r9d,0x6
    5516:	83 e6 3f             	and    esi,0x3f
    5519:	44 09 ce             	or     esi,r9d
    551c:	80 fa f0             	cmp    dl,0xf0
    551f:	72 29                	jb     0x554a
    5521:	0f b6 54 07 03       	movzx  edx,BYTE PTR [rdi+rax*1+0x3]
    5526:	83 e1 07             	and    ecx,0x7
    5529:	c1 e1 12             	shl    ecx,0x12
    552c:	c1 e6 06             	shl    esi,0x6
    552f:	83 e2 3f             	and    edx,0x3f
    5532:	09 f2                	or     edx,esi
    5534:	09 ca                	or     edx,ecx
    5536:	81 fa 00 00 11 00    	cmp    edx,0x110000
    553c:	74 8f                	je     0x54cd
    553e:	eb 11                	jmp    0x5551
    5540:	c1 e1 06             	shl    ecx,0x6
    5543:	44 09 c9             	or     ecx,r9d
    5546:	89 ca                	mov    edx,ecx
    5548:	eb 07                	jmp    0x5551
    554a:	c1 e1 0c             	shl    ecx,0xc
    554d:	09 ce                	or     esi,ecx
    554f:	89 f2                	mov    edx,esi
    5551:	89 54 24 0c          	mov    DWORD PTR [rsp+0xc],edx
    5555:	b9 01 00 00 00       	mov    ecx,0x1
    555a:	81 fa 80 00 00 00    	cmp    edx,0x80
    5560:	72 1c                	jb     0x557e
    5562:	b9 02 00 00 00       	mov    ecx,0x2
    5567:	81 fa 00 08 00 00    	cmp    edx,0x800
    556d:	72 0f                	jb     0x557e
    556f:	81 fa 00 00 01 00    	cmp    edx,0x10000
    5575:	b9 04 00 00 00       	mov    ecx,0x4
    557a:	48 83 d9 00          	sbb    rcx,0x0
    557e:	48 01 c1             	add    rcx,rax
    5581:	48 89 84 24 b0 00 00 	mov    QWORD PTR [rsp+0xb0],rax
    5588:	00 
    5589:	48 89 8c 24 b8 00 00 	mov    QWORD PTR [rsp+0xb8],rcx
    5590:	00 
    5591:	48 8d 84 24 d0 00 00 	lea    rax,[rsp+0xd0]
    5598:	00 
    5599:	48 89 44 24 50       	mov    QWORD PTR [rsp+0x50],rax
    559e:	48 c7 44 24 58 20 59 	mov    QWORD PTR [rsp+0x58],0x5920
    55a5:	00 00 
    55a7:	48 8d 44 24 0c       	lea    rax,[rsp+0xc]
    55ac:	48 89 44 24 60       	mov    QWORD PTR [rsp+0x60],rax
    55b1:	48 c7 44 24 68 50 56 	mov    QWORD PTR [rsp+0x68],0x5650
    55b8:	00 00 
    55ba:	48 8d 84 24 b0 00 00 	lea    rax,[rsp+0xb0]
    55c1:	00 
    55c2:	48 89 44 24 70       	mov    QWORD PTR [rsp+0x70],rax
    55c7:	48 c7 44 24 78 80 57 	mov    QWORD PTR [rsp+0x78],0x5780
    55ce:	00 00 
    55d0:	48 8d 44 24 10       	lea    rax,[rsp+0x10]
    55d5:	48 89 84 24 80 00 00 	mov    QWORD PTR [rsp+0x80],rax
    55dc:	00 
    55dd:	48 c7 84 24 88 00 00 	mov    QWORD PTR [rsp+0x88],0x3fb0
    55e4:	00 b0 3f 00 00 
    55e9:	48 8d 84 24 a0 00 00 	lea    rax,[rsp+0xa0]
    55f0:	00 
    55f1:	48 89 84 24 90 00 00 	mov    QWORD PTR [rsp+0x90],rax
    55f8:	00 
    55f9:	48 c7 84 24 98 00 00 	mov    QWORD PTR [rsp+0x98],0x3fb0
    5600:	00 b0 3f 00 00 
    5605:	48 c7 44 24 20 70 7c 	mov    QWORD PTR [rsp+0x20],0x7c70
    560c:	00 00 
    560e:	48 c7 44 24 28 05 00 	mov    QWORD PTR [rsp+0x28],0x5
    5615:	00 00 
    5617:	48 c7 44 24 40 00 00 	mov    QWORD PTR [rsp+0x40],0x0
    561e:	00 00 
    5620:	48 8d 44 24 50       	lea    rax,[rsp+0x50]
    5625:	48 89 44 24 30       	mov    QWORD PTR [rsp+0x30],rax
    562a:	48 c7 44 24 38 05 00 	mov    QWORD PTR [rsp+0x38],0x5
    5631:	00 00 
    5633:	48 8d 7c 24 20       	lea    rdi,[rsp+0x20]
    5638:	4c 89 c6             	mov    rsi,r8
    563b:	e8 90 dd ff ff       	call   0x33d0
    5640:	0f 0b                	ud2
    5642:	cc                   	int3
    5643:	cc                   	int3
    5644:	cc                   	int3
    5645:	cc                   	int3
    5646:	cc                   	int3
    5647:	cc                   	int3
    5648:	cc                   	int3
    5649:	cc                   	int3
    564a:	cc                   	int3
    564b:	cc                   	int3
    564c:	cc                   	int3
    564d:	cc                   	int3
    564e:	cc                   	int3
    564f:	cc                   	int3
    5650:	55                   	push   rbp
    5651:	41 57                	push   r15
    5653:	41 56                	push   r14
    5655:	41 54                	push   r12
    5657:	53                   	push   rbx
    5658:	48 83 ec 10          	sub    rsp,0x10
    565c:	49 89 fe             	mov    r14,rdi
    565f:	48 8b 5e 20          	mov    rbx,QWORD PTR [rsi+0x20]
    5663:	48 8b 46 28          	mov    rax,QWORD PTR [rsi+0x28]
    5667:	48 8b 40 20          	mov    rax,QWORD PTR [rax+0x20]
    566b:	48 89 df             	mov    rdi,rbx
    566e:	be 27 00 00 00       	mov    esi,0x27
    5673:	49 89 c4             	mov    r12,rax
    5676:	ff d0                	call   rax
    5678:	84 c0                	test   al,al
    567a:	74 0f                	je     0x568b
    567c:	b0 01                	mov    al,0x1
    567e:	48 83 c4 10          	add    rsp,0x10
    5682:	5b                   	pop    rbx
    5683:	41 5c                	pop    r12
    5685:	41 5e                	pop    r14
    5687:	41 5f                	pop    r15
    5689:	5d                   	pop    rbp
    568a:	c3                   	ret
    568b:	41 8b 36             	mov    esi,DWORD PTR [r14]
    568e:	48 89 e7             	mov    rdi,rsp
    5691:	ba 01 01 00 00       	mov    edx,0x101
    5696:	e8 65 f7 ff ff       	call   0x4e00
    569b:	80 3c 24 80          	cmp    BYTE PTR [rsp],0x80
    569f:	75 64                	jne    0x5705
    56a1:	40 b5 80             	mov    bpl,0x80
    56a4:	eb 2a                	jmp    0x56d0
    56a6:	66 2e 0f 1f 84 00 00 	cs nop WORD PTR [rax+rax*1+0x0]
    56ad:	00 00 00 
    56b0:	8b 74 24 04          	mov    esi,DWORD PTR [rsp+0x4]
    56b4:	c7 44 24 08 00 00 00 	mov    DWORD PTR [rsp+0x8],0x0
    56bb:	00 
    56bc:	48 c7 04 24 00 00 00 	mov    QWORD PTR [rsp],0x0
    56c3:	00 
    56c4:	31 ed                	xor    ebp,ebp
    56c6:	48 89 df             	mov    rdi,rbx
    56c9:	41 ff d4             	call   r12
    56cc:	84 c0                	test   al,al
    56ce:	75 ac                	jne    0x567c
    56d0:	40 80 fd 80          	cmp    bpl,0x80
    56d4:	74 da                	je     0x56b0
    56d6:	44 0f b6 74 24 0a    	movzx  r14d,BYTE PTR [rsp+0xa]
    56dc:	44 3a 74 24 0b       	cmp    r14b,BYTE PTR [rsp+0xb]
    56e1:	73 67                	jae    0x574a
    56e3:	41 8d 46 01          	lea    eax,[r14+0x1]
    56e7:	88 44 24 0a          	mov    BYTE PTR [rsp+0xa],al
    56eb:	41 80 fe 0a          	cmp    r14b,0xa
    56ef:	73 72                	jae    0x5763
    56f1:	42 0f b6 34 34       	movzx  esi,BYTE PTR [rsp+r14*1]
    56f6:	48 89 df             	mov    rdi,rbx
    56f9:	41 ff d4             	call   r12
    56fc:	84 c0                	test   al,al
    56fe:	74 d0                	je     0x56d0
    5700:	e9 77 ff ff ff       	jmp    0x567c
    5705:	44 0f b6 7c 24 0b    	movzx  r15d,BYTE PTR [rsp+0xb]
    570b:	44 0f b6 74 24 0a    	movzx  r14d,BYTE PTR [rsp+0xa]
    5711:	66 66 66 66 66 66 2e 	data16 data16 data16 data16 data16 cs nop WORD PTR [rax+rax*1+0x0]
    5718:	0f 1f 84 00 00 00 00 
    571f:	00 
    5720:	4d 39 fe             	cmp    r14,r15
    5723:	73 25                	jae    0x574a
    5725:	41 8d 46 01          	lea    eax,[r14+0x1]
    5729:	88 44 24 0a          	mov    BYTE PTR [rsp+0xa],al
    572d:	49 83 fe 09          	cmp    r14,0x9
    5731:	77 30                	ja     0x5763
    5733:	42 0f b6 34 34       	movzx  esi,BYTE PTR [rsp+r14*1]
    5738:	48 89 df             	mov    rdi,rbx
    573b:	41 ff d4             	call   r12
    573e:	49 ff c6             	inc    r14
    5741:	84 c0                	test   al,al
    5743:	74 db                	je     0x5720
    5745:	e9 32 ff ff ff       	jmp    0x567c
    574a:	48 89 df             	mov    rdi,rbx
    574d:	be 27 00 00 00       	mov    esi,0x27
    5752:	4c 89 e0             	mov    rax,r12
    5755:	48 83 c4 10          	add    rsp,0x10
    5759:	5b                   	pop    rbx
    575a:	41 5c                	pop    r12
    575c:	41 5e                	pop    r14
    575e:	41 5f                	pop    r15
    5760:	5d                   	pop    rbp
    5761:	ff e0                	jmp    rax
    5763:	be 0a 00 00 00       	mov    esi,0xa
    5768:	4c 89 f7             	mov    rdi,r14
    576b:	48 c7 c2 f0 84 00 00 	mov    rdx,0x84f0
    5772:	e8 29 dd ff ff       	call   0x34a0
    5777:	0f 0b                	ud2
    5779:	cc                   	int3
    577a:	cc                   	int3
    577b:	cc                   	int3
    577c:	cc                   	int3
    577d:	cc                   	int3
    577e:	cc                   	int3
    577f:	cc                   	int3
    5780:	41 56                	push   r14
    5782:	53                   	push   rbx
    5783:	48 83 ec 38          	sub    rsp,0x38
    5787:	48 89 f3             	mov    rbx,rsi
    578a:	49 89 fe             	mov    r14,rdi
    578d:	48 8b 3f             	mov    rdi,QWORD PTR [rdi]
    5790:	e8 6b ea ff ff       	call   0x4200
    5795:	84 c0                	test   al,al
    5797:	75 43                	jne    0x57dc
    5799:	48 c7 44 24 08 90 78 	mov    QWORD PTR [rsp+0x8],0x7890
    57a0:	00 00 
    57a2:	48 c7 44 24 10 01 00 	mov    QWORD PTR [rsp+0x10],0x1
    57a9:	00 00 
    57ab:	48 c7 44 24 28 00 00 	mov    QWORD PTR [rsp+0x28],0x0
    57b2:	00 00 
    57b4:	48 c7 44 24 18 68 88 	mov    QWORD PTR [rsp+0x18],0x8868
    57bb:	00 00 
    57bd:	48 c7 44 24 20 00 00 	mov    QWORD PTR [rsp+0x20],0x0
    57c4:	00 00 
    57c6:	48 8b 7b 20          	mov    rdi,QWORD PTR [rbx+0x20]
    57ca:	48 8b 73 28          	mov    rsi,QWORD PTR [rbx+0x28]
    57ce:	48 8d 54 24 08       	lea    rdx,[rsp+0x8]
    57d3:	e8 08 e8 ff ff       	call   0x3fe0
    57d8:	84 c0                	test   al,al
    57da:	74 0a                	je     0x57e6
    57dc:	b0 01                	mov    al,0x1
    57de:	48 83 c4 38          	add    rsp,0x38
    57e2:	5b                   	pop    rbx
    57e3:	41 5e                	pop    r14
    57e5:	c3                   	ret
    57e6:	49 8b 7e 08          	mov    rdi,QWORD PTR [r14+0x8]
    57ea:	48 89 de             	mov    rsi,rbx
    57ed:	48 83 c4 38          	add    rsp,0x38
    57f1:	5b                   	pop    rbx
    57f2:	41 5e                	pop    r14
    57f4:	e9 07 ea ff ff       	jmp    0x4200
    57f9:	cc                   	int3
    57fa:	cc                   	int3
    57fb:	cc                   	int3
    57fc:	cc                   	int3
    57fd:	cc                   	int3
    57fe:	cc                   	int3
    57ff:	cc                   	int3
    5800:	41 57                	push   r15
    5802:	41 56                	push   r14
    5804:	41 54                	push   r12
    5806:	53                   	push   rbx
    5807:	50                   	push   rax
    5808:	4c 8b 54 24 30       	mov    r10,QWORD PTR [rsp+0x30]
    580d:	41 89 fb             	mov    r11d,edi
    5810:	41 c1 eb 08          	shr    r11d,0x8
    5814:	48 8d 1c 56          	lea    rbx,[rsi+rdx*2]
    5818:	31 c0                	xor    eax,eax
    581a:	49 89 f7             	mov    r15,rsi
    581d:	44 0f b6 76 01       	movzx  r14d,BYTE PTR [rsi+0x1]
    5822:	48 83 c6 02          	add    rsi,0x2
    5826:	4a 8d 14 30          	lea    rdx,[rax+r14*1]
    582a:	45 38 1f             	cmp    BYTE PTR [r15],r11b
    582d:	75 41                	jne    0x5870
    582f:	48 39 d0             	cmp    rax,rdx
    5832:	0f 87 ab 00 00 00    	ja     0x58e3
    5838:	4c 39 c2             	cmp    rdx,r8
    583b:	0f 87 b6 00 00 00    	ja     0x58f7
    5841:	48 01 c8             	add    rax,rcx
    5844:	45 31 ff             	xor    r15d,r15d
    5847:	66 0f 1f 84 00 00 00 	nop    WORD PTR [rax+rax*1+0x0]
    584e:	00 00 
    5850:	4d 39 fe             	cmp    r14,r15
    5853:	74 1d                	je     0x5872
    5855:	4d 8d 67 01          	lea    r12,[r15+0x1]
    5859:	42 38 3c 38          	cmp    BYTE PTR [rax+r15*1],dil
    585d:	4d 89 e7             	mov    r15,r12
    5860:	75 ee                	jne    0x5850
    5862:	eb 6f                	jmp    0x58d3
    5864:	66 66 66 2e 0f 1f 84 	data16 data16 cs nop WORD PTR [rax+rax*1+0x0]
    586b:	00 00 00 00 00 
    5870:	77 08                	ja     0x587a
    5872:	48 89 d0             	mov    rax,rdx
    5875:	48 39 de             	cmp    rsi,rbx
    5878:	75 a0                	jne    0x581a
    587a:	4d 01 ca             	add    r10,r9
    587d:	0f b7 cf             	movzx  ecx,di
    5880:	b0 01                	mov    al,0x1
    5882:	66 66 66 66 66 2e 0f 	data16 data16 data16 data16 cs nop WORD PTR [rax+rax*1+0x0]
    5889:	1f 84 00 00 00 00 00 
    5890:	49 8d 71 01          	lea    rsi,[r9+0x1]
    5894:	41 0f b6 11          	movzx  edx,BYTE PTR [r9]
    5898:	84 d2                	test   dl,dl
    589a:	78 14                	js     0x58b0
    589c:	49 89 f1             	mov    r9,rsi
    589f:	29 d1                	sub    ecx,edx
    58a1:	79 27                	jns    0x58ca
    58a3:	eb 30                	jmp    0x58d5
    58a5:	66 66 2e 0f 1f 84 00 	data16 cs nop WORD PTR [rax+rax*1+0x0]
    58ac:	00 00 00 00 
    58b0:	4c 39 d6             	cmp    rsi,r10
    58b3:	74 4f                	je     0x5904
    58b5:	41 0f b6 71 01       	movzx  esi,BYTE PTR [r9+0x1]
    58ba:	49 83 c1 02          	add    r9,0x2
    58be:	83 e2 7f             	and    edx,0x7f
    58c1:	c1 e2 08             	shl    edx,0x8
    58c4:	09 f2                	or     edx,esi
    58c6:	29 d1                	sub    ecx,edx
    58c8:	78 0b                	js     0x58d5
    58ca:	34 01                	xor    al,0x1
    58cc:	4d 39 d1             	cmp    r9,r10
    58cf:	75 bf                	jne    0x5890
    58d1:	eb 02                	jmp    0x58d5
    58d3:	31 c0                	xor    eax,eax
    58d5:	24 01                	and    al,0x1
    58d7:	48 83 c4 08          	add    rsp,0x8
    58db:	5b                   	pop    rbx
    58dc:	41 5c                	pop    r12
    58de:	41 5e                	pop    r14
    58e0:	41 5f                	pop    r15
    58e2:	c3                   	ret
    58e3:	48 89 c7             	mov    rdi,rax
    58e6:	48 89 d6             	mov    rsi,rdx
    58e9:	48 c7 c2 30 7e 00 00 	mov    rdx,0x7e30
    58f0:	e8 0b eb ff ff       	call   0x4400
    58f5:	0f 0b                	ud2
    58f7:	48 89 d7             	mov    rdi,rdx
    58fa:	4c 89 c6             	mov    rsi,r8
    58fd:	e8 8e df ff ff       	call   0x3890
    5902:	0f 0b                	ud2
    5904:	be 2b 00 00 00       	mov    esi,0x2b
    5909:	48 c7 c7 eb 77 00 00 	mov    rdi,0x77eb
    5910:	48 c7 c2 18 7e 00 00 	mov    rdx,0x7e18
    5917:	e8 44 e6 ff ff       	call   0x3f60
    591c:	0f 0b                	ud2
    591e:	cc                   	int3
    591f:	cc                   	int3
    5920:	48 83 ec 28          	sub    rsp,0x28
    5924:	48 8b 0f             	mov    rcx,QWORD PTR [rdi]
    5927:	b8 27 00 00 00       	mov    eax,0x27
    592c:	48 81 f9 10 27 00 00 	cmp    rcx,0x2710
    5933:	0f 82 b6 00 00 00    	jb     0x59ef
    5939:	41 b8 27 00 00 00    	mov    r8d,0x27
    593f:	48 bf 4b 59 86 38 d6 	movabs rdi,0x346dc5d63886594b
    5946:	c5 6d 34 
    5949:	0f 1f 80 00 00 00 00 	nop    DWORD PTR [rax+0x0]
    5950:	48 89 c8             	mov    rax,rcx
    5953:	48 f7 e7             	mul    rdi
    5956:	48 c1 ea 0b          	shr    rdx,0xb
    595a:	69 c2 10 27 00 00    	imul   eax,edx,0x2710
    5960:	41 89 c9             	mov    r9d,ecx
    5963:	41 29 c1             	sub    r9d,eax
    5966:	45 69 d1 7b 14 00 00 	imul   r10d,r9d,0x147b
    596d:	41 c1 ea 13          	shr    r10d,0x13
    5971:	41 6b c2 64          	imul   eax,r10d,0x64
    5975:	41 29 c1             	sub    r9d,eax
    5978:	45 0f b7 c9          	movzx  r9d,r9w
    597c:	49 8d 40 fc          	lea    rax,[r8-0x4]
    5980:	47 0f b7 94 12 20 7a 	movzx  r10d,WORD PTR [r10+r10*1+0x7a20]
    5987:	00 00 
    5989:	66 46 89 54 04 fd    	mov    WORD PTR [rsp+r8*1-0x3],r10w
    598f:	47 0f b7 8c 09 20 7a 	movzx  r9d,WORD PTR [r9+r9*1+0x7a20]
    5996:	00 00 
    5998:	66 46 89 4c 04 ff    	mov    WORD PTR [rsp+r8*1-0x1],r9w
    599e:	49 89 c0             	mov    r8,rax
    59a1:	48 81 f9 ff e0 f5 05 	cmp    rcx,0x5f5e0ff
    59a8:	48 89 d1             	mov    rcx,rdx
    59ab:	77 a3                	ja     0x5950
    59ad:	48 83 fa 63          	cmp    rdx,0x63
    59b1:	76 2b                	jbe    0x59de
    59b3:	0f b7 ca             	movzx  ecx,dx
    59b6:	c1 e9 02             	shr    ecx,0x2
    59b9:	69 c9 7b 14 00 00    	imul   ecx,ecx,0x147b
    59bf:	c1 e9 11             	shr    ecx,0x11
    59c2:	6b f9 64             	imul   edi,ecx,0x64
    59c5:	29 fa                	sub    edx,edi
    59c7:	0f b7 d2             	movzx  edx,dx
    59ca:	0f b7 94 12 20 7a 00 	movzx  edx,WORD PTR [rdx+rdx*1+0x7a20]
    59d1:	00 
    59d2:	66 89 54 04 ff       	mov    WORD PTR [rsp+rax*1-0x1],dx
    59d7:	48 83 c0 fe          	add    rax,0xfffffffffffffffe
    59db:	48 89 ca             	mov    rdx,rcx
    59de:	48 83 fa 0a          	cmp    rdx,0xa
    59e2:	73 16                	jae    0x59fa
    59e4:	80 c2 30             	add    dl,0x30
    59e7:	88 14 04             	mov    BYTE PTR [rsp+rax*1],dl
    59ea:	48 ff c8             	dec    rax
    59ed:	eb 1c                	jmp    0x5a0b
    59ef:	48 89 ca             	mov    rdx,rcx
    59f2:	48 83 fa 63          	cmp    rdx,0x63
    59f6:	77 bb                	ja     0x59b3
    59f8:	eb e4                	jmp    0x59de
    59fa:	0f b7 8c 12 20 7a 00 	movzx  ecx,WORD PTR [rdx+rdx*1+0x7a20]
    5a01:	00 
    5a02:	66 89 4c 04 ff       	mov    WORD PTR [rsp+rax*1-0x1],cx
    5a07:	48 83 c0 fe          	add    rax,0xfffffffffffffffe
    5a0b:	48 8d 0c 04          	lea    rcx,[rsp+rax*1]
    5a0f:	48 ff c1             	inc    rcx
    5a12:	41 b8 27 00 00 00    	mov    r8d,0x27
    5a18:	49 29 c0             	sub    r8,rax
    5a1b:	48 89 f7             	mov    rdi,rsi
    5a1e:	48 c7 c6 68 88 00 00 	mov    rsi,0x8868
    5a25:	31 d2                	xor    edx,edx
    5a27:	e8 f4 da ff ff       	call   0x3520
    5a2c:	48 83 c4 28          	add    rsp,0x28
    5a30:	c3                   	ret
    5a31:	cc                   	int3
    5a32:	cc                   	int3
    5a33:	cc                   	int3
    5a34:	cc                   	int3
    5a35:	cc                   	int3
    5a36:	cc                   	int3
    5a37:	cc                   	int3
    5a38:	cc                   	int3
    5a39:	cc                   	int3
    5a3a:	cc                   	int3
    5a3b:	cc                   	int3
    5a3c:	cc                   	int3
    5a3d:	cc                   	int3
    5a3e:	cc                   	int3
    5a3f:	cc                   	int3
    5a40:	48 81 ec 88 00 00 00 	sub    rsp,0x88
    5a47:	48 8b 0f             	mov    rcx,QWORD PTR [rdi]
    5a4a:	ba 81 00 00 00       	mov    edx,0x81
    5a4f:	b8 30 00 00 00       	mov    eax,0x30
    5a54:	49 89 c8             	mov    r8,rcx
    5a57:	66 0f 1f 84 00 00 00 	nop    WORD PTR [rax+rax*1+0x0]
    5a5e:	00 00 
    5a60:	48 89 d7             	mov    rdi,rdx
    5a63:	49 c1 e8 04          	shr    r8,0x4
    5a67:	89 ca                	mov    edx,ecx
    5a69:	80 e2 0f             	and    dl,0xf
    5a6c:	80 fa 0a             	cmp    dl,0xa
    5a6f:	41 b9 57 00 00 00    	mov    r9d,0x57
    5a75:	44 0f 42 c8          	cmovb  r9d,eax
    5a79:	41 00 d1             	add    r9b,dl
    5a7c:	44 88 4c 3c 06       	mov    BYTE PTR [rsp+rdi*1+0x6],r9b
    5a81:	48 8d 57 ff          	lea    rdx,[rdi-0x1]
    5a85:	48 83 f9 10          	cmp    rcx,0x10
    5a89:	4c 89 c1             	mov    rcx,r8
    5a8c:	73 d2                	jae    0x5a60
    5a8e:	48 83 c7 fe          	add    rdi,0xfffffffffffffffe
    5a92:	48 81 ff 80 00 00 00 	cmp    rdi,0x80
    5a99:	77 2d                	ja     0x5ac8
    5a9b:	41 b8 81 00 00 00    	mov    r8d,0x81
    5aa1:	49 29 d0             	sub    r8,rdx
    5aa4:	48 8d 0c 3c          	lea    rcx,[rsp+rdi*1]
    5aa8:	48 83 c1 08          	add    rcx,0x8
    5aac:	ba 02 00 00 00       	mov    edx,0x2
    5ab1:	48 89 f7             	mov    rdi,rsi
    5ab4:	48 c7 c6 b0 89 00 00 	mov    rsi,0x89b0
    5abb:	e8 60 da ff ff       	call   0x3520
    5ac0:	48 81 c4 88 00 00 00 	add    rsp,0x88
    5ac7:	c3                   	ret
    5ac8:	e8 53 d9 ff ff       	call   0x3420
    5acd:	0f 0b                	ud2
    5acf:	cc                   	int3
    5ad0:	41 56                	push   r14
    5ad2:	53                   	push   rbx
    5ad3:	48 81 ec 98 00 00 00 	sub    rsp,0x98
    5ada:	48 89 f3             	mov    rbx,rsi
    5add:	49 89 fe             	mov    r14,rdi
    5ae0:	48 8b 7e 20          	mov    rdi,QWORD PTR [rsi+0x20]
    5ae4:	48 8b 46 28          	mov    rax,QWORD PTR [rsi+0x28]
    5ae8:	ba 10 00 00 00       	mov    edx,0x10
    5aed:	48 c7 c6 a8 75 00 00 	mov    rsi,0x75a8
    5af4:	ff 50 18             	call   QWORD PTR [rax+0x18]
    5af7:	48 89 5c 24 10       	mov    QWORD PTR [rsp+0x10],rbx
    5afc:	88 44 24 18          	mov    BYTE PTR [rsp+0x18],al
    5b00:	48 c7 44 24 08 00 00 	mov    QWORD PTR [rsp+0x8],0x0
    5b07:	00 00 
    5b09:	c6 44 24 19 00       	mov    BYTE PTR [rsp+0x19],0x0
    5b0e:	4c 89 74 24 20       	mov    QWORD PTR [rsp+0x20],r14
    5b13:	48 c7 44 24 28 40 5a 	mov    QWORD PTR [rsp+0x28],0x5a40
    5b1a:	00 00 
    5b1c:	48 c7 44 24 60 02 00 	mov    QWORD PTR [rsp+0x60],0x2
    5b23:	00 00 
    5b25:	48 c7 44 24 70 02 00 	mov    QWORD PTR [rsp+0x70],0x2
    5b2c:	00 00 
    5b2e:	48 c7 84 24 80 00 00 	mov    QWORD PTR [rsp+0x80],0x0
    5b35:	00 00 00 00 00 
    5b3a:	48 b8 20 00 00 00 04 	movabs rax,0x400000020
    5b41:	00 00 00 
    5b44:	48 89 84 24 88 00 00 	mov    QWORD PTR [rsp+0x88],rax
    5b4b:	00 
    5b4c:	c6 84 24 90 00 00 00 	mov    BYTE PTR [rsp+0x90],0x3
    5b53:	03 
    5b54:	48 c7 44 24 30 b8 89 	mov    QWORD PTR [rsp+0x30],0x89b8
    5b5b:	00 00 
    5b5d:	48 c7 44 24 38 01 00 	mov    QWORD PTR [rsp+0x38],0x1
    5b64:	00 00 
    5b66:	48 8d 44 24 60       	lea    rax,[rsp+0x60]
    5b6b:	48 89 44 24 50       	mov    QWORD PTR [rsp+0x50],rax
    5b70:	48 c7 44 24 58 01 00 	mov    QWORD PTR [rsp+0x58],0x1
    5b77:	00 00 
    5b79:	48 8d 44 24 20       	lea    rax,[rsp+0x20]
    5b7e:	48 89 44 24 40       	mov    QWORD PTR [rsp+0x40],rax
    5b83:	48 c7 44 24 48 01 00 	mov    QWORD PTR [rsp+0x48],0x1
    5b8a:	00 00 
    5b8c:	48 8d 7c 24 08       	lea    rdi,[rsp+0x8]
    5b91:	48 8d 74 24 30       	lea    rsi,[rsp+0x30]
    5b96:	48 c7 c2 f0 4d 00 00 	mov    rdx,0x4df0
    5b9d:	e8 ae ef ff ff       	call   0x4b50
    5ba2:	48 8b 44 24 08       	mov    rax,QWORD PTR [rsp+0x8]
    5ba7:	0f b6 4c 24 18       	movzx  ecx,BYTE PTR [rsp+0x18]
    5bac:	48 85 c0             	test   rax,rax
    5baf:	74 55                	je     0x5c06
    5bb1:	b3 01                	mov    bl,0x1
    5bb3:	84 c9                	test   cl,cl
    5bb5:	75 51                	jne    0x5c08
    5bb7:	4c 8b 74 24 10       	mov    r14,QWORD PTR [rsp+0x10]
    5bbc:	48 83 f8 01          	cmp    rax,0x1
    5bc0:	75 29                	jne    0x5beb
    5bc2:	80 7c 24 19 00       	cmp    BYTE PTR [rsp+0x19],0x0
    5bc7:	74 22                	je     0x5beb
    5bc9:	41 f6 46 34 04       	test   BYTE PTR [r14+0x34],0x4
    5bce:	75 1b                	jne    0x5beb
    5bd0:	49 8b 7e 20          	mov    rdi,QWORD PTR [r14+0x20]
    5bd4:	49 8b 46 28          	mov    rax,QWORD PTR [r14+0x28]
    5bd8:	ba 01 00 00 00       	mov    edx,0x1
    5bdd:	48 c7 c6 8f 79 00 00 	mov    rsi,0x798f
    5be4:	ff 50 18             	call   QWORD PTR [rax+0x18]
    5be7:	84 c0                	test   al,al
    5be9:	75 1d                	jne    0x5c08
    5beb:	49 8b 7e 20          	mov    rdi,QWORD PTR [r14+0x20]
    5bef:	49 8b 46 28          	mov    rax,QWORD PTR [r14+0x28]
    5bf3:	ba 01 00 00 00       	mov    edx,0x1
    5bf8:	48 c7 c6 16 78 00 00 	mov    rsi,0x7816
    5bff:	ff 50 18             	call   QWORD PTR [rax+0x18]
    5c02:	89 c3                	mov    ebx,eax
    5c04:	eb 02                	jmp    0x5c08
    5c06:	89 cb                	mov    ebx,ecx
    5c08:	84 db                	test   bl,bl
    5c0a:	0f 95 c0             	setne  al
    5c0d:	48 81 c4 98 00 00 00 	add    rsp,0x98
    5c14:	5b                   	pop    rbx
    5c15:	41 5e                	pop    r14
    5c17:	c3                   	ret
    5c18:	cc                   	int3
    5c19:	cc                   	int3
    5c1a:	cc                   	int3
    5c1b:	cc                   	int3
    5c1c:	cc                   	int3
    5c1d:	cc                   	int3
    5c1e:	cc                   	int3
    5c1f:	cc                   	int3
    5c20:	41 56                	push   r14
    5c22:	53                   	push   rbx
    5c23:	48 81 ec 98 00 00 00 	sub    rsp,0x98
    5c2a:	48 89 f3             	mov    rbx,rsi
    5c2d:	49 89 fe             	mov    r14,rdi
    5c30:	48 8b 7e 20          	mov    rdi,QWORD PTR [rsi+0x20]
    5c34:	48 8b 46 28          	mov    rax,QWORD PTR [rsi+0x28]
    5c38:	ba 08 00 00 00       	mov    edx,0x8
    5c3d:	48 c7 c6 c0 73 00 00 	mov    rsi,0x73c0
    5c44:	ff 50 18             	call   QWORD PTR [rax+0x18]
    5c47:	48 89 5c 24 10       	mov    QWORD PTR [rsp+0x10],rbx
    5c4c:	88 44 24 18          	mov    BYTE PTR [rsp+0x18],al
    5c50:	48 c7 44 24 08 00 00 	mov    QWORD PTR [rsp+0x8],0x0
    5c57:	00 00 
    5c59:	c6 44 24 19 00       	mov    BYTE PTR [rsp+0x19],0x0
    5c5e:	4c 89 74 24 20       	mov    QWORD PTR [rsp+0x20],r14
    5c63:	48 c7 44 24 28 40 5a 	mov    QWORD PTR [rsp+0x28],0x5a40
    5c6a:	00 00 
    5c6c:	48 c7 44 24 60 02 00 	mov    QWORD PTR [rsp+0x60],0x2
    5c73:	00 00 
    5c75:	48 c7 44 24 70 02 00 	mov    QWORD PTR [rsp+0x70],0x2
    5c7c:	00 00 
    5c7e:	48 c7 84 24 80 00 00 	mov    QWORD PTR [rsp+0x80],0x0
    5c85:	00 00 00 00 00 
    5c8a:	48 b8 20 00 00 00 04 	movabs rax,0x400000020
    5c91:	00 00 00 
    5c94:	48 89 84 24 88 00 00 	mov    QWORD PTR [rsp+0x88],rax
    5c9b:	00 
    5c9c:	c6 84 24 90 00 00 00 	mov    BYTE PTR [rsp+0x90],0x3
    5ca3:	03 
    5ca4:	48 c7 44 24 30 b8 89 	mov    QWORD PTR [rsp+0x30],0x89b8
    5cab:	00 00 
    5cad:	48 c7 44 24 38 01 00 	mov    QWORD PTR [rsp+0x38],0x1
    5cb4:	00 00 
    5cb6:	48 8d 44 24 60       	lea    rax,[rsp+0x60]
    5cbb:	48 89 44 24 50       	mov    QWORD PTR [rsp+0x50],rax
    5cc0:	48 c7 44 24 58 01 00 	mov    QWORD PTR [rsp+0x58],0x1
    5cc7:	00 00 
    5cc9:	48 8d 44 24 20       	lea    rax,[rsp+0x20]
    5cce:	48 89 44 24 40       	mov    QWORD PTR [rsp+0x40],rax
    5cd3:	48 c7 44 24 48 01 00 	mov    QWORD PTR [rsp+0x48],0x1
    5cda:	00 00 
    5cdc:	48 8d 7c 24 08       	lea    rdi,[rsp+0x8]
    5ce1:	48 8d 74 24 30       	lea    rsi,[rsp+0x30]
    5ce6:	48 c7 c2 f0 4d 00 00 	mov    rdx,0x4df0
    5ced:	e8 5e ee ff ff       	call   0x4b50
    5cf2:	48 8b 44 24 08       	mov    rax,QWORD PTR [rsp+0x8]
    5cf7:	0f b6 4c 24 18       	movzx  ecx,BYTE PTR [rsp+0x18]
    5cfc:	48 85 c0             	test   rax,rax
    5cff:	74 55                	je     0x5d56
    5d01:	b3 01                	mov    bl,0x1
    5d03:	84 c9                	test   cl,cl
    5d05:	75 51                	jne    0x5d58
    5d07:	4c 8b 74 24 10       	mov    r14,QWORD PTR [rsp+0x10]
    5d0c:	48 83 f8 01          	cmp    rax,0x1
    5d10:	75 29                	jne    0x5d3b
    5d12:	80 7c 24 19 00       	cmp    BYTE PTR [rsp+0x19],0x0
    5d17:	74 22                	je     0x5d3b
    5d19:	41 f6 46 34 04       	test   BYTE PTR [r14+0x34],0x4
    5d1e:	75 1b                	jne    0x5d3b
    5d20:	49 8b 7e 20          	mov    rdi,QWORD PTR [r14+0x20]
    5d24:	49 8b 46 28          	mov    rax,QWORD PTR [r14+0x28]
    5d28:	ba 01 00 00 00       	mov    edx,0x1
    5d2d:	48 c7 c6 8f 79 00 00 	mov    rsi,0x798f
    5d34:	ff 50 18             	call   QWORD PTR [rax+0x18]
    5d37:	84 c0                	test   al,al
    5d39:	75 1d                	jne    0x5d58
    5d3b:	49 8b 7e 20          	mov    rdi,QWORD PTR [r14+0x20]
    5d3f:	49 8b 46 28          	mov    rax,QWORD PTR [r14+0x28]
    5d43:	ba 01 00 00 00       	mov    edx,0x1
    5d48:	48 c7 c6 16 78 00 00 	mov    rsi,0x7816
    5d4f:	ff 50 18             	call   QWORD PTR [rax+0x18]
    5d52:	89 c3                	mov    ebx,eax
    5d54:	eb 02                	jmp    0x5d58
    5d56:	89 cb                	mov    ebx,ecx
    5d58:	84 db                	test   bl,bl
    5d5a:	0f 95 c0             	setne  al
    5d5d:	48 81 c4 98 00 00 00 	add    rsp,0x98
    5d64:	5b                   	pop    rbx
    5d65:	41 5e                	pop    r14
    5d67:	c3                   	ret
    5d68:	cc                   	int3
    5d69:	cc                   	int3
    5d6a:	cc                   	int3
    5d6b:	cc                   	int3
    5d6c:	cc                   	int3
    5d6d:	cc                   	int3
    5d6e:	cc                   	int3
    5d6f:	cc                   	int3
    5d70:	48 83 ec 78          	sub    rsp,0x78
    5d74:	48 89 3c 24          	mov    QWORD PTR [rsp],rdi
    5d78:	48 c7 44 24 08 40 5a 	mov    QWORD PTR [rsp+0x8],0x5a40
    5d7f:	00 00 
    5d81:	48 c7 44 24 40 02 00 	mov    QWORD PTR [rsp+0x40],0x2
    5d88:	00 00 
    5d8a:	48 c7 44 24 50 02 00 	mov    QWORD PTR [rsp+0x50],0x2
    5d91:	00 00 
    5d93:	48 c7 44 24 60 00 00 	mov    QWORD PTR [rsp+0x60],0x0
    5d9a:	00 00 
    5d9c:	48 b8 20 00 00 00 04 	movabs rax,0x400000020
    5da3:	00 00 00 
    5da6:	48 89 44 24 68       	mov    QWORD PTR [rsp+0x68],rax
    5dab:	c6 44 24 70 03       	mov    BYTE PTR [rsp+0x70],0x3
    5db0:	48 c7 44 24 10 b8 89 	mov    QWORD PTR [rsp+0x10],0x89b8
    5db7:	00 00 
    5db9:	48 c7 44 24 18 01 00 	mov    QWORD PTR [rsp+0x18],0x1
    5dc0:	00 00 
    5dc2:	48 8d 44 24 40       	lea    rax,[rsp+0x40]
    5dc7:	48 89 44 24 30       	mov    QWORD PTR [rsp+0x30],rax
    5dcc:	48 c7 44 24 38 01 00 	mov    QWORD PTR [rsp+0x38],0x1
    5dd3:	00 00 
    5dd5:	48 89 e0             	mov    rax,rsp
    5dd8:	48 89 44 24 20       	mov    QWORD PTR [rsp+0x20],rax
    5ddd:	48 c7 44 24 28 01 00 	mov    QWORD PTR [rsp+0x28],0x1
    5de4:	00 00 
    5de6:	48 8b 7e 20          	mov    rdi,QWORD PTR [rsi+0x20]
    5dea:	48 8b 76 28          	mov    rsi,QWORD PTR [rsi+0x28]
    5dee:	48 8d 54 24 10       	lea    rdx,[rsp+0x10]
    5df3:	e8 e8 e1 ff ff       	call   0x3fe0
    5df8:	48 83 c4 78          	add    rsp,0x78
    5dfc:	c3                   	ret
    5dfd:	cc                   	int3
    5dfe:	cc                   	int3
    5dff:	cc                   	int3
    5e00:	48 81 ec 88 00 00 00 	sub    rsp,0x88
    5e07:	8b 46 34             	mov    eax,DWORD PTR [rsi+0x34]
    5e0a:	a8 10                	test   al,0x10
    5e0c:	0f 85 d5 00 00 00    	jne    0x5ee7
    5e12:	a8 20                	test   al,0x20
    5e14:	0f 85 16 01 00 00    	jne    0x5f30
    5e1a:	48 8b 0f             	mov    rcx,QWORD PTR [rdi]
    5e1d:	b8 27 00 00 00       	mov    eax,0x27
    5e22:	48 81 f9 10 27 00 00 	cmp    rcx,0x2710
    5e29:	0f 82 79 01 00 00    	jb     0x5fa8
    5e2f:	41 b8 27 00 00 00    	mov    r8d,0x27
    5e35:	48 bf 4b 59 86 38 d6 	movabs rdi,0x346dc5d63886594b
    5e3c:	c5 6d 34 
    5e3f:	90                   	nop
    5e40:	48 89 c8             	mov    rax,rcx
    5e43:	48 f7 e7             	mul    rdi
    5e46:	48 c1 ea 0b          	shr    rdx,0xb
    5e4a:	69 c2 10 27 00 00    	imul   eax,edx,0x2710
    5e50:	41 89 c9             	mov    r9d,ecx
    5e53:	41 29 c1             	sub    r9d,eax
    5e56:	45 69 d1 7b 14 00 00 	imul   r10d,r9d,0x147b
    5e5d:	41 c1 ea 13          	shr    r10d,0x13
    5e61:	41 6b c2 64          	imul   eax,r10d,0x64
    5e65:	41 29 c1             	sub    r9d,eax
    5e68:	45 0f b7 c9          	movzx  r9d,r9w
    5e6c:	49 8d 40 fc          	lea    rax,[r8-0x4]
    5e70:	47 0f b7 94 12 20 7a 	movzx  r10d,WORD PTR [r10+r10*1+0x7a20]
    5e77:	00 00 
    5e79:	66 46 89 54 04 04    	mov    WORD PTR [rsp+r8*1+0x4],r10w
    5e7f:	47 0f b7 8c 09 20 7a 	movzx  r9d,WORD PTR [r9+r9*1+0x7a20]
    5e86:	00 00 
    5e88:	66 46 89 4c 04 06    	mov    WORD PTR [rsp+r8*1+0x6],r9w
    5e8e:	49 89 c0             	mov    r8,rax
    5e91:	48 81 f9 ff e0 f5 05 	cmp    rcx,0x5f5e0ff
    5e98:	48 89 d1             	mov    rcx,rdx
    5e9b:	77 a3                	ja     0x5e40
    5e9d:	48 83 fa 63          	cmp    rdx,0x63
    5ea1:	76 2b                	jbe    0x5ece
    5ea3:	0f b7 ca             	movzx  ecx,dx
    5ea6:	c1 e9 02             	shr    ecx,0x2
    5ea9:	69 c9 7b 14 00 00    	imul   ecx,ecx,0x147b
    5eaf:	c1 e9 11             	shr    ecx,0x11
    5eb2:	6b f9 64             	imul   edi,ecx,0x64
    5eb5:	29 fa                	sub    edx,edi
    5eb7:	0f b7 d2             	movzx  edx,dx
    5eba:	0f b7 94 12 20 7a 00 	movzx  edx,WORD PTR [rdx+rdx*1+0x7a20]
    5ec1:	00 
    5ec2:	66 89 54 04 06       	mov    WORD PTR [rsp+rax*1+0x6],dx
    5ec7:	48 83 c0 fe          	add    rax,0xfffffffffffffffe
    5ecb:	48 89 ca             	mov    rdx,rcx
    5ece:	48 83 fa 0a          	cmp    rdx,0xa
    5ed2:	0f 83 e2 00 00 00    	jae    0x5fba
    5ed8:	80 c2 30             	add    dl,0x30
    5edb:	88 54 04 07          	mov    BYTE PTR [rsp+rax*1+0x7],dl
    5edf:	48 ff c8             	dec    rax
    5ee2:	e9 e4 00 00 00       	jmp    0x5fcb
    5ee7:	48 8b 0f             	mov    rcx,QWORD PTR [rdi]
    5eea:	ba 81 00 00 00       	mov    edx,0x81
    5eef:	b8 30 00 00 00       	mov    eax,0x30
    5ef4:	49 89 c8             	mov    r8,rcx
    5ef7:	66 0f 1f 84 00 00 00 	nop    WORD PTR [rax+rax*1+0x0]
    5efe:	00 00 
    5f00:	48 89 d7             	mov    rdi,rdx
    5f03:	49 c1 e8 04          	shr    r8,0x4
    5f07:	89 ca                	mov    edx,ecx
    5f09:	80 e2 0f             	and    dl,0xf
    5f0c:	80 fa 0a             	cmp    dl,0xa
    5f0f:	41 b9 57 00 00 00    	mov    r9d,0x57
    5f15:	44 0f 42 c8          	cmovb  r9d,eax
    5f19:	41 00 d1             	add    r9b,dl
    5f1c:	44 88 4c 3c 06       	mov    BYTE PTR [rsp+rdi*1+0x6],r9b
    5f21:	48 8d 57 ff          	lea    rdx,[rdi-0x1]
    5f25:	48 83 f9 10          	cmp    rcx,0x10
    5f29:	4c 89 c1             	mov    rcx,r8
    5f2c:	73 d2                	jae    0x5f00
    5f2e:	eb 3e                	jmp    0x5f6e
    5f30:	48 8b 0f             	mov    rcx,QWORD PTR [rdi]
    5f33:	ba 81 00 00 00       	mov    edx,0x81
    5f38:	b8 30 00 00 00       	mov    eax,0x30
    5f3d:	49 89 c8             	mov    r8,rcx
    5f40:	48 89 d7             	mov    rdi,rdx
    5f43:	49 c1 e8 04          	shr    r8,0x4
    5f47:	89 ca                	mov    edx,ecx
    5f49:	80 e2 0f             	and    dl,0xf
    5f4c:	80 fa 0a             	cmp    dl,0xa
    5f4f:	41 b9 37 00 00 00    	mov    r9d,0x37
    5f55:	44 0f 42 c8          	cmovb  r9d,eax
    5f59:	41 00 d1             	add    r9b,dl
    5f5c:	44 88 4c 3c 06       	mov    BYTE PTR [rsp+rdi*1+0x6],r9b
    5f61:	48 8d 57 ff          	lea    rdx,[rdi-0x1]
    5f65:	48 83 f9 10          	cmp    rcx,0x10
    5f69:	4c 89 c1             	mov    rcx,r8
    5f6c:	73 d2                	jae    0x5f40
    5f6e:	48 83 c7 fe          	add    rdi,0xfffffffffffffffe
    5f72:	48 81 ff 80 00 00 00 	cmp    rdi,0x80
    5f79:	77 7a                	ja     0x5ff5
    5f7b:	41 b8 81 00 00 00    	mov    r8d,0x81
    5f81:	49 29 d0             	sub    r8,rdx
    5f84:	48 8d 0c 3c          	lea    rcx,[rsp+rdi*1]
    5f88:	48 83 c1 08          	add    rcx,0x8
    5f8c:	ba 02 00 00 00       	mov    edx,0x2
    5f91:	48 89 f7             	mov    rdi,rsi
    5f94:	48 c7 c6 b0 89 00 00 	mov    rsi,0x89b0
    5f9b:	e8 80 d5 ff ff       	call   0x3520
    5fa0:	48 81 c4 88 00 00 00 	add    rsp,0x88
    5fa7:	c3                   	ret
    5fa8:	48 89 ca             	mov    rdx,rcx
    5fab:	48 83 fa 63          	cmp    rdx,0x63
    5faf:	0f 87 ee fe ff ff    	ja     0x5ea3
    5fb5:	e9 14 ff ff ff       	jmp    0x5ece
    5fba:	0f b7 8c 12 20 7a 00 	movzx  ecx,WORD PTR [rdx+rdx*1+0x7a20]
    5fc1:	00 
    5fc2:	66 89 4c 04 06       	mov    WORD PTR [rsp+rax*1+0x6],cx
    5fc7:	48 83 c0 fe          	add    rax,0xfffffffffffffffe
    5fcb:	48 8d 0c 04          	lea    rcx,[rsp+rax*1]
    5fcf:	48 83 c1 08          	add    rcx,0x8
    5fd3:	41 b8 27 00 00 00    	mov    r8d,0x27
    5fd9:	49 29 c0             	sub    r8,rax
    5fdc:	48 89 f7             	mov    rdi,rsi
    5fdf:	48 c7 c6 68 88 00 00 	mov    rsi,0x8868
    5fe6:	31 d2                	xor    edx,edx
    5fe8:	e8 33 d5 ff ff       	call   0x3520
    5fed:	48 81 c4 88 00 00 00 	add    rsp,0x88
    5ff4:	c3                   	ret
    5ff5:	e8 26 d4 ff ff       	call   0x3420
    5ffa:	0f 0b                	ud2
    5ffc:	cc                   	int3
    5ffd:	cc                   	int3
    5ffe:	cc                   	int3
    5fff:	cc                   	int3
    6000:	48 81 ec 88 00 00 00 	sub    rsp,0x88
    6007:	48 8b 07             	mov    rax,QWORD PTR [rdi]
    600a:	48 8b 08             	mov    rcx,QWORD PTR [rax]
    600d:	ba 81 00 00 00       	mov    edx,0x81
    6012:	b8 30 00 00 00       	mov    eax,0x30
    6017:	49 89 c8             	mov    r8,rcx
    601a:	66 0f 1f 44 00 00    	nop    WORD PTR [rax+rax*1+0x0]
    6020:	48 89 d7             	mov    rdi,rdx
    6023:	49 c1 e8 04          	shr    r8,0x4
    6027:	89 ca                	mov    edx,ecx
    6029:	80 e2 0f             	and    dl,0xf
    602c:	80 fa 0a             	cmp    dl,0xa
    602f:	41 b9 57 00 00 00    	mov    r9d,0x57
    6035:	44 0f 42 c8          	cmovb  r9d,eax
    6039:	41 00 d1             	add    r9b,dl
    603c:	44 88 4c 3c 06       	mov    BYTE PTR [rsp+rdi*1+0x6],r9b
    6041:	48 8d 57 ff          	lea    rdx,[rdi-0x1]
    6045:	48 83 f9 10          	cmp    rcx,0x10
    6049:	4c 89 c1             	mov    rcx,r8
    604c:	73 d2                	jae    0x6020
    604e:	48 83 c7 fe          	add    rdi,0xfffffffffffffffe
    6052:	48 81 ff 80 00 00 00 	cmp    rdi,0x80
    6059:	77 2d                	ja     0x6088
    605b:	41 b8 81 00 00 00    	mov    r8d,0x81
    6061:	49 29 d0             	sub    r8,rdx
    6064:	48 8d 0c 3c          	lea    rcx,[rsp+rdi*1]
    6068:	48 83 c1 08          	add    rcx,0x8
    606c:	ba 02 00 00 00       	mov    edx,0x2
    6071:	48 89 f7             	mov    rdi,rsi
    6074:	48 c7 c6 b0 89 00 00 	mov    rsi,0x89b0
    607b:	e8 a0 d4 ff ff       	call   0x3520
    6080:	48 81 c4 88 00 00 00 	add    rsp,0x88
    6087:	c3                   	ret
    6088:	e8 93 d3 ff ff       	call   0x3420
    608d:	0f 0b                	ud2
    608f:	55                   	push   rbp
    6090:	48 89 e5             	mov    rbp,rsp
    6093:	49 89 c3             	mov    r11,rax
    6096:	49 81 fb 00 10 00 00 	cmp    r11,0x1000
    609d:	76 1c                	jbe    0x60bb
    609f:	48 81 ec 00 10 00 00 	sub    rsp,0x1000
    60a6:	48 85 64 24 08       	test   QWORD PTR [rsp+0x8],rsp
    60ab:	49 81 eb 00 10 00 00 	sub    r11,0x1000
    60b2:	49 81 fb 00 10 00 00 	cmp    r11,0x1000
    60b9:	77 e4                	ja     0x609f
    60bb:	4c 29 dc             	sub    rsp,r11
    60be:	48 85 64 24 08       	test   QWORD PTR [rsp+0x8],rsp
    60c3:	48 01 c4             	add    rsp,rax
    60c6:	c9                   	leave
    60c7:	c3                   	ret
    60c8:	cc                   	int3
    60c9:	cc                   	int3
    60ca:	cc                   	int3
    60cb:	cc                   	int3
    60cc:	cc                   	int3
    60cd:	cc                   	int3
    60ce:	cc                   	int3
    60cf:	cc                   	int3
    60d0:	48 89 f8             	mov    rax,rdi
    60d3:	41 89 c0             	mov    r8d,eax
    60d6:	41 f7 d8             	neg    r8d
    60d9:	41 83 e0 07          	and    r8d,0x7
    60dd:	49 39 d0             	cmp    r8,rdx
    60e0:	4c 0f 43 c2          	cmovae r8,rdx
    60e4:	4c 89 c1             	mov    rcx,r8
    60e7:	f3 a4                	rep movs BYTE PTR es:[rdi],BYTE PTR ds:[rsi]
    60e9:	4c 29 c2             	sub    rdx,r8
    60ec:	48 89 d1             	mov    rcx,rdx
    60ef:	48 c1 e9 03          	shr    rcx,0x3
    60f3:	f3 48 a5             	rep movs QWORD PTR es:[rdi],QWORD PTR ds:[rsi]
    60f6:	83 e2 07             	and    edx,0x7
    60f9:	48 89 d1             	mov    rcx,rdx
    60fc:	f3 a4                	rep movs BYTE PTR es:[rdi],BYTE PTR ds:[rsi]
    60fe:	c3                   	ret
    60ff:	cc                   	int3
    6100:	e9 cb ff ff ff       	jmp    0x60d0
	...
    713d:	00 00                	add    BYTE PTR [rax],al
    713f:	00 43 37             	add    BYTE PTR [rbx+0x37],al
    7142:	00 00                	add    BYTE PTR [rax],al
    7144:	00 00                	add    BYTE PTR [rax],al
    7146:	00 00                	add    BYTE PTR [rax],al
    7148:	90                   	nop
    7149:	35 00 00 00 00       	xor    eax,0x0
    714e:	00 00                	add    BYTE PTR [rax],al
    7150:	37                   	(bad)
    7151:	37                   	(bad)
    7152:	00 00                	add    BYTE PTR [rax],al
    7154:	00 00                	add    BYTE PTR [rax],al
    7156:	00 00                	add    BYTE PTR [rax],al
    7158:	90                   	nop
    7159:	35 00 00 00 00       	xor    eax,0x0
    715e:	00 00                	add    BYTE PTR [rax],al
    7160:	9b                   	fwait
    7161:	3b 00                	cmp    eax,DWORD PTR [rax]
    7163:	00 00                	add    BYTE PTR [rax],al
    7165:	00 00                	add    BYTE PTR [rax],al
    7167:	00 b4 3e 00 00 00 00 	add    BYTE PTR [rsi+rdi*1+0x0],dh
    716e:	00 00                	add    BYTE PTR [rax],al
    7170:	bb 3e 00 00 00       	mov    ebx,0x3e
    7175:	00 00                	add    BYTE PTR [rax],al
    7177:	00 9b 3b 00 00 00    	add    BYTE PTR [rbx+0x3b],bl
    717d:	00 00                	add    BYTE PTR [rax],al
    717f:	00 1c 4e             	add    BYTE PTR [rsi+rcx*2],bl
    7182:	00 00                	add    BYTE PTR [rax],al
    7184:	00 00                	add    BYTE PTR [rax],al
    7186:	00 00                	add    BYTE PTR [rax],al
    7188:	6b 4e 00 00          	imul   ecx,DWORD PTR [rsi+0x0],0x0
    718c:	00 00                	add    BYTE PTR [rax],al
    718e:	00 00                	add    BYTE PTR [rax],al
    7190:	6b 4e 00 00          	imul   ecx,DWORD PTR [rsi+0x0],0x0
    7194:	00 00                	add    BYTE PTR [rax],al
    7196:	00 00                	add    BYTE PTR [rax],al
    7198:	6b 4e 00 00          	imul   ecx,DWORD PTR [rsi+0x0],0x0
    719c:	00 00                	add    BYTE PTR [rax],al
    719e:	00 00                	add    BYTE PTR [rax],al
    71a0:	6b 4e 00 00          	imul   ecx,DWORD PTR [rsi+0x0],0x0
    71a4:	00 00                	add    BYTE PTR [rax],al
    71a6:	00 00                	add    BYTE PTR [rax],al
    71a8:	6b 4e 00 00          	imul   ecx,DWORD PTR [rsi+0x0],0x0
    71ac:	00 00                	add    BYTE PTR [rax],al
    71ae:	00 00                	add    BYTE PTR [rax],al
    71b0:	6b 4e 00 00          	imul   ecx,DWORD PTR [rsi+0x0],0x0
    71b4:	00 00                	add    BYTE PTR [rax],al
    71b6:	00 00                	add    BYTE PTR [rax],al
    71b8:	6b 4e 00 00          	imul   ecx,DWORD PTR [rsi+0x0],0x0
    71bc:	00 00                	add    BYTE PTR [rax],al
    71be:	00 00                	add    BYTE PTR [rax],al
    71c0:	6b 4e 00 00          	imul   ecx,DWORD PTR [rsi+0x0],0x0
    71c4:	00 00                	add    BYTE PTR [rax],al
    71c6:	00 00                	add    BYTE PTR [rax],al
    71c8:	36 4e 00 00          	ss rex.WRX add BYTE PTR [rax],r8b
    71cc:	00 00                	add    BYTE PTR [rax],al
    71ce:	00 00                	add    BYTE PTR [rax],al
    71d0:	40                   	rex
    71d1:	4e 00 00             	rex.WRX add BYTE PTR [rax],r8b
    71d4:	00 00                	add    BYTE PTR [rax],al
    71d6:	00 00                	add    BYTE PTR [rax],al
    71d8:	6b 4e 00 00          	imul   ecx,DWORD PTR [rsi+0x0],0x0
    71dc:	00 00                	add    BYTE PTR [rax],al
    71de:	00 00                	add    BYTE PTR [rax],al
    71e0:	6b 4e 00 00          	imul   ecx,DWORD PTR [rsi+0x0],0x0
    71e4:	00 00                	add    BYTE PTR [rax],al
    71e6:	00 00                	add    BYTE PTR [rax],al
    71e8:	4a                   	rex.WX
    71e9:	4e 00 00             	rex.WRX add BYTE PTR [rax],r8b
    71ec:	00 00                	add    BYTE PTR [rax],al
    71ee:	00 00                	add    BYTE PTR [rax],al
    71f0:	6b 4e 00 00          	imul   ecx,DWORD PTR [rsi+0x0],0x0
    71f4:	00 00                	add    BYTE PTR [rax],al
    71f6:	00 00                	add    BYTE PTR [rax],al
    71f8:	6b 4e 00 00          	imul   ecx,DWORD PTR [rsi+0x0],0x0
    71fc:	00 00                	add    BYTE PTR [rax],al
    71fe:	00 00                	add    BYTE PTR [rax],al
    7200:	6b 4e 00 00          	imul   ecx,DWORD PTR [rsi+0x0],0x0
    7204:	00 00                	add    BYTE PTR [rax],al
    7206:	00 00                	add    BYTE PTR [rax],al
    7208:	6b 4e 00 00          	imul   ecx,DWORD PTR [rsi+0x0],0x0
    720c:	00 00                	add    BYTE PTR [rax],al
    720e:	00 00                	add    BYTE PTR [rax],al
    7210:	6b 4e 00 00          	imul   ecx,DWORD PTR [rsi+0x0],0x0
    7214:	00 00                	add    BYTE PTR [rax],al
    7216:	00 00                	add    BYTE PTR [rax],al
    7218:	6b 4e 00 00          	imul   ecx,DWORD PTR [rsi+0x0],0x0
    721c:	00 00                	add    BYTE PTR [rax],al
    721e:	00 00                	add    BYTE PTR [rax],al
    7220:	6b 4e 00 00          	imul   ecx,DWORD PTR [rsi+0x0],0x0
    7224:	00 00                	add    BYTE PTR [rax],al
    7226:	00 00                	add    BYTE PTR [rax],al
    7228:	6b 4e 00 00          	imul   ecx,DWORD PTR [rsi+0x0],0x0
    722c:	00 00                	add    BYTE PTR [rax],al
    722e:	00 00                	add    BYTE PTR [rax],al
    7230:	6b 4e 00 00          	imul   ecx,DWORD PTR [rsi+0x0],0x0
    7234:	00 00                	add    BYTE PTR [rax],al
    7236:	00 00                	add    BYTE PTR [rax],al
    7238:	6b 4e 00 00          	imul   ecx,DWORD PTR [rsi+0x0],0x0
    723c:	00 00                	add    BYTE PTR [rax],al
    723e:	00 00                	add    BYTE PTR [rax],al
    7240:	6b 4e 00 00          	imul   ecx,DWORD PTR [rsi+0x0],0x0
    7244:	00 00                	add    BYTE PTR [rax],al
    7246:	00 00                	add    BYTE PTR [rax],al
    7248:	6b 4e 00 00          	imul   ecx,DWORD PTR [rsi+0x0],0x0
    724c:	00 00                	add    BYTE PTR [rax],al
    724e:	00 00                	add    BYTE PTR [rax],al
    7250:	6b 4e 00 00          	imul   ecx,DWORD PTR [rsi+0x0],0x0
    7254:	00 00                	add    BYTE PTR [rax],al
    7256:	00 00                	add    BYTE PTR [rax],al
    7258:	6b 4e 00 00          	imul   ecx,DWORD PTR [rsi+0x0],0x0
    725c:	00 00                	add    BYTE PTR [rax],al
    725e:	00 00                	add    BYTE PTR [rax],al
    7260:	6b 4e 00 00          	imul   ecx,DWORD PTR [rsi+0x0],0x0
    7264:	00 00                	add    BYTE PTR [rax],al
    7266:	00 00                	add    BYTE PTR [rax],al
    7268:	6b 4e 00 00          	imul   ecx,DWORD PTR [rsi+0x0],0x0
    726c:	00 00                	add    BYTE PTR [rax],al
    726e:	00 00                	add    BYTE PTR [rax],al
    7270:	6b 4e 00 00          	imul   ecx,DWORD PTR [rsi+0x0],0x0
    7274:	00 00                	add    BYTE PTR [rax],al
    7276:	00 00                	add    BYTE PTR [rax],al
    7278:	6b 4e 00 00          	imul   ecx,DWORD PTR [rsi+0x0],0x0
    727c:	00 00                	add    BYTE PTR [rax],al
    727e:	00 00                	add    BYTE PTR [rax],al
    7280:	6b 4e 00 00          	imul   ecx,DWORD PTR [rsi+0x0],0x0
    7284:	00 00                	add    BYTE PTR [rax],al
    7286:	00 00                	add    BYTE PTR [rax],al
    7288:	6b 4e 00 00          	imul   ecx,DWORD PTR [rsi+0x0],0x0
    728c:	00 00                	add    BYTE PTR [rax],al
    728e:	00 00                	add    BYTE PTR [rax],al
    7290:	54                   	push   rsp
    7291:	4e 00 00             	rex.WRX add BYTE PTR [rax],r8b
    7294:	00 00                	add    BYTE PTR [rax],al
    7296:	00 00                	add    BYTE PTR [rax],al
    7298:	6b 4e 00 00          	imul   ecx,DWORD PTR [rsi+0x0],0x0
    729c:	00 00                	add    BYTE PTR [rax],al
    729e:	00 00                	add    BYTE PTR [rax],al
    72a0:	6b 4e 00 00          	imul   ecx,DWORD PTR [rsi+0x0],0x0
    72a4:	00 00                	add    BYTE PTR [rax],al
    72a6:	00 00                	add    BYTE PTR [rax],al
    72a8:	6b 4e 00 00          	imul   ecx,DWORD PTR [rsi+0x0],0x0
    72ac:	00 00                	add    BYTE PTR [rax],al
    72ae:	00 00                	add    BYTE PTR [rax],al
    72b0:	6b 4e 00 00          	imul   ecx,DWORD PTR [rsi+0x0],0x0
    72b4:	00 00                	add    BYTE PTR [rax],al
    72b6:	00 00                	add    BYTE PTR [rax],al
    72b8:	63 4e 00             	movsxd ecx,DWORD PTR [rsi+0x0]
    72bb:	00 00                	add    BYTE PTR [rax],al
    72bd:	00 00                	add    BYTE PTR [rax],al
    72bf:	00 69 6e             	add    BYTE PTR [rcx+0x6e],ch
    72c2:	74 65                	je     0x7329
    72c4:	72 6e                	jb     0x7334
    72c6:	61                   	(bad)
    72c7:	6c                   	ins    BYTE PTR es:[rdi],dx
    72c8:	20 65 72             	and    BYTE PTR [rbp+0x72],ah
    72cb:	72 6f                	jb     0x733c
    72cd:	72 3a                	jb     0x7309
    72cf:	20 65 6e             	and    BYTE PTR [rbp+0x6e],ah
    72d2:	74 65                	je     0x7339
    72d4:	72 65                	jb     0x733b
    72d6:	64 20 75 6e          	and    BYTE PTR fs:[rbp+0x6e],dh
    72da:	72 65                	jb     0x7341
    72dc:	61                   	(bad)
    72dd:	63 68 61             	movsxd ebp,DWORD PTR [rax+0x61]
    72e0:	62                   	(bad)
    72e1:	6c                   	ins    BYTE PTR es:[rdi],dx
    72e2:	65 20 63 6f          	and    BYTE PTR gs:[rbx+0x6f],ah
    72e6:	64 65 2f             	fs gs (bad)
    72e9:	68 6f 6d 65 2f       	push   0x2f656d6f
    72ee:	65 63 32             	movsxd esi,DWORD PTR gs:[rdx]
    72f1:	2d 75 73 65 72       	sub    eax,0x72657375
    72f6:	2f                   	(bad)
    72f7:	2e 63 61 72          	cs movsxd esp,DWORD PTR [rcx+0x72]
    72fb:	67 6f                	outs   dx,DWORD PTR ds:[esi]
    72fd:	2f                   	(bad)
    72fe:	72 65                	jb     0x7365
    7300:	67 69 73 74 72 79 2f 	imul   esi,DWORD PTR [ebx+0x74],0x732f7972
    7307:	73 
    7308:	72 63                	jb     0x736d
    730a:	2f                   	(bad)
    730b:	69 6e 64 65 78 2e 63 	imul   ebp,DWORD PTR [rsi+0x64],0x632e7865
    7312:	72 61                	jb     0x7375
    7314:	74 65                	je     0x737b
    7316:	73 2e                	jae    0x7346
    7318:	69 6f 2d 36 66 31 37 	imul   ebp,DWORD PTR [rdi+0x2d],0x37316636
    731f:	64 32 32             	xor    dh,BYTE PTR fs:[rdx]
    7322:	62 62                	(bad)
    7324:	61                   	(bad)
    7325:	31 35 30 30 31 66    	xor    DWORD PTR [rip+0x66313030],esi        # 0x6631a35b
    732b:	2f                   	(bad)
    732c:	73 70                	jae    0x739e
    732e:	69 6e 2d 30 2e 35 2e 	imul   ebp,DWORD PTR [rsi+0x2d],0x2e352e30
    7335:	32 2f                	xor    ch,BYTE PTR [rdi]
    7337:	73 72                	jae    0x73ab
    7339:	63 2f                	movsxd ebp,DWORD PTR [rdi]
    733b:	6f                   	outs   dx,DWORD PTR ds:[rsi]
    733c:	6e                   	outs   dx,BYTE PTR ds:[rsi]
    733d:	63 65 2e             	movsxd esp,DWORD PTR [rbp+0x2e]
    7340:	72 73                	jb     0x73b5
    7342:	00 00                	add    BYTE PTR [rax],al
    7344:	00 00                	add    BYTE PTR [rax],al
    7346:	00 00                	add    BYTE PTR [rax],al
    7348:	e8 72 00 00 00       	call   0x73bf
    734d:	00 00                	add    BYTE PTR [rax],al
    734f:	00 5a 00             	add    BYTE PTR [rdx+0x0],bl
    7352:	00 00                	add    BYTE PTR [rax],al
    7354:	00 00                	add    BYTE PTR [rax],al
    7356:	00 00                	add    BYTE PTR [rax],al
    7358:	7b 00                	jnp    0x735a
    735a:	00 00                	add    BYTE PTR [rax],al
    735c:	1f                   	(bad)
    735d:	00 00                	add    BYTE PTR [rax],al
    735f:	00 4f 6e             	add    BYTE PTR [rdi+0x6e],cl
    7362:	63 65 20             	movsxd esp,DWORD PTR [rbp+0x20]
    7365:	68 61 73 20 70       	push   0x70207361
    736a:	61                   	(bad)
    736b:	6e                   	outs   dx,BYTE PTR ds:[rsi]
    736c:	69 63 6b 65 64 00 00 	imul   esp,DWORD PTR [rbx+0x6b],0x6465
    7373:	00 00                	add    BYTE PTR [rax],al
    7375:	00 00                	add    BYTE PTR [rax],al
    7377:	00 e8                	add    al,ch
    7379:	72 00                	jb     0x737b
    737b:	00 00                	add    BYTE PTR [rax],al
    737d:	00 00                	add    BYTE PTR [rax],al
    737f:	00 5a 00             	add    BYTE PTR [rdx+0x0],bl
    7382:	00 00                	add    BYTE PTR [rax],al
    7384:	00 00                	add    BYTE PTR [rax],al
    7386:	00 00                	add    BYTE PTR [rax],al
    7388:	80 00 00             	add    BYTE PTR [rax],0x0
    738b:	00 1d 00 00 00 45    	add    BYTE PTR [rip+0x45000000],bl        # 0x45007391
    7391:	72 72                	jb     0x7405
    7393:	6f                   	outs   dx,DWORD PTR ds:[rsi]
    7394:	72 01                	jb     0x7397
    7396:	02 03                	add    al,BYTE PTR [rbx]
    7398:	04 62                	add    al,0x62
    739a:	61                   	(bad)
    739b:	73 65                	jae    0x7402
    739d:	53                   	push   rbx
    739e:	6f                   	outs   dx,DWORD PTR ds:[rsi]
    739f:	6d                   	ins    DWORD PTR es:[rdi],dx
    73a0:	65 20 3c 3d 20 74 72 	and    BYTE PTR gs:[rdi*1+0x75727420],bh
    73a7:	75 
    73a8:	65 4e 6f             	rex.WRX outs dx,DWORD PTR gs:[rsi]
    73ab:	6e                   	outs   dx,BYTE PTR ds:[rsi]
    73ac:	65 6c                	gs ins BYTE PTR es:[rdi],dx
    73ae:	69 6e 65 20 20 20 20 	imul   ebp,DWORD PTR [rsi+0x65],0x20202020
    73b5:	66 69 6c 65 00 00 00 	imul   bp,WORD PTR [rbp+riz*2+0x0],0x0
    73bc:	00 00                	add    BYTE PTR [rax],al
    73be:	00 00                	add    BYTE PTR [rax],al
    73c0:	56                   	push   rsi
    73c1:	69 72 74 41 64 64 72 	imul   esi,DWORD PTR [rdx+0x74],0x72646441
    73c8:	4c 6f                	rex.WR outs dx,DWORD PTR ds:[rsi]
    73ca:	63 61 74             	movsxd esp,DWORD PTR [rcx+0x74]
    73cd:	69 6f 6e 6c 6f 63 61 	imul   ebp,DWORD PTR [rdi+0x6e],0x61636f6c
    73d4:	74 69                	je     0x743f
    73d6:	6f                   	outs   dx,DWORD PTR ds:[rsi]
    73d7:	6e                   	outs   dx,BYTE PTR ds:[rsi]
    73d8:	20 28                	and    BYTE PTR [rax],ch
    73da:	62                   	(bad)
    73db:	79 74                	jns    0x7451
    73dd:	65 73 20             	gs jae 0x7400
	...
    73e8:	63 6f 6c             	movsxd ebp,DWORD PTR [rdi+0x6c]
    73eb:	00 00                	add    BYTE PTR [rax],al
    73ed:	00 00                	add    BYTE PTR [rax],al
    73ef:	00 d0                	add    al,dl
    73f1:	13 00                	adc    eax,DWORD PTR [rax]
    73f3:	00 00                	add    BYTE PTR [rax],al
    73f5:	00 00                	add    BYTE PTR [rax],al
    73f7:	00 08                	add    BYTE PTR [rax],cl
    73f9:	00 00                	add    BYTE PTR [rax],al
    73fb:	00 00                	add    BYTE PTR [rax],al
    73fd:	00 00                	add    BYTE PTR [rax],al
    73ff:	00 08                	add    BYTE PTR [rax],cl
    7401:	00 00                	add    BYTE PTR [rax],al
    7403:	00 00                	add    BYTE PTR [rax],al
    7405:	00 00                	add    BYTE PTR [rax],al
    7407:	00 d0                	add    al,dl
    7409:	5a                   	pop    rdx
    740a:	00 00                	add    BYTE PTR [rax],al
    740c:	00 00                	add    BYTE PTR [rax],al
    740e:	00 00                	add    BYTE PTR [rax],al
    7410:	50                   	push   rax
    7411:	61                   	(bad)
    7412:	6e                   	outs   dx,BYTE PTR ds:[rsi]
    7413:	69 63 49 6e 66 6f 70 	imul   esp,DWORD PTR [rbx+0x49],0x706f666e
    741a:	61                   	(bad)
    741b:	79 6c                	jns    0x7489
    741d:	6f                   	outs   dx,DWORD PTR ds:[rsi]
    741e:	61                   	(bad)
    741f:	64 6d                	fs ins DWORD PTR es:[rdi],dx
    7421:	65 73 73             	gs jae 0x7497
    7424:	61                   	(bad)
    7425:	67 65 63 61 6e       	movsxd esp,DWORD PTR gs:[ecx+0x6e]
    742a:	5f                   	pop    rdi
    742b:	75 6e                	jne    0x749b
    742d:	77 69                	ja     0x7498
    742f:	6e                   	outs   dx,BYTE PTR ds:[rsi]
    7430:	64 66 6f             	outs   dx,WORD PTR fs:[rsi]
    7433:	72 63                	jb     0x7498
    7435:	65 5f                	gs pop rdi
    7437:	6e                   	outs   dx,BYTE PTR ds:[rsi]
    7438:	6f                   	outs   dx,DWORD PTR ds:[rsi]
    7439:	5f                   	pop    rdi
    743a:	62 61                	(bad)
    743c:	63 6b 74             	movsxd ebp,DWORD PTR [rbx+0x74]
    743f:	72 61                	jb     0x74a2
    7441:	63 65 00             	movsxd esp,DWORD PTR [rbp+0x0]
    7444:	00 00                	add    BYTE PTR [rax],al
    7446:	00 00                	add    BYTE PTR [rax],al
    7448:	e0 13                	loopne 0x745d
	...
    7456:	00 00                	add    BYTE PTR [rax],al
    7458:	01 00                	add    DWORD PTR [rax],eax
    745a:	00 00                	add    BYTE PTR [rax],al
    745c:	00 00                	add    BYTE PTR [rax],al
    745e:	00 00                	add    BYTE PTR [rax],al
    7460:	e0 19                	loopne 0x747b
    7462:	00 00                	add    BYTE PTR [rax],al
    7464:	00 00                	add    BYTE PTR [rax],al
    7466:	00 00                	add    BYTE PTR [rax],al
    7468:	80 12 00             	adc    BYTE PTR [rdx],0x0
    746b:	00 00                	add    BYTE PTR [rax],al
    746d:	00 00                	add    BYTE PTR [rax],al
    746f:	00 c0                	add    al,al
    7471:	13 00                	adc    eax,DWORD PTR [rax]
    7473:	00 00                	add    BYTE PTR [rax],al
    7475:	00 00                	add    BYTE PTR [rax],al
    7477:	00 44 65 73          	add    BYTE PTR [rbp+riz*2+0x73],al
    747b:	63 72 69             	movsxd esi,DWORD PTR [rdx+0x69]
    747e:	70 74                	jo     0x74f4
    7480:	6f                   	outs   dx,DWORD PTR ds:[rsi]
    7481:	72 54                	jb     0x74d7
    7483:	61                   	(bad)
    7484:	62                   	(bad)
    7485:	6c                   	ins    BYTE PTR es:[rdi],dx
    7486:	65 50                	gs push rax
    7488:	6f                   	outs   dx,DWORD PTR ds:[rsi]
    7489:	69 6e 74 65 72 6c 69 	imul   ebp,DWORD PTR [rsi+0x74],0x696c7265
    7490:	6d                   	ins    DWORD PTR es:[rdi],dx
    7491:	69 74 50 61 67 65 46 	imul   esi,DWORD PTR [rax+rdx*2+0x61],0x61466567
    7498:	61 
    7499:	75 6c                	jne    0x7507
    749b:	74 45                	je     0x74e2
    749d:	72 72                	jb     0x7511
    749f:	6f                   	outs   dx,DWORD PTR ds:[rsi]
    74a0:	72 43                	jb     0x74e5
    74a2:	6f                   	outs   dx,DWORD PTR ds:[rsi]
    74a3:	64 65 63 61 6c       	fs movsxd esp,DWORD PTR gs:[rcx+0x6c]
    74a8:	6c                   	ins    BYTE PTR es:[rdi],dx
    74a9:	65 64 20 60 52       	gs and BYTE PTR fs:[rax+0x52],ah
    74ae:	65 73 75             	gs jae 0x7526
    74b1:	6c                   	ins    BYTE PTR es:[rdi],dx
    74b2:	74 3a                	je     0x74ee
    74b4:	3a 75 6e             	cmp    dh,BYTE PTR [rbp+0x6e]
    74b7:	77 72                	ja     0x752b
    74b9:	61                   	(bad)
    74ba:	70 28                	jo     0x74e4
    74bc:	29 60 20             	sub    DWORD PTR [rax+0x20],esp
    74bf:	6f                   	outs   dx,DWORD PTR ds:[rsi]
    74c0:	6e                   	outs   dx,BYTE PTR ds:[rsi]
    74c1:	20 61 6e             	and    BYTE PTR [rcx+0x6e],ah
    74c4:	20 60 45             	and    BYTE PTR [rax+0x45],ah
    74c7:	72 72                	jb     0x753b
    74c9:	60                   	(bad)
    74ca:	20 76 61             	and    BYTE PTR [rsi+0x61],dh
    74cd:	6c                   	ins    BYTE PTR es:[rdi],dx
    74ce:	75 65                	jne    0x7535
    74d0:	e0 13                	loopne 0x74e5
	...
    74de:	00 00                	add    BYTE PTR [rax],al
    74e0:	01 00                	add    DWORD PTR [rax],eax
    74e2:	00 00                	add    BYTE PTR [rax],al
    74e4:	00 00                	add    BYTE PTR [rax],al
    74e6:	00 00                	add    BYTE PTR [rax],al
    74e8:	c0 14 00 00          	rcl    BYTE PTR [rax+rax*1],0x0
    74ec:	00 00                	add    BYTE PTR [rax],al
    74ee:	00 00                	add    BYTE PTR [rax],al
    74f0:	73 72                	jae    0x7564
    74f2:	63 2f                	movsxd ebp,DWORD PTR [rdi]
    74f4:	70 72                	jo     0x7568
    74f6:	69 6e 74 2e 72 73 00 	imul   ebp,DWORD PTR [rsi+0x74],0x73722e
    74fd:	00 00                	add    BYTE PTR [rax],al
    74ff:	00 f0                	add    al,dh
    7501:	74 00                	je     0x7503
    7503:	00 00                	add    BYTE PTR [rax],al
    7505:	00 00                	add    BYTE PTR [rax],al
    7507:	00 0c 00             	add    BYTE PTR [rax+rax*1],cl
    750a:	00 00                	add    BYTE PTR [rax],al
    750c:	00 00                	add    BYTE PTR [rax],al
    750e:	00 00                	add    BYTE PTR [rax],al
    7510:	5c                   	pop    rsp
    7511:	00 00                	add    BYTE PTR [rax],al
    7513:	00 23                	add    BYTE PTR [rbx],ah
    7515:	00 00                	add    BYTE PTR [rax],al
    7517:	00 47 6f             	add    BYTE PTR [rdi+0x6f],al
    751a:	74 20                	je     0x753c
    751c:	65 72 72             	gs jb  0x7591
    751f:	6f                   	outs   dx,DWORD PTR ds:[rsi]
    7520:	72 20                	jb     0x7542
    7522:	00 00                	add    BYTE PTR [rax],al
    7524:	00 00                	add    BYTE PTR [rax],al
    7526:	00 00                	add    BYTE PTR [rax],al
    7528:	18 75 00             	sbb    BYTE PTR [rbp+0x0],dh
    752b:	00 00                	add    BYTE PTR [rax],al
    752d:	00 00                	add    BYTE PTR [rax],al
    752f:	00 0a                	add    BYTE PTR [rdx],cl
    7531:	00 00                	add    BYTE PTR [rax],al
    7533:	00 00                	add    BYTE PTR [rax],al
    7535:	00 00                	add    BYTE PTR [rax],al
    7537:	00 90 79 00 00 00    	add    BYTE PTR [rax+0x79],dl
    753d:	00 00                	add    BYTE PTR [rax],al
    753f:	00 01                	add    BYTE PTR [rcx],al
    7541:	00 00                	add    BYTE PTR [rax],al
    7543:	00 00                	add    BYTE PTR [rax],al
    7545:	00 00                	add    BYTE PTR [rax],al
    7547:	00 47 6f             	add    BYTE PTR [rdi+0x6f],al
    754a:	74 20                	je     0x756c
    754c:	66 61                	data16 (bad)
    754e:	75 6c                	jne    0x75bc
    7550:	74 20                	je     0x7572
    7552:	63 6f 64             	movsxd ebp,DWORD PTR [rdi+0x64]
    7555:	65 20 00             	and    BYTE PTR gs:[rax],al
    7558:	48 75 00             	rex.W jne 0x755b
    755b:	00 00                	add    BYTE PTR [rax],al
    755d:	00 00                	add    BYTE PTR [rax],al
    755f:	00 0f                	add    BYTE PTR [rdi],cl
    7561:	00 00                	add    BYTE PTR [rax],al
    7563:	00 00                	add    BYTE PTR [rax],al
    7565:	00 00                	add    BYTE PTR [rax],al
    7567:	00 90 79 00 00 00    	add    BYTE PTR [rax+0x79],dl
    756d:	00 00                	add    BYTE PTR [rax],al
    756f:	00 01                	add    BYTE PTR [rcx],al
    7571:	00 00                	add    BYTE PTR [rax],al
    7573:	00 00                	add    BYTE PTR [rax],al
    7575:	00 00                	add    BYTE PTR [rax],al
    7577:	00 29                	add    BYTE PTR [rcx],ch
    7579:	20 77 68             	and    BYTE PTR [rdi+0x68],dh
    757c:	65 6e                	outs   dx,BYTE PTR gs:[rsi]
    757e:	20 73 6c             	and    BYTE PTR [rbx+0x6c],dh
    7581:	69 63 69 6e 67 20 60 	imul   esp,DWORD PTR [rbx+0x69],0x6020676e
    7588:	72 61                	jb     0x75eb
    758a:	6e                   	outs   dx,BYTE PTR ds:[rsi]
    758b:	67 65 20 65 6e       	and    BYTE PTR gs:[ebp+0x6e],ah
    7590:	64 20 69 6e          	and    BYTE PTR fs:[rcx+0x6e],ch
    7594:	64 65 78 20          	fs gs js 0x75b8
    7598:	47 6f                	rex.RXB outs dx,DWORD PTR ds:[rsi]
    759a:	74 20                	je     0x75bc
    759c:	62 72 65 61 6b       	(bad)
    75a1:	70 6f                	jo     0x7612
    75a3:	69 6e 74 2e 0a 56 69 	imul   ebp,DWORD PTR [rsi+0x74],0x69560a2e
    75aa:	72 74                	jb     0x7620
    75ac:	41                   	rex.B
    75ad:	64 64 72 4e          	fs fs jb 0x75ff
    75b1:	6f                   	outs   dx,DWORD PTR ds:[rsi]
    75b2:	74 56                	je     0x760a
    75b4:	61                   	(bad)
    75b5:	6c                   	ins    BYTE PTR es:[rdi],dx
    75b6:	69 64 30 31 32 33 34 	imul   esp,DWORD PTR [rax+rsi*1+0x31],0x35343332
    75bd:	35 
    75be:	36 37                	ss (bad)
    75c0:	38 39                	cmp    BYTE PTR [rcx],bh
    75c2:	61                   	(bad)
    75c3:	62 63 64 65 66       	(bad)
    75c8:	98                   	cwde
    75c9:	75 00                	jne    0x75cb
    75cb:	00 00                	add    BYTE PTR [rax],al
    75cd:	00 00                	add    BYTE PTR [rax],al
    75cf:	00 10                	add    BYTE PTR [rax],dl
    75d1:	00 00                	add    BYTE PTR [rax],al
    75d3:	00 00                	add    BYTE PTR [rax],al
    75d5:	00 00                	add    BYTE PTR [rax],al
    75d7:	00 90 79 00 00 00    	add    BYTE PTR [rax+0x79],dl
    75dd:	00 00                	add    BYTE PTR [rax],al
    75df:	00 01                	add    BYTE PTR [rcx],al
    75e1:	00 00                	add    BYTE PTR [rax],al
    75e3:	00 00                	add    BYTE PTR [rax],al
    75e5:	00 00                	add    BYTE PTR [rax],al
    75e7:	00 45 72             	add    BYTE PTR [rbp+0x72],al
    75ea:	72 6f                	jb     0x765b
    75ec:	72 3a                	jb     0x7628
    75ee:	20 00                	and    BYTE PTR [rax],al
    75f0:	e8 75 00 00 00       	call   0x766a
    75f5:	00 00                	add    BYTE PTR [rax],al
    75f7:	00 07                	add    BYTE PTR [rdi],al
    75f9:	00 00                	add    BYTE PTR [rax],al
    75fb:	00 00                	add    BYTE PTR [rax],al
    75fd:	00 00                	add    BYTE PTR [rax],al
    75ff:	00 90 79 00 00 00    	add    BYTE PTR [rax+0x79],dl
    7605:	00 00                	add    BYTE PTR [rax],al
    7607:	00 01                	add    BYTE PTR [rcx],al
    7609:	00 00                	add    BYTE PTR [rax],al
    760b:	00 00                	add    BYTE PTR [rax],al
    760d:	00 00                	add    BYTE PTR [rax],al
    760f:	00 69 6e             	add    BYTE PTR [rcx+0x6e],ch
    7612:	74 65                	je     0x7679
    7614:	72 72                	jb     0x7688
    7616:	75 70                	jne    0x7688
    7618:	74 73                	je     0x768d
    761a:	20 61 72             	and    BYTE PTR [rcx+0x72],ah
    761d:	65 20 65 6e          	and    BYTE PTR gs:[rbp+0x6e],ah
    7621:	61                   	(bad)
    7622:	62                   	(bad)
    7623:	6c                   	ins    BYTE PTR es:[rdi],dx
    7624:	65 64 0a 52 61       	gs or  dl,BYTE PTR fs:[rdx+0x61]
    7629:	6e                   	outs   dx,BYTE PTR ds:[rsi]
    762a:	64 6f                	outs   dx,DWORD PTR fs:[rsi]
    762c:	6d                   	ins    DWORD PTR es:[rdi],dx
    762d:	20 6e 75             	and    BYTE PTR [rsi+0x75],ch
    7630:	6d                   	ins    DWORD PTR es:[rdi],dx
    7631:	62 65                	(bad)
    7633:	72 20                	jb     0x7655
    7635:	69 73 3a 20 00 00 00 	imul   esi,DWORD PTR [rbx+0x3a],0x20
    763c:	00 00                	add    BYTE PTR [rax],al
    763e:	00 00                	add    BYTE PTR [rax],al
    7640:	27                   	(bad)
    7641:	76 00                	jbe    0x7643
    7643:	00 00                	add    BYTE PTR [rax],al
    7645:	00 00                	add    BYTE PTR [rax],al
    7647:	00 12                	add    BYTE PTR [rdx],dl
    7649:	00 00                	add    BYTE PTR [rax],al
    764b:	00 00                	add    BYTE PTR [rax],al
    764d:	00 00                	add    BYTE PTR [rax],al
    764f:	00 90 79 00 00 00    	add    BYTE PTR [rax+0x79],dl
    7655:	00 00                	add    BYTE PTR [rax],al
    7657:	00 01                	add    BYTE PTR [rcx],al
    7659:	00 00                	add    BYTE PTR [rax],al
    765b:	00 00                	add    BYTE PTR [rax],al
    765d:	00 00                	add    BYTE PTR [rax],al
    765f:	00 43 75             	add    BYTE PTR [rbx+0x75],al
    7662:	72 72                	jb     0x76d6
    7664:	65 6e                	outs   dx,BYTE PTR gs:[rsi]
    7666:	74 20                	je     0x7688
    7668:	63 6f 64             	movsxd ebp,DWORD PTR [rdi+0x64]
    766b:	65 20 6c 65 76       	and    BYTE PTR gs:[rbp+riz*2+0x76],ch
    7670:	65 6c                	gs ins BYTE PTR es:[rdi],dx
    7672:	20 00                	and    BYTE PTR [rax],al
    7674:	00 00                	add    BYTE PTR [rax],al
    7676:	00 00                	add    BYTE PTR [rax],al
    7678:	60                   	(bad)
    7679:	76 00                	jbe    0x767b
    767b:	00 00                	add    BYTE PTR [rax],al
    767d:	00 00                	add    BYTE PTR [rax],al
    767f:	00 13                	add    BYTE PTR [rbx],dl
    7681:	00 00                	add    BYTE PTR [rax],al
    7683:	00 00                	add    BYTE PTR [rax],al
    7685:	00 00                	add    BYTE PTR [rax],al
    7687:	00 90 79 00 00 00    	add    BYTE PTR [rax+0x79],dl
    768d:	00 00                	add    BYTE PTR [rax],al
    768f:	00 01                	add    BYTE PTR [rcx],al
    7691:	00 00                	add    BYTE PTR [rax],al
    7693:	00 00                	add    BYTE PTR [rax],al
    7695:	00 00                	add    BYTE PTR [rax],al
    7697:	00 53 74             	add    BYTE PTR [rbx+0x74],dl
    769a:	61                   	(bad)
    769b:	63 6b 20             	movsxd ebp,DWORD PTR [rbx+0x20]
    769e:	69 73 20 00 00 00 00 	imul   esi,DWORD PTR [rbx+0x20],0x0
    76a5:	00 00                	add    BYTE PTR [rax],al
    76a7:	00 98 76 00 00 00    	add    BYTE PTR [rax+0x76],bl
    76ad:	00 00                	add    BYTE PTR [rax],al
    76af:	00 09                	add    BYTE PTR [rcx],cl
    76b1:	00 00                	add    BYTE PTR [rax],al
    76b3:	00 00                	add    BYTE PTR [rax],al
    76b5:	00 00                	add    BYTE PTR [rax],al
    76b7:	00 90 79 00 00 00    	add    BYTE PTR [rax+0x79],dl
    76bd:	00 00                	add    BYTE PTR [rax],al
    76bf:	00 01                	add    BYTE PTR [rcx],al
    76c1:	00 00                	add    BYTE PTR [rax],al
    76c3:	00 00                	add    BYTE PTR [rax],al
    76c5:	00 00                	add    BYTE PTR [rax],al
    76c7:	00 65 6e             	add    BYTE PTR [rbp+0x6e],ah
    76ca:	61                   	(bad)
    76cb:	62                   	(bad)
    76cc:	6c                   	ins    BYTE PTR es:[rdi],dx
    76cd:	69 6e 67 20 69 6e 74 	imul   ebp,DWORD PTR [rsi+0x67],0x746e6920
    76d4:	65 72 72             	gs jb  0x7749
    76d7:	75 70                	jne    0x7749
    76d9:	74 73                	je     0x774e
    76db:	20 0a                	and    BYTE PTR [rdx],cl
    76dd:	69 6e 74 65 72 72 75 	imul   ebp,DWORD PTR [rsi+0x74],0x75727265
    76e4:	70 74                	jo     0x775a
    76e6:	73 20                	jae    0x7708
    76e8:	68 61 76 65 20       	push   0x20657661
    76ed:	62 65 65 6e 20       	(bad)
    76f2:	65 6e                	outs   dx,BYTE PTR gs:[rsi]
    76f4:	61                   	(bad)
    76f5:	62                   	(bad)
    76f6:	6c                   	ins    BYTE PTR es:[rdi],dx
    76f7:	65 64 0a 54 65 73    	gs or  dl,BYTE PTR fs:[rbp+riz*2+0x73]
    76fd:	74 69                	je     0x7768
    76ff:	6e                   	outs   dx,BYTE PTR ds:[rsi]
    7700:	67 20 66 6f          	and    BYTE PTR [esi+0x6f],ah
    7704:	72 6d                	jb     0x7773
    7706:	61                   	(bad)
    7707:	74 74                	je     0x777d
    7709:	69 6e 67 20 31 30 0a 	imul   ebp,DWORD PTR [rsi+0x67],0xa303120
    7710:	fa                   	cli
    7711:	76 00                	jbe    0x7713
    7713:	00 00                	add    BYTE PTR [rax],al
    7715:	00 00                	add    BYTE PTR [rax],al
    7717:	00 16                	add    BYTE PTR [rsi],dl
    7719:	00 00                	add    BYTE PTR [rax],al
    771b:	00 00                	add    BYTE PTR [rax],al
    771d:	00 00                	add    BYTE PTR [rax],al
    771f:	00 4e 6f             	add    BYTE PTR [rsi+0x6f],cl
    7722:	77 20                	ja     0x7744
    7724:	75 73                	jne    0x7799
    7726:	69 6e 67 20 6f 75 72 	imul   ebp,DWORD PTR [rsi+0x67],0x72756f20
    772d:	20 66 61             	and    BYTE PTR [rsi+0x61],ah
    7730:	6e                   	outs   dx,BYTE PTR ds:[rsi]
    7731:	63 79 20             	movsxd edi,DWORD PTR [rcx+0x20]
    7734:	6d                   	ins    DWORD PTR es:[rdi],dx
    7735:	65 73 73             	gs jae 0x77ab
    7738:	61                   	(bad)
    7739:	67 65 0a 50 72       	or     dl,BYTE PTR gs:[eax+0x72]
    773e:	69 6e 74 69 6e 67 20 	imul   ebp,DWORD PTR [rsi+0x74],0x20676e69
    7745:	69 73 20 6d 75 63 68 	imul   esi,DWORD PTR [rbx+0x20],0x6863756d
    774c:	20 65 61             	and    BYTE PTR [rbp+0x61],ah
    774f:	73 69                	jae    0x77ba
    7751:	65 72 20             	gs jb  0x7774
    7754:	6e                   	outs   dx,BYTE PTR ds:[rsi]
    7755:	6f                   	outs   dx,DWORD PTR ds:[rsi]
    7756:	77 2e                	ja     0x7786
    7758:	2e 0a 54 65 73       	cs or  dl,BYTE PTR [rbp+riz*2+0x73]
    775d:	74 69                	je     0x77c8
    775f:	6e                   	outs   dx,BYTE PTR ds:[rsi]
    7760:	67 20 69 6e          	and    BYTE PTR [ecx+0x6e],ch
    7764:	76 61                	jbe    0x77c7
    7766:	6c                   	ins    BYTE PTR es:[rdi],dx
    7767:	69 64 20 6c 6f 63 61 	imul   esp,DWORD PTR [rax+riz*1+0x6c],0x7461636f
    776e:	74 
    776f:	69 6f 6e 20 0a 49 44 	imul   ebp,DWORD PTR [rdi+0x6e],0x44490a20
    7776:	54                   	push   rsp
    7777:	20 69 73             	and    BYTE PTR [rcx+0x73],ch
    777a:	20 61 74             	and    BYTE PTR [rcx+0x74],ah
    777d:	20 00                	and    BYTE PTR [rax],al
    777f:	00 74 77 00          	add    BYTE PTR [rdi+rsi*2+0x0],dh
    7783:	00 00                	add    BYTE PTR [rax],al
    7785:	00 00                	add    BYTE PTR [rax],al
    7787:	00 0a                	add    BYTE PTR [rdx],cl
    7789:	00 00                	add    BYTE PTR [rax],al
    778b:	00 00                	add    BYTE PTR [rax],al
    778d:	00 00                	add    BYTE PTR [rax],al
    778f:	00 90 79 00 00 00    	add    BYTE PTR [rax+0x79],dl
    7795:	00 00                	add    BYTE PTR [rax],al
    7797:	00 01                	add    BYTE PTR [rcx],al
    7799:	00 00                	add    BYTE PTR [rax],al
    779b:	00 00                	add    BYTE PTR [rax],al
    779d:	00 00                	add    BYTE PTR [rax],al
    779f:	00 46 6f             	add    BYTE PTR [rsi+0x6f],al
    77a2:	75 6e                	jne    0x7812
    77a4:	64 20 64 61 74       	and    BYTE PTR fs:[rcx+riz*2+0x74],ah
    77a9:	61                   	(bad)
    77aa:	20 61 74             	and    BYTE PTR [rcx+0x74],ah
    77ad:	3a 20                	cmp    ah,BYTE PTR [rax]
    77af:	00 a0 77 00 00 00    	add    BYTE PTR [rax+0x77],ah
    77b5:	00 00                	add    BYTE PTR [rax],al
    77b7:	00 0f                	add    BYTE PTR [rdi],cl
    77b9:	00 00                	add    BYTE PTR [rax],al
    77bb:	00 00                	add    BYTE PTR [rax],al
    77bd:	00 00                	add    BYTE PTR [rax],al
    77bf:	00 90 79 00 00 00    	add    BYTE PTR [rax+0x79],dl
    77c5:	00 00                	add    BYTE PTR [rax],al
    77c7:	00 01                	add    BYTE PTR [rcx],al
    77c9:	00 00                	add    BYTE PTR [rax],al
    77cb:	00 00                	add    BYTE PTR [rax],al
    77cd:	00 00                	add    BYTE PTR [rax],al
    77cf:	00 57 72             	add    BYTE PTR [rdi+0x72],dl
    77d2:	6f                   	outs   dx,DWORD PTR ds:[rsi]
    77d3:	74 65                	je     0x783a
    77d5:	20 74 6f 20          	and    BYTE PTR [rdi+rbp*2+0x20],dh
    77d9:	69 6e 76 61 6c 69 64 	imul   ebp,DWORD PTR [rsi+0x76],0x64696c61
    77e0:	20 6c 6f 63          	and    BYTE PTR [rdi+rbp*2+0x63],ch
    77e4:	61                   	(bad)
    77e5:	74 69                	je     0x7850
    77e7:	6f                   	outs   dx,DWORD PTR ds:[rsi]
    77e8:	6e                   	outs   dx,BYTE PTR ds:[rsi]
    77e9:	21 0a                	and    DWORD PTR [rdx],ecx
    77eb:	63 61 6c             	movsxd esp,DWORD PTR [rcx+0x6c]
    77ee:	6c                   	ins    BYTE PTR es:[rdi],dx
    77ef:	65 64 20 60 4f       	gs and BYTE PTR fs:[rax+0x4f],ah
    77f4:	70 74                	jo     0x786a
    77f6:	69 6f 6e 3a 3a 75 6e 	imul   ebp,DWORD PTR [rdi+0x6e],0x6e753a3a
    77fd:	77 72                	ja     0x7871
    77ff:	61                   	(bad)
    7800:	70 28                	jo     0x782a
    7802:	29 60 20             	sub    DWORD PTR [rax+0x20],esp
    7805:	6f                   	outs   dx,DWORD PTR ds:[rsi]
    7806:	6e                   	outs   dx,BYTE PTR ds:[rsi]
    7807:	20 61 20             	and    BYTE PTR [rcx+0x20],ah
    780a:	60                   	(bad)
    780b:	4e 6f                	rex.WRX outs dx,DWORD PTR ds:[rsi]
    780d:	6e                   	outs   dx,BYTE PTR ds:[rsi]
    780e:	65 60                	gs (bad)
    7810:	20 76 61             	and    BYTE PTR [rsi+0x61],dh
    7813:	6c                   	ins    BYTE PTR es:[rdi],dx
    7814:	75 65                	jne    0x787b
    7816:	29 2f                	sub    DWORD PTR [rdi],ebp
    7818:	68 6f 6d 65 2f       	push   0x2f656d6f
    781d:	65 63 32             	movsxd esi,DWORD PTR gs:[rdx]
    7820:	2d 75 73 65 72       	sub    eax,0x72657375
    7825:	2f                   	(bad)
    7826:	2e 72 75             	cs jb  0x789e
    7829:	73 74                	jae    0x789f
    782b:	75 70                	jne    0x789d
    782d:	2f                   	(bad)
    782e:	74 6f                	je     0x789f
    7830:	6f                   	outs   dx,DWORD PTR ds:[rsi]
    7831:	6c                   	ins    BYTE PTR es:[rdi],dx
    7832:	63 68 61             	movsxd ebp,DWORD PTR [rax+0x61]
    7835:	69 6e 73 2f 6e 69 67 	imul   ebp,DWORD PTR [rsi+0x73],0x67696e2f
    783c:	68 74 6c 79 2d       	push   0x2d796c74
    7841:	78 38                	js     0x787b
    7843:	36 5f                	ss pop rdi
    7845:	36 34 2d             	ss xor al,0x2d
    7848:	75 6e                	jne    0x78b8
    784a:	6b 6e 6f 77          	imul   ebp,DWORD PTR [rsi+0x6f],0x77
    784e:	6e                   	outs   dx,BYTE PTR ds:[rsi]
    784f:	2d 6c 69 6e 75       	sub    eax,0x756e696c
    7854:	78 2d                	js     0x7883
    7856:	67 6e                	outs   dx,BYTE PTR ds:[esi]
    7858:	75 2f                	jne    0x7889
    785a:	6c                   	ins    BYTE PTR es:[rdi],dx
    785b:	69 62 2f 72 75 73 74 	imul   esp,DWORD PTR [rdx+0x2f],0x74737572
    7862:	6c                   	ins    BYTE PTR es:[rdi],dx
    7863:	69 62 2f 73 72 63 2f 	imul   esp,DWORD PTR [rdx+0x2f],0x2f637273
    786a:	72 75                	jb     0x78e1
    786c:	73 74                	jae    0x78e2
    786e:	2f                   	(bad)
    786f:	6c                   	ins    BYTE PTR es:[rdi],dx
    7870:	69 62 72 61 72 79 2f 	imul   esp,DWORD PTR [rdx+0x72],0x2f797261
    7877:	63 6f 72             	movsxd ebp,DWORD PTR [rdi+0x72]
    787a:	65 2f                	gs (bad)
    787c:	73 72                	jae    0x78f0
    787e:	63 2f                	movsxd ebp,DWORD PTR [rdi]
    7880:	66 6d                	ins    WORD PTR es:[rdi],dx
    7882:	74 2f                	je     0x78b3
    7884:	6d                   	ins    DWORD PTR es:[rdi],dx
    7885:	6f                   	outs   dx,DWORD PTR ds:[rsi]
    7886:	64 2e 72 73          	fs cs jb 0x78fd
    788a:	2e 2e 00 00          	cs cs add BYTE PTR [rax],al
    788e:	00 00                	add    BYTE PTR [rax],al
    7890:	8a 78 00             	mov    bh,BYTE PTR [rax+0x0]
    7893:	00 00                	add    BYTE PTR [rax],al
    7895:	00 00                	add    BYTE PTR [rax],al
    7897:	00 02                	add    BYTE PTR [rdx],al
    7899:	00 00                	add    BYTE PTR [rax],al
    789b:	00 00                	add    BYTE PTR [rax],al
    789d:	00 00                	add    BYTE PTR [rax],al
    789f:	00 41 6e             	add    BYTE PTR [rcx+0x6e],al
    78a2:	79 5b                	jns    0x78ff
    78a4:	00 00                	add    BYTE PTR [rax],al
    78a6:	00 00                	add    BYTE PTR [rax],al
    78a8:	e0 13                	loopne 0x78bd
	...
    78b6:	00 00                	add    BYTE PTR [rax],al
    78b8:	01 00                	add    DWORD PTR [rax],eax
    78ba:	00 00                	add    BYTE PTR [rax],al
    78bc:	00 00                	add    BYTE PTR [rax],al
    78be:	00 00                	add    BYTE PTR [rax],al
    78c0:	00 34 00             	add    BYTE PTR [rax+rax*1],dh
    78c3:	00 00                	add    BYTE PTR [rax],al
    78c5:	00 00                	add    BYTE PTR [rax],al
    78c7:	00 69 6e             	add    BYTE PTR [rcx+0x6e],ch
    78ca:	64 65 78 20          	fs gs js 0x78ee
    78ce:	6f                   	outs   dx,DWORD PTR ds:[rsi]
    78cf:	75 74                	jne    0x7945
    78d1:	20 6f 66             	and    BYTE PTR [rdi+0x66],ch
    78d4:	20 62 6f             	and    BYTE PTR [rdx+0x6f],ah
    78d7:	75 6e                	jne    0x7947
    78d9:	64 73 3a             	fs jae 0x7916
    78dc:	20 74 68 65          	and    BYTE PTR [rax+rbp*2+0x65],dh
    78e0:	20 6c 65 6e          	and    BYTE PTR [rbp+riz*2+0x6e],ch
    78e4:	20 69 73             	and    BYTE PTR [rcx+0x73],ch
    78e7:	20 20                	and    BYTE PTR [rax],ah
    78e9:	62 75 74 20 74       	(bad)
    78ee:	68 65 20 69 6e       	push   0x6e692065
    78f3:	64 65 78 20          	fs gs js 0x7917
    78f7:	69 73 20 00 00 00 00 	imul   esi,DWORD PTR [rbx+0x20],0x0
    78fe:	00 00                	add    BYTE PTR [rax],al
    7900:	c8 78 00 00          	enter  0x78,0x0
    7904:	00 00                	add    BYTE PTR [rax],al
    7906:	00 00                	add    BYTE PTR [rax],al
    7908:	20 00                	and    BYTE PTR [rax],al
    790a:	00 00                	add    BYTE PTR [rax],al
    790c:	00 00                	add    BYTE PTR [rax],al
    790e:	00 00                	add    BYTE PTR [rax],al
    7910:	e8 78 00 00 00       	call   0x798d
    7915:	00 00                	add    BYTE PTR [rax],al
    7917:	00 12                	add    BYTE PTR [rdx],dl
    7919:	00 00                	add    BYTE PTR [rax],al
    791b:	00 00                	add    BYTE PTR [rax],al
    791d:	00 00                	add    BYTE PTR [rax],al
    791f:	00 3a                	add    BYTE PTR [rdx],bh
    7921:	20 00                	and    BYTE PTR [rax],al
    7923:	00 00                	add    BYTE PTR [rax],al
    7925:	00 00                	add    BYTE PTR [rax],al
    7927:	00 68 88             	add    BYTE PTR [rax-0x78],ch
	...
    7936:	00 00                	add    BYTE PTR [rax],al
    7938:	20 79 00             	and    BYTE PTR [rcx+0x0],bh
    793b:	00 00                	add    BYTE PTR [rax],al
    793d:	00 00                	add    BYTE PTR [rax],al
    793f:	00 02                	add    BYTE PTR [rdx],al
    7941:	00 00                	add    BYTE PTR [rax],al
    7943:	00 00                	add    BYTE PTR [rax],al
    7945:	00 00                	add    BYTE PTR [rax],al
    7947:	00 d0                	add    al,dl
    7949:	13 00                	adc    eax,DWORD PTR [rax]
    794b:	00 00                	add    BYTE PTR [rax],al
    794d:	00 00                	add    BYTE PTR [rax],al
    794f:	00 18                	add    BYTE PTR [rax],bl
    7951:	00 00                	add    BYTE PTR [rax],al
    7953:	00 00                	add    BYTE PTR [rax],al
    7955:	00 00                	add    BYTE PTR [rax],al
    7957:	00 08                	add    BYTE PTR [rax],cl
    7959:	00 00                	add    BYTE PTR [rax],al
    795b:	00 00                	add    BYTE PTR [rax],al
    795d:	00 00                	add    BYTE PTR [rax],al
    795f:	00 50 46             	add    BYTE PTR [rax+0x46],dl
    7962:	00 00                	add    BYTE PTR [rax],al
    7964:	00 00                	add    BYTE PTR [rax],al
    7966:	00 00                	add    BYTE PTR [rax],al
    7968:	00 49 00             	add    BYTE PTR [rcx+0x0],cl
    796b:	00 00                	add    BYTE PTR [rax],al
    796d:	00 00                	add    BYTE PTR [rax],al
    796f:	00 60 49             	add    BYTE PTR [rax+0x49],ah
    7972:	00 00                	add    BYTE PTR [rax],al
    7974:	00 00                	add    BYTE PTR [rax],al
    7976:	00 00                	add    BYTE PTR [rax],al
    7978:	20 7b 20             	and    BYTE PTR [rbx+0x20],bh
    797b:	2c 20                	sub    al,0x20
    797d:	20 7b 0a             	and    BYTE PTR [rbx+0xa],bh
    7980:	2c 0a                	sub    al,0xa
    7982:	20 7b 20             	and    BYTE PTR [rbx+0x20],bh
    7985:	2e 2e 20 7d 7d       	cs cs and BYTE PTR [rbp+0x7d],bh
    798a:	20 7d 28             	and    BYTE PTR [rbp+0x28],bh
    798d:	28 0a                	sub    BYTE PTR [rdx],cl
    798f:	2c 0a                	sub    al,0xa
    7991:	5d                   	pop    rbp
    7992:	2f                   	(bad)
    7993:	68 6f 6d 65 2f       	push   0x2f656d6f
    7998:	65 63 32             	movsxd esi,DWORD PTR gs:[rdx]
    799b:	2d 75 73 65 72       	sub    eax,0x72657375
    79a0:	2f                   	(bad)
    79a1:	2e 72 75             	cs jb  0x7a19
    79a4:	73 74                	jae    0x7a1a
    79a6:	75 70                	jne    0x7a18
    79a8:	2f                   	(bad)
    79a9:	74 6f                	je     0x7a1a
    79ab:	6f                   	outs   dx,DWORD PTR ds:[rsi]
    79ac:	6c                   	ins    BYTE PTR es:[rdi],dx
    79ad:	63 68 61             	movsxd ebp,DWORD PTR [rax+0x61]
    79b0:	69 6e 73 2f 6e 69 67 	imul   ebp,DWORD PTR [rsi+0x73],0x67696e2f
    79b7:	68 74 6c 79 2d       	push   0x2d796c74
    79bc:	78 38                	js     0x79f6
    79be:	36 5f                	ss pop rdi
    79c0:	36 34 2d             	ss xor al,0x2d
    79c3:	75 6e                	jne    0x7a33
    79c5:	6b 6e 6f 77          	imul   ebp,DWORD PTR [rsi+0x6f],0x77
    79c9:	6e                   	outs   dx,BYTE PTR ds:[rsi]
    79ca:	2d 6c 69 6e 75       	sub    eax,0x756e696c
    79cf:	78 2d                	js     0x79fe
    79d1:	67 6e                	outs   dx,BYTE PTR ds:[esi]
    79d3:	75 2f                	jne    0x7a04
    79d5:	6c                   	ins    BYTE PTR es:[rdi],dx
    79d6:	69 62 2f 72 75 73 74 	imul   esp,DWORD PTR [rdx+0x2f],0x74737572
    79dd:	6c                   	ins    BYTE PTR es:[rdi],dx
    79de:	69 62 2f 73 72 63 2f 	imul   esp,DWORD PTR [rdx+0x2f],0x2f637273
    79e5:	72 75                	jb     0x7a5c
    79e7:	73 74                	jae    0x7a5d
    79e9:	2f                   	(bad)
    79ea:	6c                   	ins    BYTE PTR es:[rdi],dx
    79eb:	69 62 72 61 72 79 2f 	imul   esp,DWORD PTR [rdx+0x72],0x2f797261
    79f2:	63 6f 72             	movsxd ebp,DWORD PTR [rdi+0x72]
    79f5:	65 2f                	gs (bad)
    79f7:	73 72                	jae    0x7a6b
    79f9:	63 2f                	movsxd ebp,DWORD PTR [rdi]
    79fb:	66 6d                	ins    WORD PTR es:[rdi],dx
    79fd:	74 2f                	je     0x7a2e
    79ff:	6e                   	outs   dx,BYTE PTR ds:[rsi]
    7a00:	75 6d                	jne    0x7a6f
    7a02:	2e 72 73             	cs jb  0x7a78
    7a05:	00 00                	add    BYTE PTR [rax],al
    7a07:	00 92 79 00 00 00    	add    BYTE PTR [rdx+0x79],dl
    7a0d:	00 00                	add    BYTE PTR [rax],al
    7a0f:	00 73 00             	add    BYTE PTR [rbx+0x0],dh
    7a12:	00 00                	add    BYTE PTR [rax],al
    7a14:	00 00                	add    BYTE PTR [rax],al
    7a16:	00 00                	add    BYTE PTR [rax],al
    7a18:	69 00 00 00 17 00    	imul   eax,DWORD PTR [rax],0x170000
    7a1e:	00 00                	add    BYTE PTR [rax],al
    7a20:	30 30                	xor    BYTE PTR [rax],dh
    7a22:	30 31                	xor    BYTE PTR [rcx],dh
    7a24:	30 32                	xor    BYTE PTR [rdx],dh
    7a26:	30 33                	xor    BYTE PTR [rbx],dh
    7a28:	30 34 30             	xor    BYTE PTR [rax+rsi*1],dh
    7a2b:	35 30 36 30 37       	xor    eax,0x37303630
    7a30:	30 38                	xor    BYTE PTR [rax],bh
    7a32:	30 39                	xor    BYTE PTR [rcx],bh
    7a34:	31 30                	xor    DWORD PTR [rax],esi
    7a36:	31 31                	xor    DWORD PTR [rcx],esi
    7a38:	31 32                	xor    DWORD PTR [rdx],esi
    7a3a:	31 33                	xor    DWORD PTR [rbx],esi
    7a3c:	31 34 31             	xor    DWORD PTR [rcx+rsi*1],esi
    7a3f:	35 31 36 31 37       	xor    eax,0x37313631
    7a44:	31 38                	xor    DWORD PTR [rax],edi
    7a46:	31 39                	xor    DWORD PTR [rcx],edi
    7a48:	32 30                	xor    dh,BYTE PTR [rax]
    7a4a:	32 31                	xor    dh,BYTE PTR [rcx]
    7a4c:	32 32                	xor    dh,BYTE PTR [rdx]
    7a4e:	32 33                	xor    dh,BYTE PTR [rbx]
    7a50:	32 34 32             	xor    dh,BYTE PTR [rdx+rsi*1]
    7a53:	35 32 36 32 37       	xor    eax,0x37323632
    7a58:	32 38                	xor    bh,BYTE PTR [rax]
    7a5a:	32 39                	xor    bh,BYTE PTR [rcx]
    7a5c:	33 30                	xor    esi,DWORD PTR [rax]
    7a5e:	33 31                	xor    esi,DWORD PTR [rcx]
    7a60:	33 32                	xor    esi,DWORD PTR [rdx]
    7a62:	33 33                	xor    esi,DWORD PTR [rbx]
    7a64:	33 34 33             	xor    esi,DWORD PTR [rbx+rsi*1]
    7a67:	35 33 36 33 37       	xor    eax,0x37333633
    7a6c:	33 38                	xor    edi,DWORD PTR [rax]
    7a6e:	33 39                	xor    edi,DWORD PTR [rcx]
    7a70:	34 30                	xor    al,0x30
    7a72:	34 31                	xor    al,0x31
    7a74:	34 32                	xor    al,0x32
    7a76:	34 33                	xor    al,0x33
    7a78:	34 34                	xor    al,0x34
    7a7a:	34 35                	xor    al,0x35
    7a7c:	34 36                	xor    al,0x36
    7a7e:	34 37                	xor    al,0x37
    7a80:	34 38                	xor    al,0x38
    7a82:	34 39                	xor    al,0x39
    7a84:	35 30 35 31 35       	xor    eax,0x35313530
    7a89:	32 35 33 35 34 35    	xor    dh,BYTE PTR [rip+0x35343533]        # 0x3534afc2
    7a8f:	35 35 36 35 37       	xor    eax,0x37353635
    7a94:	35 38 35 39 36       	xor    eax,0x36393538
    7a99:	30 36                	xor    BYTE PTR [rsi],dh
    7a9b:	31 36                	xor    DWORD PTR [rsi],esi
    7a9d:	32 36                	xor    dh,BYTE PTR [rsi]
    7a9f:	33 36                	xor    esi,DWORD PTR [rsi]
    7aa1:	34 36                	xor    al,0x36
    7aa3:	35 36 36 36 37       	xor    eax,0x37363636
    7aa8:	36 38 36             	ss cmp BYTE PTR [rsi],dh
    7aab:	39 37                	cmp    DWORD PTR [rdi],esi
    7aad:	30 37                	xor    BYTE PTR [rdi],dh
    7aaf:	31 37                	xor    DWORD PTR [rdi],esi
    7ab1:	32 37                	xor    dh,BYTE PTR [rdi]
    7ab3:	33 37                	xor    esi,DWORD PTR [rdi]
    7ab5:	34 37                	xor    al,0x37
    7ab7:	35 37 36 37 37       	xor    eax,0x37373637
    7abc:	37                   	(bad)
    7abd:	38 37                	cmp    BYTE PTR [rdi],dh
    7abf:	39 38                	cmp    DWORD PTR [rax],edi
    7ac1:	30 38                	xor    BYTE PTR [rax],bh
    7ac3:	31 38                	xor    DWORD PTR [rax],edi
    7ac5:	32 38                	xor    bh,BYTE PTR [rax]
    7ac7:	33 38                	xor    edi,DWORD PTR [rax]
    7ac9:	34 38                	xor    al,0x38
    7acb:	35 38 36 38 37       	xor    eax,0x37383638
    7ad0:	38 38                	cmp    BYTE PTR [rax],bh
    7ad2:	38 39                	cmp    BYTE PTR [rcx],bh
    7ad4:	39 30                	cmp    DWORD PTR [rax],esi
    7ad6:	39 31                	cmp    DWORD PTR [rcx],esi
    7ad8:	39 32                	cmp    DWORD PTR [rdx],esi
    7ada:	39 33                	cmp    DWORD PTR [rbx],esi
    7adc:	39 34 39             	cmp    DWORD PTR [rcx+rdi*1],esi
    7adf:	35 39 36 39 37       	xor    eax,0x37393639
    7ae4:	39 38                	cmp    DWORD PTR [rax],edi
    7ae6:	39 39                	cmp    DWORD PTR [rcx],edi
    7ae8:	66 61                	data16 (bad)
    7aea:	6c                   	ins    BYTE PTR es:[rdi],dx
    7aeb:	73 65                	jae    0x7b52
    7aed:	00 00                	add    BYTE PTR [rax],al
    7aef:	00 17                	add    BYTE PTR [rdi],dl
    7af1:	78 00                	js     0x7af3
    7af3:	00 00                	add    BYTE PTR [rax],al
    7af5:	00 00                	add    BYTE PTR [rax],al
    7af7:	00 73 00             	add    BYTE PTR [rbx+0x0],dh
    7afa:	00 00                	add    BYTE PTR [rax],al
    7afc:	00 00                	add    BYTE PTR [rax],al
    7afe:	00 00                	add    BYTE PTR [rax],al
    7b00:	35 09 00 00 1a       	xor    eax,0x1a000009
    7b05:	00 00                	add    BYTE PTR [rax],al
    7b07:	00 17                	add    BYTE PTR [rdi],dl
    7b09:	78 00                	js     0x7b0b
    7b0b:	00 00                	add    BYTE PTR [rax],al
    7b0d:	00 00                	add    BYTE PTR [rax],al
    7b0f:	00 73 00             	add    BYTE PTR [rbx+0x0],dh
    7b12:	00 00                	add    BYTE PTR [rax],al
    7b14:	00 00                	add    BYTE PTR [rax],al
    7b16:	00 00                	add    BYTE PTR [rax],al
    7b18:	2e 09 00             	cs or  DWORD PTR [rax],eax
    7b1b:	00 22                	add    BYTE PTR [rdx],ah
    7b1d:	00 00                	add    BYTE PTR [rax],al
    7b1f:	00 72 61             	add    BYTE PTR [rdx+0x61],dh
    7b22:	6e                   	outs   dx,BYTE PTR ds:[rsi]
    7b23:	67 65 20 73 74       	and    BYTE PTR gs:[ebx+0x74],dh
    7b28:	61                   	(bad)
    7b29:	72 74                	jb     0x7b9f
    7b2b:	20 69 6e             	and    BYTE PTR [rcx+0x6e],ch
    7b2e:	64 65 78 20          	fs gs js 0x7b52
    7b32:	20 6f 75             	and    BYTE PTR [rdi+0x75],ch
    7b35:	74 20                	je     0x7b57
    7b37:	6f                   	outs   dx,DWORD PTR ds:[rsi]
    7b38:	66 20 72 61          	data16 and BYTE PTR [rdx+0x61],dh
    7b3c:	6e                   	outs   dx,BYTE PTR ds:[rsi]
    7b3d:	67 65 20 66 6f       	and    BYTE PTR gs:[esi+0x6f],ah
    7b42:	72 20                	jb     0x7b64
    7b44:	73 6c                	jae    0x7bb2
    7b46:	69 63 65 20 6f 66 20 	imul   esp,DWORD PTR [rbx+0x65],0x20666f20
    7b4d:	6c                   	ins    BYTE PTR es:[rdi],dx
    7b4e:	65 6e                	outs   dx,BYTE PTR gs:[rsi]
    7b50:	67 74 68             	addr32 je 0x7bbb
    7b53:	20 00                	and    BYTE PTR [rax],al
    7b55:	00 00                	add    BYTE PTR [rax],al
    7b57:	00 20                	add    BYTE PTR [rax],ah
    7b59:	7b 00                	jnp    0x7b5b
    7b5b:	00 00                	add    BYTE PTR [rax],al
    7b5d:	00 00                	add    BYTE PTR [rax],al
    7b5f:	00 12                	add    BYTE PTR [rdx],dl
    7b61:	00 00                	add    BYTE PTR [rax],al
    7b63:	00 00                	add    BYTE PTR [rax],al
    7b65:	00 00                	add    BYTE PTR [rax],al
    7b67:	00 32                	add    BYTE PTR [rdx],dh
    7b69:	7b 00                	jnp    0x7b6b
    7b6b:	00 00                	add    BYTE PTR [rax],al
    7b6d:	00 00                	add    BYTE PTR [rax],al
    7b6f:	00 22                	add    BYTE PTR [rdx],ah
    7b71:	00 00                	add    BYTE PTR [rax],al
    7b73:	00 00                	add    BYTE PTR [rax],al
    7b75:	00 00                	add    BYTE PTR [rax],al
    7b77:	00 88 75 00 00 00    	add    BYTE PTR [rax+0x75],cl
    7b7d:	00 00                	add    BYTE PTR [rax],al
    7b7f:	00 10                	add    BYTE PTR [rax],dl
    7b81:	00 00                	add    BYTE PTR [rax],al
    7b83:	00 00                	add    BYTE PTR [rax],al
    7b85:	00 00                	add    BYTE PTR [rax],al
    7b87:	00 32                	add    BYTE PTR [rdx],dh
    7b89:	7b 00                	jnp    0x7b8b
    7b8b:	00 00                	add    BYTE PTR [rax],al
    7b8d:	00 00                	add    BYTE PTR [rax],al
    7b8f:	00 22                	add    BYTE PTR [rdx],ah
    7b91:	00 00                	add    BYTE PTR [rax],al
    7b93:	00 00                	add    BYTE PTR [rax],al
    7b95:	00 00                	add    BYTE PTR [rax],al
    7b97:	00 73 6c             	add    BYTE PTR [rbx+0x6c],dh
    7b9a:	69 63 65 20 69 6e 64 	imul   esp,DWORD PTR [rbx+0x65],0x646e6920
    7ba1:	65 78 20             	gs js  0x7bc4
    7ba4:	73 74                	jae    0x7c1a
    7ba6:	61                   	(bad)
    7ba7:	72 74                	jb     0x7c1d
    7ba9:	73 20                	jae    0x7bcb
    7bab:	61                   	(bad)
    7bac:	74 20                	je     0x7bce
    7bae:	20 62 75             	and    BYTE PTR [rdx+0x75],ah
    7bb1:	74 20                	je     0x7bd3
    7bb3:	65 6e                	outs   dx,BYTE PTR gs:[rsi]
    7bb5:	64 73 20             	fs jae 0x7bd8
    7bb8:	61                   	(bad)
    7bb9:	74 20                	je     0x7bdb
    7bbb:	00 00                	add    BYTE PTR [rax],al
    7bbd:	00 00                	add    BYTE PTR [rax],al
    7bbf:	00 98 7b 00 00 00    	add    BYTE PTR [rax+0x7b],bl
    7bc5:	00 00                	add    BYTE PTR [rax],al
    7bc7:	00 16                	add    BYTE PTR [rsi],dl
    7bc9:	00 00                	add    BYTE PTR [rax],al
    7bcb:	00 00                	add    BYTE PTR [rax],al
    7bcd:	00 00                	add    BYTE PTR [rax],al
    7bcf:	00 ae 7b 00 00 00    	add    BYTE PTR [rsi+0x7b],ch
    7bd5:	00 00                	add    BYTE PTR [rax],al
    7bd7:	00 0d 00 00 00 00    	add    BYTE PTR [rip+0x0],cl        # 0x7bdd
    7bdd:	00 00                	add    BYTE PTR [rax],al
    7bdf:	00 5b 2e             	add    BYTE PTR [rbx+0x2e],bl
    7be2:	2e 2e 5d             	cs cs pop rbp
    7be5:	62 65 67 69 6e       	(bad)
    7bea:	20 3c 3d 20 65 6e 64 	and    BYTE PTR [rdi*1+0x646e6520],bh
    7bf1:	20 28                	and    BYTE PTR [rax],ch
    7bf3:	60                   	(bad)
    7bf4:	00 00                	add    BYTE PTR [rax],al
    7bf6:	00 00                	add    BYTE PTR [rax],al
    7bf8:	e5 7b                	in     eax,0x7b
    7bfa:	00 00                	add    BYTE PTR [rax],al
    7bfc:	00 00                	add    BYTE PTR [rax],al
    7bfe:	00 00                	add    BYTE PTR [rax],al
    7c00:	0e                   	(bad)
    7c01:	00 00                	add    BYTE PTR [rax],al
    7c03:	00 00                	add    BYTE PTR [rax],al
    7c05:	00 00                	add    BYTE PTR [rax],al
    7c07:	00 a1 73 00 00 00    	add    BYTE PTR [rcx+0x73],ah
    7c0d:	00 00                	add    BYTE PTR [rax],al
    7c0f:	00 04 00             	add    BYTE PTR [rax+rax*1],al
    7c12:	00 00                	add    BYTE PTR [rax],al
    7c14:	00 00                	add    BYTE PTR [rax],al
    7c16:	00 00                	add    BYTE PTR [rax],al
    7c18:	78 75                	js     0x7c8f
    7c1a:	00 00                	add    BYTE PTR [rax],al
    7c1c:	00 00                	add    BYTE PTR [rax],al
    7c1e:	00 00                	add    BYTE PTR [rax],al
    7c20:	10 00                	adc    BYTE PTR [rax],al
    7c22:	00 00                	add    BYTE PTR [rax],al
    7c24:	00 00                	add    BYTE PTR [rax],al
    7c26:	00 00                	add    BYTE PTR [rax],al
    7c28:	f3 7b 00             	repz jnp 0x7c2b
    7c2b:	00 00                	add    BYTE PTR [rax],al
    7c2d:	00 00                	add    BYTE PTR [rax],al
    7c2f:	00 01                	add    BYTE PTR [rcx],al
    7c31:	00 00                	add    BYTE PTR [rax],al
    7c33:	00 00                	add    BYTE PTR [rax],al
    7c35:	00 00                	add    BYTE PTR [rax],al
    7c37:	00 62 79             	add    BYTE PTR [rdx+0x79],ah
    7c3a:	74 65                	je     0x7ca1
    7c3c:	20 69 6e             	and    BYTE PTR [rcx+0x6e],ch
    7c3f:	64 65 78 20          	fs gs js 0x7c63
    7c43:	20 69 73             	and    BYTE PTR [rcx+0x73],ch
    7c46:	20 6e 6f             	and    BYTE PTR [rsi+0x6f],ch
    7c49:	74 20                	je     0x7c6b
    7c4b:	61                   	(bad)
    7c4c:	20 63 68             	and    BYTE PTR [rbx+0x68],ah
    7c4f:	61                   	(bad)
    7c50:	72 20                	jb     0x7c72
    7c52:	62                   	(bad)
    7c53:	6f                   	outs   dx,DWORD PTR ds:[rsi]
    7c54:	75 6e                	jne    0x7cc4
    7c56:	64 61                	fs (bad)
    7c58:	72 79                	jb     0x7cd3
    7c5a:	3b 20                	cmp    esp,DWORD PTR [rax]
    7c5c:	69 74 20 69 73 20 69 	imul   esi,DWORD PTR [rax+riz*1+0x69],0x6e692073
    7c63:	6e 
    7c64:	73 69                	jae    0x7ccf
    7c66:	64 65 20 29          	fs and BYTE PTR gs:[rcx],ch
    7c6a:	20 6f 66             	and    BYTE PTR [rdi+0x66],ch
    7c6d:	20 60 00             	and    BYTE PTR [rax+0x0],ah
    7c70:	38 7c 00 00          	cmp    BYTE PTR [rax+rax*1+0x0],bh
    7c74:	00 00                	add    BYTE PTR [rax],al
    7c76:	00 00                	add    BYTE PTR [rax],al
    7c78:	0b 00                	or     eax,DWORD PTR [rax]
    7c7a:	00 00                	add    BYTE PTR [rax],al
    7c7c:	00 00                	add    BYTE PTR [rax],al
    7c7e:	00 00                	add    BYTE PTR [rax],al
    7c80:	43 7c 00             	rex.XB jl 0x7c83
    7c83:	00 00                	add    BYTE PTR [rax],al
    7c85:	00 00                	add    BYTE PTR [rax],al
    7c87:	00 26                	add    BYTE PTR [rsi],ah
    7c89:	00 00                	add    BYTE PTR [rax],al
    7c8b:	00 00                	add    BYTE PTR [rax],al
    7c8d:	00 00                	add    BYTE PTR [rax],al
    7c8f:	00 d8                	add    al,bl
    7c91:	73 00                	jae    0x7c93
    7c93:	00 00                	add    BYTE PTR [rax],al
    7c95:	00 00                	add    BYTE PTR [rax],al
    7c97:	00 08                	add    BYTE PTR [rax],cl
    7c99:	00 00                	add    BYTE PTR [rax],al
    7c9b:	00 00                	add    BYTE PTR [rax],al
    7c9d:	00 00                	add    BYTE PTR [rax],al
    7c9f:	00 69 7c             	add    BYTE PTR [rcx+0x7c],ch
    7ca2:	00 00                	add    BYTE PTR [rax],al
    7ca4:	00 00                	add    BYTE PTR [rax],al
    7ca6:	00 00                	add    BYTE PTR [rax],al
    7ca8:	06                   	(bad)
    7ca9:	00 00                	add    BYTE PTR [rax],al
    7cab:	00 00                	add    BYTE PTR [rax],al
    7cad:	00 00                	add    BYTE PTR [rax],al
    7caf:	00 f3                	add    bl,dh
    7cb1:	7b 00                	jnp    0x7cb3
    7cb3:	00 00                	add    BYTE PTR [rax],al
    7cb5:	00 00                	add    BYTE PTR [rax],al
    7cb7:	00 01                	add    BYTE PTR [rcx],al
    7cb9:	00 00                	add    BYTE PTR [rax],al
    7cbb:	00 00                	add    BYTE PTR [rax],al
    7cbd:	00 00                	add    BYTE PTR [rax],al
    7cbf:	00 20                	add    BYTE PTR [rax],ah
    7cc1:	69 73 20 6f 75 74 20 	imul   esi,DWORD PTR [rbx+0x20],0x2074756f
    7cc8:	6f                   	outs   dx,DWORD PTR ds:[rsi]
    7cc9:	66 20 62 6f          	data16 and BYTE PTR [rdx+0x6f],ah
    7ccd:	75 6e                	jne    0x7d3d
    7ccf:	64 73 20             	fs jae 0x7cf2
    7cd2:	6f                   	outs   dx,DWORD PTR ds:[rsi]
    7cd3:	66 20 60 00          	data16 and BYTE PTR [rax+0x0],ah
    7cd7:	00 38                	add    BYTE PTR [rax],bh
    7cd9:	7c 00                	jl     0x7cdb
    7cdb:	00 00                	add    BYTE PTR [rax],al
    7cdd:	00 00                	add    BYTE PTR [rax],al
    7cdf:	00 0b                	add    BYTE PTR [rbx],cl
    7ce1:	00 00                	add    BYTE PTR [rax],al
    7ce3:	00 00                	add    BYTE PTR [rax],al
    7ce5:	00 00                	add    BYTE PTR [rax],al
    7ce7:	00 c0                	add    al,al
    7ce9:	7c 00                	jl     0x7ceb
    7ceb:	00 00                	add    BYTE PTR [rax],al
    7ced:	00 00                	add    BYTE PTR [rax],al
    7cef:	00 16                	add    BYTE PTR [rsi],dl
    7cf1:	00 00                	add    BYTE PTR [rax],al
    7cf3:	00 00                	add    BYTE PTR [rax],al
    7cf5:	00 00                	add    BYTE PTR [rax],al
    7cf7:	00 f3                	add    bl,dh
    7cf9:	7b 00                	jnp    0x7cfb
    7cfb:	00 00                	add    BYTE PTR [rax],al
    7cfd:	00 00                	add    BYTE PTR [rax],al
    7cff:	00 01                	add    BYTE PTR [rcx],al
    7d01:	00 00                	add    BYTE PTR [rax],al
    7d03:	00 00                	add    BYTE PTR [rax],al
    7d05:	00 00                	add    BYTE PTR [rax],al
    7d07:	00 2f                	add    BYTE PTR [rdi],ch
    7d09:	68 6f 6d 65 2f       	push   0x2f656d6f
    7d0e:	65 63 32             	movsxd esi,DWORD PTR gs:[rdx]
    7d11:	2d 75 73 65 72       	sub    eax,0x72657375
    7d16:	2f                   	(bad)
    7d17:	2e 72 75             	cs jb  0x7d8f
    7d1a:	73 74                	jae    0x7d90
    7d1c:	75 70                	jne    0x7d8e
    7d1e:	2f                   	(bad)
    7d1f:	74 6f                	je     0x7d90
    7d21:	6f                   	outs   dx,DWORD PTR ds:[rsi]
    7d22:	6c                   	ins    BYTE PTR es:[rdi],dx
    7d23:	63 68 61             	movsxd ebp,DWORD PTR [rax+0x61]
    7d26:	69 6e 73 2f 6e 69 67 	imul   ebp,DWORD PTR [rsi+0x73],0x67696e2f
    7d2d:	68 74 6c 79 2d       	push   0x2d796c74
    7d32:	78 38                	js     0x7d6c
    7d34:	36 5f                	ss pop rdi
    7d36:	36 34 2d             	ss xor al,0x2d
    7d39:	75 6e                	jne    0x7da9
    7d3b:	6b 6e 6f 77          	imul   ebp,DWORD PTR [rsi+0x6f],0x77
    7d3f:	6e                   	outs   dx,BYTE PTR ds:[rsi]
    7d40:	2d 6c 69 6e 75       	sub    eax,0x756e696c
    7d45:	78 2d                	js     0x7d74
    7d47:	67 6e                	outs   dx,BYTE PTR ds:[esi]
    7d49:	75 2f                	jne    0x7d7a
    7d4b:	6c                   	ins    BYTE PTR es:[rdi],dx
    7d4c:	69 62 2f 72 75 73 74 	imul   esp,DWORD PTR [rdx+0x2f],0x74737572
    7d53:	6c                   	ins    BYTE PTR es:[rdi],dx
    7d54:	69 62 2f 73 72 63 2f 	imul   esp,DWORD PTR [rdx+0x2f],0x2f637273
    7d5b:	72 75                	jb     0x7dd2
    7d5d:	73 74                	jae    0x7dd3
    7d5f:	2f                   	(bad)
    7d60:	6c                   	ins    BYTE PTR es:[rdi],dx
    7d61:	69 62 72 61 72 79 2f 	imul   esp,DWORD PTR [rdx+0x72],0x2f797261
    7d68:	63 6f 72             	movsxd ebp,DWORD PTR [rdi+0x72]
    7d6b:	65 2f                	gs (bad)
    7d6d:	73 72                	jae    0x7de1
    7d6f:	63 2f                	movsxd ebp,DWORD PTR [rdi]
    7d71:	73 74                	jae    0x7de7
    7d73:	72 2f                	jb     0x7da4
    7d75:	6d                   	ins    DWORD PTR es:[rdi],dx
    7d76:	6f                   	outs   dx,DWORD PTR ds:[rsi]
    7d77:	64 2e 72 73          	fs cs jb 0x7dee
    7d7b:	00 00                	add    BYTE PTR [rax],al
    7d7d:	00 00                	add    BYTE PTR [rax],al
    7d7f:	00 08                	add    BYTE PTR [rax],cl
    7d81:	7d 00                	jge    0x7d83
    7d83:	00 00                	add    BYTE PTR [rax],al
    7d85:	00 00                	add    BYTE PTR [rax],al
    7d87:	00 73 00             	add    BYTE PTR [rbx+0x0],dh
    7d8a:	00 00                	add    BYTE PTR [rax],al
    7d8c:	00 00                	add    BYTE PTR [rax],al
    7d8e:	00 00                	add    BYTE PTR [rax],al
    7d90:	09 01                	or     DWORD PTR [rcx],eax
    7d92:	00 00                	add    BYTE PTR [rax],al
    7d94:	2c 00                	sub    al,0x0
    7d96:	00 00                	add    BYTE PTR [rax],al
    7d98:	2f                   	(bad)
    7d99:	68 6f 6d 65 2f       	push   0x2f656d6f
    7d9e:	65 63 32             	movsxd esi,DWORD PTR gs:[rdx]
    7da1:	2d 75 73 65 72       	sub    eax,0x72657375
    7da6:	2f                   	(bad)
    7da7:	2e 72 75             	cs jb  0x7e1f
    7daa:	73 74                	jae    0x7e20
    7dac:	75 70                	jne    0x7e1e
    7dae:	2f                   	(bad)
    7daf:	74 6f                	je     0x7e20
    7db1:	6f                   	outs   dx,DWORD PTR ds:[rsi]
    7db2:	6c                   	ins    BYTE PTR es:[rdi],dx
    7db3:	63 68 61             	movsxd ebp,DWORD PTR [rax+0x61]
    7db6:	69 6e 73 2f 6e 69 67 	imul   ebp,DWORD PTR [rsi+0x73],0x67696e2f
    7dbd:	68 74 6c 79 2d       	push   0x2d796c74
    7dc2:	78 38                	js     0x7dfc
    7dc4:	36 5f                	ss pop rdi
    7dc6:	36 34 2d             	ss xor al,0x2d
    7dc9:	75 6e                	jne    0x7e39
    7dcb:	6b 6e 6f 77          	imul   ebp,DWORD PTR [rsi+0x6f],0x77
    7dcf:	6e                   	outs   dx,BYTE PTR ds:[rsi]
    7dd0:	2d 6c 69 6e 75       	sub    eax,0x756e696c
    7dd5:	78 2d                	js     0x7e04
    7dd7:	67 6e                	outs   dx,BYTE PTR ds:[esi]
    7dd9:	75 2f                	jne    0x7e0a
    7ddb:	6c                   	ins    BYTE PTR es:[rdi],dx
    7ddc:	69 62 2f 72 75 73 74 	imul   esp,DWORD PTR [rdx+0x2f],0x74737572
    7de3:	6c                   	ins    BYTE PTR es:[rdi],dx
    7de4:	69 62 2f 73 72 63 2f 	imul   esp,DWORD PTR [rdx+0x2f],0x2f637273
    7deb:	72 75                	jb     0x7e62
    7ded:	73 74                	jae    0x7e63
    7def:	2f                   	(bad)
    7df0:	6c                   	ins    BYTE PTR es:[rdi],dx
    7df1:	69 62 72 61 72 79 2f 	imul   esp,DWORD PTR [rdx+0x72],0x2f797261
    7df8:	63 6f 72             	movsxd ebp,DWORD PTR [rdi+0x72]
    7dfb:	65 2f                	gs (bad)
    7dfd:	73 72                	jae    0x7e71
    7dff:	63 2f                	movsxd ebp,DWORD PTR [rdi]
    7e01:	75 6e                	jne    0x7e71
    7e03:	69 63 6f 64 65 2f 70 	imul   esp,DWORD PTR [rbx+0x6f],0x702f6564
    7e0a:	72 69                	jb     0x7e75
    7e0c:	6e                   	outs   dx,BYTE PTR ds:[rsi]
    7e0d:	74 61                	je     0x7e70
    7e0f:	62                   	(bad)
    7e10:	6c                   	ins    BYTE PTR es:[rdi],dx
    7e11:	65 2e 72 73          	gs cs jb 0x7e88
    7e15:	00 00                	add    BYTE PTR [rax],al
    7e17:	00 98 7d 00 00 00    	add    BYTE PTR [rax+0x7d],bl
    7e1d:	00 00                	add    BYTE PTR [rax],al
    7e1f:	00 7d 00             	add    BYTE PTR [rbp+0x0],bh
    7e22:	00 00                	add    BYTE PTR [rax],al
    7e24:	00 00                	add    BYTE PTR [rax],al
    7e26:	00 00                	add    BYTE PTR [rax],al
    7e28:	1a 00                	sbb    al,BYTE PTR [rax]
    7e2a:	00 00                	add    BYTE PTR [rax],al
    7e2c:	36 00 00             	ss add BYTE PTR [rax],al
    7e2f:	00 98 7d 00 00 00    	add    BYTE PTR [rax+0x7d],bl
    7e35:	00 00                	add    BYTE PTR [rax],al
    7e37:	00 7d 00             	add    BYTE PTR [rbp+0x0],bh
    7e3a:	00 00                	add    BYTE PTR [rax],al
    7e3c:	00 00                	add    BYTE PTR [rax],al
    7e3e:	00 00                	add    BYTE PTR [rax],al
    7e40:	0a 00                	or     al,BYTE PTR [rax]
    7e42:	00 00                	add    BYTE PTR [rax],al
    7e44:	2b 00                	sub    eax,DWORD PTR [rax]
    7e46:	00 00                	add    BYTE PTR [rax],al
    7e48:	00 06                	add    BYTE PTR [rsi],al
    7e4a:	01 01                	add    DWORD PTR [rcx],eax
    7e4c:	03 01                	add    eax,DWORD PTR [rcx]
    7e4e:	04 02                	add    al,0x2
    7e50:	05 07 07 02 08       	add    eax,0x8020707
    7e55:	08 09                	or     BYTE PTR [rcx],cl
    7e57:	02 0a                	add    cl,BYTE PTR [rdx]
    7e59:	05 0b 02 0e 04       	add    eax,0x40e020b
    7e5e:	10 01                	adc    BYTE PTR [rcx],al
    7e60:	11 02                	adc    DWORD PTR [rdx],eax
    7e62:	12 05 13 11 14 01    	adc    al,BYTE PTR [rip+0x1141113]        # 0x1148f7b
    7e68:	15 02 17 02 19       	adc    eax,0x19021702
    7e6d:	0d 1c 05 1d 08       	or     eax,0x81d051c
    7e72:	1f                   	(bad)
    7e73:	01 24 01             	add    DWORD PTR [rcx+rax*1],esp
    7e76:	6a 04                	push   0x4
    7e78:	6b 02 af             	imul   eax,DWORD PTR [rdx],0xffffffaf
    7e7b:	03 b1 02 bc 02 cf    	add    esi,DWORD PTR [rcx-0x30fd43fe]
    7e81:	02 d1                	add    dl,cl
    7e83:	02 d4                	add    dl,ah
    7e85:	0c d5                	or     al,0xd5
    7e87:	09 d6                	or     esi,edx
    7e89:	02 d7                	add    dl,bh
    7e8b:	02 da                	add    bl,dl
    7e8d:	01 e0                	add    eax,esp
    7e8f:	05 e1 02 e7 04       	add    eax,0x4e702e1
    7e94:	e8 02 ee 20 f0       	call   0xfffffffff0216c9b
    7e99:	04 f8                	add    al,0xf8
    7e9b:	02 fa                	add    bh,dl
    7e9d:	03 fb                	add    edi,ebx
    7e9f:	01 0c 27             	add    DWORD PTR [rdi+riz*1],ecx
    7ea2:	3b 3e                	cmp    edi,DWORD PTR [rsi]
    7ea4:	4e                   	rex.WRX
    7ea5:	4f 8f                	rex.WRXB (bad)
    7ea7:	9e                   	sahf
    7ea8:	9e                   	sahf
    7ea9:	9f                   	lahf
    7eaa:	7b 8b                	jnp    0x7e37
    7eac:	93                   	xchg   ebx,eax
    7ead:	96                   	xchg   esi,eax
    7eae:	a2 b2 ba 86 b1 06 07 	movabs ds:0x36090706b186bab2,al
    7eb5:	09 36 
    7eb7:	3d 3e 56 f3 d0       	cmp    eax,0xd0f3563e
    7ebc:	d1 04 14             	rol    DWORD PTR [rsp+rdx*1],1
    7ebf:	18 36                	sbb    BYTE PTR [rsi],dh
    7ec1:	37                   	(bad)
    7ec2:	56                   	push   rsi
    7ec3:	57                   	push   rdi
    7ec4:	7f aa                	jg     0x7e70
    7ec6:	ae                   	scas   al,BYTE PTR es:[rdi]
    7ec7:	af                   	scas   eax,DWORD PTR es:[rdi]
    7ec8:	bd 35 e0 12 87       	mov    ebp,0x8712e035
    7ecd:	89 8e 9e 04 0d 0e    	mov    DWORD PTR [rsi+0xe0d049e],ecx
    7ed3:	11 12                	adc    DWORD PTR [rdx],edx
    7ed5:	29 31                	sub    DWORD PTR [rcx],esi
    7ed7:	34 3a                	xor    al,0x3a
    7ed9:	45                   	rex.RB
    7eda:	46                   	rex.RX
    7edb:	49                   	rex.WB
    7edc:	4a                   	rex.WX
    7edd:	4e                   	rex.WRX
    7ede:	4f                   	rex.WRXB
    7edf:	64 65 5c             	fs gs pop rsp
    7ee2:	b6 b7                	mov    dh,0xb7
    7ee4:	1b 1c 07             	sbb    ebx,DWORD PTR [rdi+rax*1]
    7ee7:	08 0a                	or     BYTE PTR [rdx],cl
    7ee9:	0b 14 17             	or     edx,DWORD PTR [rdi+rdx*1]
    7eec:	36 39 3a             	ss cmp DWORD PTR [rdx],edi
    7eef:	a8 a9                	test   al,0xa9
    7ef1:	d8 d9                	fcomp  st(1)
    7ef3:	09 37                	or     DWORD PTR [rdi],esi
    7ef5:	90                   	nop
    7ef6:	91                   	xchg   ecx,eax
    7ef7:	a8 07                	test   al,0x7
    7ef9:	0a 3b                	or     bh,BYTE PTR [rbx]
    7efb:	3e 66 69 8f 92 11 6f 	ds imul cx,WORD PTR [rdi+0x5f6f1192],0xeebf
    7f02:	5f bf ee 
    7f05:	ef                   	out    dx,eax
    7f06:	5a                   	pop    rdx
    7f07:	62                   	(bad)
    7f08:	f4                   	hlt
    7f09:	fc                   	cld
    7f0a:	ff 53 54             	call   QWORD PTR [rbx+0x54]
    7f0d:	9a                   	(bad)
    7f0e:	9b                   	fwait
    7f0f:	2e 2f                	cs (bad)
    7f11:	27                   	(bad)
    7f12:	28 55 9d             	sub    BYTE PTR [rbp-0x63],dl
    7f15:	a0 a1 a3 a4 a7 a8 ad 	movabs al,ds:0xbcbaada8a7a4a3a1
    7f1c:	ba bc 
    7f1e:	c4                   	(bad)
    7f1f:	06                   	(bad)
    7f20:	0b 0c 15 1d 3a 3f 45 	or     ecx,DWORD PTR [rdx*1+0x453f3a1d]
    7f27:	51                   	push   rcx
    7f28:	a6                   	cmps   BYTE PTR ds:[rsi],BYTE PTR es:[rdi]
    7f29:	a7                   	cmps   DWORD PTR ds:[rsi],DWORD PTR es:[rdi]
    7f2a:	cc                   	int3
    7f2b:	cd a0                	int    0xa0
    7f2d:	07                   	(bad)
    7f2e:	19 1a                	sbb    DWORD PTR [rdx],ebx
    7f30:	22 25 3e 3f e7 ec    	and    ah,BYTE PTR [rip+0xffffffffece73f3e]        # 0xffffffffece7be74
    7f36:	ef                   	out    dx,eax
    7f37:	ff c5                	inc    ebp
    7f39:	c6 04 20 23          	mov    BYTE PTR [rax+riz*1],0x23
    7f3d:	25 26 28 33 38       	and    eax,0x38332826
    7f42:	3a 48 4a             	cmp    cl,BYTE PTR [rax+0x4a]
    7f45:	4c 50                	rex.WR push rax
    7f47:	53                   	push   rbx
    7f48:	55                   	push   rbp
    7f49:	56                   	push   rsi
    7f4a:	58                   	pop    rax
    7f4b:	5a                   	pop    rdx
    7f4c:	5c                   	pop    rsp
    7f4d:	5e                   	pop    rsi
    7f4e:	60                   	(bad)
    7f4f:	63 65 66             	movsxd esp,DWORD PTR [rbp+0x66]
    7f52:	6b 73 78 7d          	imul   esi,DWORD PTR [rbx+0x78],0x7d
    7f56:	7f 8a                	jg     0x7ee2
    7f58:	a4                   	movs   BYTE PTR es:[rdi],BYTE PTR ds:[rsi]
    7f59:	aa                   	stos   BYTE PTR es:[rdi],al
    7f5a:	af                   	scas   eax,DWORD PTR es:[rdi]
    7f5b:	b0 c0                	mov    al,0xc0
    7f5d:	d0 ae af 6e 6f be    	shr    BYTE PTR [rsi-0x41909151],1
    7f63:	93                   	xchg   ebx,eax
    7f64:	5e                   	pop    rsi
    7f65:	22 7b 05             	and    bh,BYTE PTR [rbx+0x5]
    7f68:	03 04 2d 03 66 03 01 	add    eax,DWORD PTR [rbp*1+0x1036603]
    7f6f:	2f                   	(bad)
    7f70:	2e 80 82 1d 03 31 0f 	cs add BYTE PTR [rdx+0xf31031d],0x1c
    7f77:	1c 
    7f78:	04 24                	add    al,0x24
    7f7a:	09 1e                	or     DWORD PTR [rsi],ebx
    7f7c:	05 2b 05 44 04       	add    eax,0x444052b
    7f81:	0e                   	(bad)
    7f82:	2a 80 aa 06 24 04    	sub    al,BYTE PTR [rax+0x42406aa]
    7f88:	24 04                	and    al,0x4
    7f8a:	28 08                	sub    BYTE PTR [rax],cl
    7f8c:	34 0b                	xor    al,0xb
    7f8e:	4e                   	rex.WRX
    7f8f:	43 81 37 09 16 0a 08 	rex.XB xor DWORD PTR [r15],0x80a1609
    7f96:	18 3b                	sbb    BYTE PTR [rbx],bh
    7f98:	45 39 03             	cmp    DWORD PTR [r11],r8d
    7f9b:	63 08                	movsxd ecx,DWORD PTR [rax]
    7f9d:	09 30                	or     DWORD PTR [rax],esi
    7f9f:	16                   	(bad)
    7fa0:	05 21 03 1b 05       	add    eax,0x51b0321
    7fa5:	01 40 38             	add    DWORD PTR [rax+0x38],eax
    7fa8:	04 4b                	add    al,0x4b
    7faa:	05 2f 04 0a 07       	add    eax,0x70a042f
    7faf:	09 07                	or     DWORD PTR [rdi],eax
    7fb1:	40 20 27             	and    BYTE PTR [rdi],spl
    7fb4:	04 0c                	add    al,0xc
    7fb6:	09 36                	or     DWORD PTR [rsi],esi
    7fb8:	03 3a                	add    edi,DWORD PTR [rdx]
    7fba:	05 1a 07 04 0c       	add    eax,0xc04071a
    7fbf:	07                   	(bad)
    7fc0:	50                   	push   rax
    7fc1:	49 37                	rex.WB (bad)
    7fc3:	33 0d 33 07 2e 08    	xor    ecx,DWORD PTR [rip+0x82e0733]        # 0x82e86fc
    7fc9:	0a 81 26 52 4b 2b    	or     al,BYTE PTR [rcx+0x2b4b5226]
    7fcf:	08 2a                	or     BYTE PTR [rdx],ch
    7fd1:	16                   	(bad)
    7fd2:	1a 26                	sbb    ah,BYTE PTR [rsi]
    7fd4:	1c 14                	sbb    al,0x14
    7fd6:	17                   	(bad)
    7fd7:	09 4e 04             	or     DWORD PTR [rsi+0x4],ecx
    7fda:	24 09                	and    al,0x9
    7fdc:	44 0d 19 07 0a 06    	rex.R or eax,0x60a0719
    7fe2:	48 08 27             	rex.W or BYTE PTR [rdi],spl
    7fe5:	09 75 0b             	or     DWORD PTR [rbp+0xb],esi
    7fe8:	42                   	rex.X
    7fe9:	3e 2a 06             	ds sub al,BYTE PTR [rsi]
    7fec:	3b 05 0a 06 51 06    	cmp    eax,DWORD PTR [rip+0x651060a]        # 0x65185fc
    7ff2:	01 05 10 03 05 80    	add    DWORD PTR [rip+0xffffffff80050310],eax        # 0xffffffff80058308
    7ff8:	8b 62 1e             	mov    esp,DWORD PTR [rdx+0x1e]
    7ffb:	48 08 0a             	rex.W or BYTE PTR [rdx],cl
    7ffe:	80 a6 5e 22 45 0b 0a 	and    BYTE PTR [rsi+0xb45225e],0xa
    8005:	06                   	(bad)
    8006:	0d 13 3a 06 0a       	or     eax,0xa063a13
    800b:	36 2c 04             	ss sub al,0x4
    800e:	17                   	(bad)
    800f:	80 b9 3c 64 53 0c 48 	cmp    BYTE PTR [rcx+0xc53643c],0x48
    8016:	09 0a                	or     DWORD PTR [rdx],ecx
    8018:	46                   	rex.RX
    8019:	45 1b 48 08          	sbb    r9d,DWORD PTR [r8+0x8]
    801d:	53                   	push   rbx
    801e:	0d 49 07 0a 80       	or     eax,0x800a0749
    8023:	f6 46 0a 1d          	test   BYTE PTR [rsi+0xa],0x1d
    8027:	03 47 49             	add    eax,DWORD PTR [rdi+0x49]
    802a:	37                   	(bad)
    802b:	03 0e                	add    ecx,DWORD PTR [rsi]
    802d:	08 0a                	or     BYTE PTR [rdx],cl
    802f:	06                   	(bad)
    8030:	39 07                	cmp    DWORD PTR [rdi],eax
    8032:	0a 81 36 19 07 3b    	or     al,BYTE PTR [rcx+0x3b071936]
    8038:	03 1c 56             	add    ebx,DWORD PTR [rsi+rdx*2]
    803b:	01 0f                	add    DWORD PTR [rdi],ecx
    803d:	32 0d 83 9b 66 75    	xor    cl,BYTE PTR [rip+0x75669b83]        # 0x75671bc6
    8043:	0b 80 c4 8a 4c 63    	or     eax,DWORD PTR [rax+0x634c8ac4]
    8049:	0d 84 30 10 16       	or     eax,0x16103084
    804e:	8f aa 82 47          	(bad)
    8052:	a1 b9 82 39 07 2a 04 	movabs eax,ds:0x65c042a073982b9
    8059:	5c 06 
    805b:	26 0a 46 0a          	es or  al,BYTE PTR [rsi+0xa]
    805f:	28 05 13 82 b0 5b    	sub    BYTE PTR [rip+0x5bb08213],al        # 0x5bb10278
    8065:	65 4b 04 39          	gs rex.WXB add al,0x39
    8069:	07                   	(bad)
    806a:	11 40 05             	adc    DWORD PTR [rax+0x5],eax
    806d:	0b 02                	or     eax,DWORD PTR [rdx]
    806f:	0e                   	(bad)
    8070:	97                   	xchg   edi,eax
    8071:	f8                   	clc
    8072:	08 84 d6 2a 09 a2 e7 	or     BYTE PTR [rsi+rdx*8-0x185df6d6],al
    8079:	81 33 0f 01 1d 06    	xor    DWORD PTR [rbx],0x61d010f
    807f:	0e                   	(bad)
    8080:	04 08                	add    al,0x8
    8082:	81 8c 89 04 6b 05 0d 	or     DWORD PTR [rcx+rcx*4+0xd056b04],0x10070903
    8089:	03 09 07 10 
    808d:	92                   	xchg   edx,eax
    808e:	60                   	(bad)
    808f:	47 09 74 3c 80       	or     DWORD PTR [r12+r15*1-0x80],r14d
    8094:	f6 0a 73             	test   BYTE PTR [rdx],0x73
    8097:	08 70 15             	or     BYTE PTR [rax+0x15],dh
    809a:	46 7a 14             	rex.RX jp 0x80b1
    809d:	0c 14                	or     al,0x14
    809f:	0c 57                	or     al,0x57
    80a1:	09 19                	or     DWORD PTR [rcx],ebx
    80a3:	80 87 81 47 03 85 42 	add    BYTE PTR [rdi-0x7afcb87f],0x42
    80aa:	0f 15 84 50 1f 06 06 	unpckhps xmm0,XMMWORD PTR [rax+rdx*2-0x7ff9f9e1]
    80b1:	80 
    80b2:	d5                   	(bad)
    80b3:	2b 05 3e 21 01 70    	sub    eax,DWORD PTR [rip+0x7001213e]        # 0x7001a1f7
    80b9:	2d 03 1a 04 02       	sub    eax,0x2041a03
    80be:	81 40 1f 11 3a 05 01 	add    DWORD PTR [rax+0x1f],0x1053a11
    80c5:	81 d0 2a 82 e6 80    	adc    eax,0x80e6822a
    80cb:	f7 29                	imul   DWORD PTR [rcx]
    80cd:	4c 04 0a             	rex.WR add al,0xa
    80d0:	04 02                	add    al,0x2
    80d2:	83 11 44             	adc    DWORD PTR [rcx],0x44
    80d5:	4c 3d 80 c2 3c 06    	rex.WR cmp rax,0x63cc280
    80db:	01 04 55 05 1b 34 02 	add    DWORD PTR [rdx*2+0x2341b05],eax
    80e2:	81 0e 2c 04 64 0c    	or     DWORD PTR [rsi],0xc64042c
    80e8:	56                   	push   rsi
    80e9:	0a 80 ae 38 1d 0d    	or     al,BYTE PTR [rax+0xd1d38ae]
    80ef:	2c 04                	sub    al,0x4
    80f1:	09 07                	or     DWORD PTR [rdi],eax
    80f3:	02 0e                	add    cl,BYTE PTR [rsi]
    80f5:	06                   	(bad)
    80f6:	80 9a 83 d8 04 11 03 	sbb    BYTE PTR [rdx+0x1104d883],0x3
    80fd:	0d 03 77 04 5f       	or     eax,0x5f047703
    8102:	06                   	(bad)
    8103:	0c 04                	or     al,0x4
    8105:	01 0f                	add    DWORD PTR [rdi],ecx
    8107:	0c 04                	or     al,0x4
    8109:	38 08                	cmp    BYTE PTR [rax],cl
    810b:	0a 06                	or     al,BYTE PTR [rsi]
    810d:	28 08                	sub    BYTE PTR [rax],cl
    810f:	22 4e 81             	and    cl,BYTE PTR [rsi-0x7f]
    8112:	54                   	push   rsp
    8113:	0c 1d                	or     al,0x1d
    8115:	03 09                	add    ecx,DWORD PTR [rcx]
    8117:	07                   	(bad)
    8118:	36 08 0e             	ss or  BYTE PTR [rsi],cl
    811b:	04 09                	add    al,0x9
    811d:	07                   	(bad)
    811e:	09 07                	or     DWORD PTR [rdi],eax
    8120:	80 cb 25             	or     bl,0x25
    8123:	0a 84 06 00 01 03 05 	or     al,BYTE PTR [rsi+rax*1+0x5030100]
    812a:	05 06 06 02 07       	add    eax,0x7020606
    812f:	06                   	(bad)
    8130:	08 07                	or     BYTE PTR [rdi],al
    8132:	09 11                	or     DWORD PTR [rcx],edx
    8134:	0a 1c 0b             	or     bl,BYTE PTR [rbx+rcx*1]
    8137:	19 0c 1a             	sbb    DWORD PTR [rdx+rbx*1],ecx
    813a:	0d 10 0e 0c 0f       	or     eax,0xf0c0e10
    813f:	04 10                	add    al,0x10
    8141:	03 12                	add    edx,DWORD PTR [rdx]
    8143:	12 13                	adc    dl,BYTE PTR [rbx]
    8145:	09 16                	or     DWORD PTR [rsi],edx
    8147:	01 17                	add    DWORD PTR [rdi],edx
    8149:	04 18                	add    al,0x18
    814b:	01 19                	add    DWORD PTR [rcx],ebx
    814d:	03 1a                	add    ebx,DWORD PTR [rdx]
    814f:	07                   	(bad)
    8150:	1b 01                	sbb    eax,DWORD PTR [rcx]
    8152:	1c 02                	sbb    al,0x2
    8154:	1f                   	(bad)
    8155:	16                   	(bad)
    8156:	20 03                	and    BYTE PTR [rbx],al
    8158:	2b 03                	sub    eax,DWORD PTR [rbx]
    815a:	2d 0b 2e 01 30       	sub    eax,0x30012e0b
    815f:	03 31                	add    esi,DWORD PTR [rcx]
    8161:	02 32                	add    dh,BYTE PTR [rdx]
    8163:	01 a7 02 a9 02 aa    	add    DWORD PTR [rdi-0x55fd56fe],esp
    8169:	04 ab                	add    al,0xab
    816b:	08 fa                	or     dl,bh
    816d:	02 fb                	add    bh,bl
    816f:	05 fd 02 fe 03       	add    eax,0x3fe02fd
    8174:	ff 09                	dec    DWORD PTR [rcx]
    8176:	ad                   	lods   eax,DWORD PTR ds:[rsi]
    8177:	78 79                	js     0x81f2
    8179:	8b 8d a2 30 57 58    	mov    ecx,DWORD PTR [rbp+0x585730a2]
    817f:	8b 8c 90 1c dd 0e 0f 	mov    ecx,DWORD PTR [rax+rdx*4+0xf0edd1c]
    8186:	4b                   	rex.WXB
    8187:	4c fb                	rex.WR sti
    8189:	fc                   	cld
    818a:	2e 2f                	cs (bad)
    818c:	3f                   	(bad)
    818d:	5c                   	pop    rsp
    818e:	5d                   	pop    rbp
    818f:	5f                   	pop    rdi
    8190:	e2 84                	loop   0x8116
    8192:	8d 8e 91 92 a9 b1    	lea    ecx,[rsi-0x4e566d6f]
    8198:	ba bb c5 c6 c9       	mov    edx,0xc9c6c5bb
    819d:	ca de e4             	retf   0xe4de
    81a0:	e5 ff                	in     eax,0xff
    81a2:	00 04 11             	add    BYTE PTR [rcx+rdx*1],al
    81a5:	12 29                	adc    ch,BYTE PTR [rcx]
    81a7:	31 34 37             	xor    DWORD PTR [rdi+rsi*1],esi
    81aa:	3a 3b                	cmp    bh,BYTE PTR [rbx]
    81ac:	3d 49 4a 5d 84       	cmp    eax,0x845d4a49
    81b1:	8e 92 a9 b1 b4 ba    	mov    ss,WORD PTR [rdx-0x454b4e57]
    81b7:	bb c6 ca ce cf       	mov    ebx,0xcfcecac6
    81bc:	e4 e5                	in     al,0xe5
    81be:	00 04 0d 0e 11 12 29 	add    BYTE PTR [rcx*1+0x2912110e],al
    81c5:	31 34 3a             	xor    DWORD PTR [rdx+rdi*1],esi
    81c8:	3b 45 46             	cmp    eax,DWORD PTR [rbp+0x46]
    81cb:	49                   	rex.WB
    81cc:	4a 5e                	rex.WX pop rsi
    81ce:	64 65 84 91 9b 9d c9 	fs test BYTE PTR gs:[rcx-0x31366265],dl
    81d5:	ce 
    81d6:	cf                   	iret
    81d7:	0d 11 29 3a 3b       	or     eax,0x3b3a2911
    81dc:	45                   	rex.RB
    81dd:	49 57                	rex.WB push r15
    81df:	5b                   	pop    rbx
    81e0:	5c                   	pop    rsp
    81e1:	5e                   	pop    rsi
    81e2:	5f                   	pop    rdi
    81e3:	64 65 8d 91 a9 b4 ba 	fs lea edx,gs:[rcx-0x44454b57]
    81ea:	bb 
    81eb:	c5 c9 df e4          	vpandn xmm4,xmm6,xmm4
    81ef:	e5 f0                	in     eax,0xf0
    81f1:	0d 11 45 49 64       	or     eax,0x64494511
    81f6:	65 80 84 b2 bc be bf 	add    BYTE PTR gs:[rdx+rsi*4-0x2a404144],0xd7
    81fd:	d5 d7 
    81ff:	f0 f1                	lock int1
    8201:	83 85 8b a4 a6 be bf 	add    DWORD PTR [rbp-0x41595b75],0xffffffbf
    8208:	c5 c7 cf             	(bad)
    820b:	da db                	fcmovu st,st(3)
    820d:	48 98                	cdqe
    820f:	bd cd c6 ce cf       	mov    ebp,0xcfcec6cd
    8214:	49                   	rex.WB
    8215:	4e                   	rex.WRX
    8216:	4f 57                	rex.WRXB push r15
    8218:	59                   	pop    rcx
    8219:	5e                   	pop    rsi
    821a:	5f                   	pop    rdi
    821b:	89 8e 8f b1 b6 b7    	mov    DWORD PTR [rsi-0x48494e71],ecx
    8221:	bf c1 c6 c7 d7       	mov    edi,0xd7c7c6c1
    8226:	11 16                	adc    DWORD PTR [rsi],edx
    8228:	17                   	(bad)
    8229:	5b                   	pop    rbx
    822a:	5c                   	pop    rsp
    822b:	f6 f7                	div    bh
    822d:	fe                   	(bad)
    822e:	ff 80 6d 71 de df    	inc    DWORD PTR [rax-0x20218e93]
    8234:	0e                   	(bad)
    8235:	1f                   	(bad)
    8236:	6e                   	outs   dx,BYTE PTR ds:[rsi]
    8237:	6f                   	outs   dx,DWORD PTR ds:[rsi]
    8238:	1c 1d                	sbb    al,0x1d
    823a:	5f                   	pop    rdi
    823b:	7d 7e                	jge    0x82bb
    823d:	ae                   	scas   al,BYTE PTR es:[rdi]
    823e:	af                   	scas   eax,DWORD PTR es:[rdi]
    823f:	7f bb                	jg     0x81fc
    8241:	bc 16 17 1e 1f       	mov    esp,0x1f1e1716
    8246:	46                   	rex.RX
    8247:	47                   	rex.RXB
    8248:	4e                   	rex.WRX
    8249:	4f 58                	rex.WRXB pop r8
    824b:	5a                   	pop    rdx
    824c:	5c                   	pop    rsp
    824d:	5e                   	pop    rsi
    824e:	7e 7f                	jle    0x82cf
    8250:	b5 c5                	mov    ch,0xc5
    8252:	d4                   	(bad)
    8253:	d5                   	(bad)
    8254:	dc f0                	fdivr  st(0),st
    8256:	f1                   	int1
    8257:	f5                   	cmc
    8258:	72 73                	jb     0x82cd
    825a:	8f                   	(bad)
    825b:	74 75                	je     0x82d2
    825d:	96                   	xchg   esi,eax
    825e:	26 2e 2f             	es cs (bad)
    8261:	a7                   	cmps   DWORD PTR ds:[rsi],DWORD PTR es:[rdi]
    8262:	af                   	scas   eax,DWORD PTR es:[rdi]
    8263:	b7 bf                	mov    bh,0xbf
    8265:	c7                   	(bad)
    8266:	cf                   	iret
    8267:	d7                   	xlat   BYTE PTR ds:[rbx]
    8268:	df 9a 40 97 98 30    	fistp  WORD PTR [rdx+0x30989740]
    826e:	8f                   	(bad)
    826f:	1f                   	(bad)
    8270:	d2 d4                	rcl    ah,cl
    8272:	ce                   	(bad)
    8273:	ff 4e 4f             	dec    DWORD PTR [rsi+0x4f]
    8276:	5a                   	pop    rdx
    8277:	5b                   	pop    rbx
    8278:	07                   	(bad)
    8279:	08 0f                	or     BYTE PTR [rdi],cl
    827b:	10 27                	adc    BYTE PTR [rdi],ah
    827d:	2f                   	(bad)
    827e:	ee                   	out    dx,al
    827f:	ef                   	out    dx,eax
    8280:	6e                   	outs   dx,BYTE PTR ds:[rsi]
    8281:	6f                   	outs   dx,DWORD PTR ds:[rsi]
    8282:	37                   	(bad)
    8283:	3d 3f 42 45 90       	cmp    eax,0x9045423f
    8288:	91                   	xchg   ecx,eax
    8289:	53                   	push   rbx
    828a:	67 75 c8             	addr32 jne 0x8255
    828d:	c9                   	leave
    828e:	d0 d1                	rcl    cl,1
    8290:	d8 d9                	fcomp  st(1)
    8292:	e7 fe                	out    0xfe,eax
    8294:	ff 00                	inc    DWORD PTR [rax]
    8296:	20 5f 22             	and    BYTE PTR [rdi+0x22],bl
    8299:	82                   	(bad)
    829a:	df 04 82             	fild   WORD PTR [rdx+rax*4]
    829d:	44 08 1b             	or     BYTE PTR [rbx],r11b
    82a0:	04 06                	add    al,0x6
    82a2:	11 81 ac 0e 80 ab    	adc    DWORD PTR [rcx-0x547ff154],eax
    82a8:	05 1f 09 81 1b       	add    eax,0x1b81091f
    82ad:	03 19                	add    ebx,DWORD PTR [rcx]
    82af:	08 01                	or     BYTE PTR [rcx],al
    82b1:	04 2f                	add    al,0x2f
    82b3:	04 34                	add    al,0x34
    82b5:	04 07                	add    al,0x7
    82b7:	03 01                	add    eax,DWORD PTR [rcx]
    82b9:	07                   	(bad)
    82ba:	06                   	(bad)
    82bb:	07                   	(bad)
    82bc:	11 0a                	adc    DWORD PTR [rdx],ecx
    82be:	50                   	push   rax
    82bf:	0f 12 07             	movlps xmm0,QWORD PTR [rdi]
    82c2:	55                   	push   rbp
    82c3:	07                   	(bad)
    82c4:	03 04 1c             	add    eax,DWORD PTR [rsp+rbx*1]
    82c7:	0a 09                	or     cl,BYTE PTR [rcx]
    82c9:	03 08                	add    ecx,DWORD PTR [rax]
    82cb:	03 07                	add    eax,DWORD PTR [rdi]
    82cd:	03 02                	add    eax,DWORD PTR [rdx]
    82cf:	03 03                	add    eax,DWORD PTR [rbx]
    82d1:	03 0c 04             	add    ecx,DWORD PTR [rsp+rax*1]
    82d4:	05 03 0b 06 01       	add    eax,0x1060b03
    82d9:	0e                   	(bad)
    82da:	15 05 4e 07 1b       	adc    eax,0x1b074e05
    82df:	07                   	(bad)
    82e0:	57                   	push   rdi
    82e1:	07                   	(bad)
    82e2:	02 06                	add    al,BYTE PTR [rsi]
    82e4:	17                   	(bad)
    82e5:	0c 50                	or     al,0x50
    82e7:	04 43                	add    al,0x43
    82e9:	03 2d 03 01 04 11    	add    ebp,DWORD PTR [rip+0x11040103]        # 0x110483f2
    82ef:	06                   	(bad)
    82f0:	0f 0c                	(bad)
    82f2:	3a 04 1d 25 5f 20 6d 	cmp    al,BYTE PTR [rbx*1+0x6d205f25]
    82f9:	04 6a                	add    al,0x6a
    82fb:	25 80 c8 05 82       	and    eax,0x8205c880
    8300:	b0 03                	mov    al,0x3
    8302:	1a 06                	sbb    al,BYTE PTR [rsi]
    8304:	82                   	(bad)
    8305:	fd                   	std
    8306:	03 59 07             	add    ebx,DWORD PTR [rcx+0x7]
    8309:	16                   	(bad)
    830a:	09 18                	or     DWORD PTR [rax],ebx
    830c:	09 14 0c             	or     DWORD PTR [rsp+rcx*1],edx
    830f:	14 0c                	adc    al,0xc
    8311:	6a 06                	push   0x6
    8313:	0a 06                	or     al,BYTE PTR [rsi]
    8315:	1a 06                	sbb    al,BYTE PTR [rsi]
    8317:	59                   	pop    rcx
    8318:	07                   	(bad)
    8319:	2b 05 46 0a 2c 04    	sub    eax,DWORD PTR [rip+0x42c0a46]        # 0x42c8d65
    831f:	0c 04                	or     al,0x4
    8321:	01 03                	add    DWORD PTR [rbx],eax
    8323:	31 0b                	xor    DWORD PTR [rbx],ecx
    8325:	2c 04                	sub    al,0x4
    8327:	1a 06                	sbb    al,BYTE PTR [rsi]
    8329:	0b 03                	or     eax,DWORD PTR [rbx]
    832b:	80 ac 06 0a 06 2f 31 	sub    BYTE PTR [rsi+rax*1+0x312f060a],0x4d
    8332:	4d 
    8333:	03 80 a4 08 3c 03    	add    eax,DWORD PTR [rax+0x33c08a4]
    8339:	0f 03 3c 07          	lsl    edi,WORD PTR [rdi+rax*1]
    833d:	38 08                	cmp    BYTE PTR [rax],cl
    833f:	2b 05 82 ff 11 18    	sub    eax,DWORD PTR [rip+0x1811ff82]        # 0x181282c7
    8345:	08 2f                	or     BYTE PTR [rdi],ch
    8347:	11 2d 03 21 0f 21    	adc    DWORD PTR [rip+0x210f2103],ebp        # 0x210fa450
    834d:	0f 80 8c 04 82 97    	jo     0xffffffff978287df
    8353:	19 0b                	sbb    DWORD PTR [rbx],ecx
    8355:	15 88 94 05 2f       	adc    eax,0x2f059488
    835a:	05 3b 07 02 0e       	add    eax,0xe02073b
    835f:	18 09                	sbb    BYTE PTR [rcx],cl
    8361:	80 be 22 74 0c 80 d6 	cmp    BYTE PTR [rsi-0x7ff38bde],0xd6
    8368:	1a 0c 05 80 ff 05 80 	sbb    cl,BYTE PTR [rax*1-0x7ffa0080]
    836f:	df 0c f2             	fisttp WORD PTR [rdx+rsi*8]
    8372:	9d                   	popf
    8373:	03 37                	add    esi,DWORD PTR [rdi]
    8375:	09 81 5c 14 80 b8    	or     DWORD PTR [rcx-0x477feba4],eax
    837b:	08 80 cb 05 0a 18    	or     BYTE PTR [rax+0x180a05cb],al
    8381:	3b 03                	cmp    eax,DWORD PTR [rbx]
    8383:	0a 06                	or     al,BYTE PTR [rsi]
    8385:	38 08                	cmp    BYTE PTR [rax],cl
    8387:	46 08 0c 06          	or     BYTE PTR [rsi+r8*1],r9b
    838b:	74 0b                	je     0x8398
    838d:	1e                   	(bad)
    838e:	03 5a 04             	add    ebx,DWORD PTR [rdx+0x4]
    8391:	59                   	pop    rcx
    8392:	09 80 83 18 1c 0a    	or     DWORD PTR [rax+0xa1c1883],eax
    8398:	16                   	(bad)
    8399:	09 4c 04 80          	or     DWORD PTR [rsp+rax*1-0x80],ecx
    839d:	8a 06                	mov    al,BYTE PTR [rsi]
    839f:	ab                   	stos   DWORD PTR es:[rdi],eax
    83a0:	a4                   	movs   BYTE PTR es:[rdi],BYTE PTR ds:[rsi]
    83a1:	0c 17                	or     al,0x17
    83a3:	04 31                	add    al,0x31
    83a5:	a1 04 81 da 26 07 0c 	movabs eax,ds:0x5050c0726da8104
    83ac:	05 05 
    83ae:	80 a6 10 81 f5 07 01 	and    BYTE PTR [rsi+0x7f58110],0x1
    83b5:	20 2a                	and    BYTE PTR [rdx],ch
    83b7:	06                   	(bad)
    83b8:	4c 04 80             	rex.WR add al,0x80
    83bb:	8d 04 80             	lea    eax,[rax+rax*4]
    83be:	be 03 1b 03 0f       	mov    esi,0xf031b03
    83c3:	0d 2f 68 6f 6d       	or     eax,0x6d6f682f
    83c8:	65 2f                	gs (bad)
    83ca:	65 63 32             	movsxd esi,DWORD PTR gs:[rdx]
    83cd:	2d 75 73 65 72       	sub    eax,0x72657375
    83d2:	2f                   	(bad)
    83d3:	2e 72 75             	cs jb  0x844b
    83d6:	73 74                	jae    0x844c
    83d8:	75 70                	jne    0x844a
    83da:	2f                   	(bad)
    83db:	74 6f                	je     0x844c
    83dd:	6f                   	outs   dx,DWORD PTR ds:[rsi]
    83de:	6c                   	ins    BYTE PTR es:[rdi],dx
    83df:	63 68 61             	movsxd ebp,DWORD PTR [rax+0x61]
    83e2:	69 6e 73 2f 6e 69 67 	imul   ebp,DWORD PTR [rsi+0x73],0x67696e2f
    83e9:	68 74 6c 79 2d       	push   0x2d796c74
    83ee:	78 38                	js     0x8428
    83f0:	36 5f                	ss pop rdi
    83f2:	36 34 2d             	ss xor al,0x2d
    83f5:	75 6e                	jne    0x8465
    83f7:	6b 6e 6f 77          	imul   ebp,DWORD PTR [rsi+0x6f],0x77
    83fb:	6e                   	outs   dx,BYTE PTR ds:[rsi]
    83fc:	2d 6c 69 6e 75       	sub    eax,0x756e696c
    8401:	78 2d                	js     0x8430
    8403:	67 6e                	outs   dx,BYTE PTR ds:[esi]
    8405:	75 2f                	jne    0x8436
    8407:	6c                   	ins    BYTE PTR es:[rdi],dx
    8408:	69 62 2f 72 75 73 74 	imul   esp,DWORD PTR [rdx+0x2f],0x74737572
    840f:	6c                   	ins    BYTE PTR es:[rdi],dx
    8410:	69 62 2f 73 72 63 2f 	imul   esp,DWORD PTR [rdx+0x2f],0x2f637273
    8417:	72 75                	jb     0x848e
    8419:	73 74                	jae    0x848f
    841b:	2f                   	(bad)
    841c:	6c                   	ins    BYTE PTR es:[rdi],dx
    841d:	69 62 72 61 72 79 2f 	imul   esp,DWORD PTR [rdx+0x72],0x2f797261
    8424:	63 6f 72             	movsxd ebp,DWORD PTR [rdi+0x72]
    8427:	65 2f                	gs (bad)
    8429:	73 72                	jae    0x849d
    842b:	63 2f                	movsxd ebp,DWORD PTR [rdi]
    842d:	75 6e                	jne    0x849d
    842f:	69 63 6f 64 65 2f 75 	imul   esp,DWORD PTR [rbx+0x6f],0x752f6564
    8436:	6e                   	outs   dx,BYTE PTR ds:[rsi]
    8437:	69 63 6f 64 65 5f 64 	imul   esp,DWORD PTR [rbx+0x6f],0x645f6564
    843e:	61                   	(bad)
    843f:	74 61                	je     0x84a2
    8441:	2e 72 73             	cs jb  0x84b7
    8444:	00 00                	add    BYTE PTR [rax],al
    8446:	00 00                	add    BYTE PTR [rax],al
    8448:	c4 83 00 00          	(bad)
    844c:	00 00                	add    BYTE PTR [rax],al
    844e:	00 00                	add    BYTE PTR [rax],al
    8450:	80 00 00             	add    BYTE PTR [rax],0x0
    8453:	00 00                	add    BYTE PTR [rax],al
    8455:	00 00                	add    BYTE PTR [rax],al
    8457:	00 50 00             	add    BYTE PTR [rax+0x0],dl
    845a:	00 00                	add    BYTE PTR [rax],al
    845c:	28 00                	sub    BYTE PTR [rax],al
    845e:	00 00                	add    BYTE PTR [rax],al
    8460:	c4 83 00 00          	(bad)
    8464:	00 00                	add    BYTE PTR [rax],al
    8466:	00 00                	add    BYTE PTR [rax],al
    8468:	80 00 00             	add    BYTE PTR [rax],0x0
    846b:	00 00                	add    BYTE PTR [rax],al
    846d:	00 00                	add    BYTE PTR [rax],al
    846f:	00 5c 00 00          	add    BYTE PTR [rax+rax*1+0x0],bl
    8473:	00 16                	add    BYTE PTR [rsi],dl
    8475:	00 00                	add    BYTE PTR [rax],al
    8477:	00 2f                	add    BYTE PTR [rdi],ch
    8479:	68 6f 6d 65 2f       	push   0x2f656d6f
    847e:	65 63 32             	movsxd esi,DWORD PTR gs:[rdx]
    8481:	2d 75 73 65 72       	sub    eax,0x72657375
    8486:	2f                   	(bad)
    8487:	2e 72 75             	cs jb  0x84ff
    848a:	73 74                	jae    0x8500
    848c:	75 70                	jne    0x84fe
    848e:	2f                   	(bad)
    848f:	74 6f                	je     0x8500
    8491:	6f                   	outs   dx,DWORD PTR ds:[rsi]
    8492:	6c                   	ins    BYTE PTR es:[rdi],dx
    8493:	63 68 61             	movsxd ebp,DWORD PTR [rax+0x61]
    8496:	69 6e 73 2f 6e 69 67 	imul   ebp,DWORD PTR [rsi+0x73],0x67696e2f
    849d:	68 74 6c 79 2d       	push   0x2d796c74
    84a2:	78 38                	js     0x84dc
    84a4:	36 5f                	ss pop rdi
    84a6:	36 34 2d             	ss xor al,0x2d
    84a9:	75 6e                	jne    0x8519
    84ab:	6b 6e 6f 77          	imul   ebp,DWORD PTR [rsi+0x6f],0x77
    84af:	6e                   	outs   dx,BYTE PTR ds:[rsi]
    84b0:	2d 6c 69 6e 75       	sub    eax,0x756e696c
    84b5:	78 2d                	js     0x84e4
    84b7:	67 6e                	outs   dx,BYTE PTR ds:[esi]
    84b9:	75 2f                	jne    0x84ea
    84bb:	6c                   	ins    BYTE PTR es:[rdi],dx
    84bc:	69 62 2f 72 75 73 74 	imul   esp,DWORD PTR [rdx+0x2f],0x74737572
    84c3:	6c                   	ins    BYTE PTR es:[rdi],dx
    84c4:	69 62 2f 73 72 63 2f 	imul   esp,DWORD PTR [rdx+0x2f],0x2f637273
    84cb:	72 75                	jb     0x8542
    84cd:	73 74                	jae    0x8543
    84cf:	2f                   	(bad)
    84d0:	6c                   	ins    BYTE PTR es:[rdi],dx
    84d1:	69 62 72 61 72 79 2f 	imul   esp,DWORD PTR [rdx+0x72],0x2f797261
    84d8:	63 6f 72             	movsxd ebp,DWORD PTR [rdi+0x72]
    84db:	65 2f                	gs (bad)
    84dd:	73 72                	jae    0x8551
    84df:	63 2f                	movsxd ebp,DWORD PTR [rdi]
    84e1:	65 73 63             	gs jae 0x8547
    84e4:	61                   	(bad)
    84e5:	70 65                	jo     0x854c
    84e7:	2e 72 73             	cs jb  0x855d
    84ea:	00 00                	add    BYTE PTR [rax],al
    84ec:	00 00                	add    BYTE PTR [rax],al
    84ee:	00 00                	add    BYTE PTR [rax],al
    84f0:	78 84                	js     0x8476
    84f2:	00 00                	add    BYTE PTR [rax],al
    84f4:	00 00                	add    BYTE PTR [rax],al
    84f6:	00 00                	add    BYTE PTR [rax],al
    84f8:	72 00                	jb     0x84fa
    84fa:	00 00                	add    BYTE PTR [rax],al
    84fc:	00 00                	add    BYTE PTR [rax],al
    84fe:	00 00                	add    BYTE PTR [rax],al
    8500:	62                   	(bad)
    8501:	00 00                	add    BYTE PTR [rax],al
    8503:	00 23                	add    BYTE PTR [rbx],ah
    8505:	00 00                	add    BYTE PTR [rax],al
    8507:	00 00                	add    BYTE PTR [rax],al
    8509:	03 00                	add    eax,DWORD PTR [rax]
    850b:	00 83 04 20 00 91    	add    BYTE PTR [rbx-0x6effdffc],al
    8511:	05 60 00 5d 13       	add    eax,0x135d0060
    8516:	a0 00 12 17 20 1f 0c 	movabs al,ds:0x60200c1f20171200
    851d:	20 60 
    851f:	1f                   	(bad)
    8520:	ef                   	out    dx,eax
    8521:	2c a0                	sub    al,0xa0
    8523:	2b 2a                	sub    ebp,DWORD PTR [rdx]
    8525:	30 20                	xor    BYTE PTR [rax],ah
    8527:	2c 6f                	sub    al,0x6f
    8529:	a6                   	cmps   BYTE PTR ds:[rsi],BYTE PTR es:[rdi]
    852a:	e0 2c                	loopne 0x8558
    852c:	02 a8 60 2d 1e fb    	add    ch,BYTE PTR [rax-0x4e1d2a0]
    8532:	60                   	(bad)
    8533:	2e 00 fe             	cs add dh,bh
    8536:	20 36                	and    BYTE PTR [rsi],dh
    8538:	9e                   	sahf
    8539:	ff 60 36             	jmp    QWORD PTR [rax+0x36]
    853c:	fd                   	std
    853d:	01 e1                	add    ecx,esp
    853f:	36 01 0a             	ss add DWORD PTR [rdx],ecx
    8542:	21 37                	and    DWORD PTR [rdi],esi
    8544:	24 0d                	and    al,0xd
    8546:	e1 37                	loope  0x857f
    8548:	ab                   	stos   DWORD PTR es:[rdi],eax
    8549:	0e                   	(bad)
    854a:	61                   	(bad)
    854b:	39 2f                	cmp    DWORD PTR [rdi],ebp
    854d:	18 a1 39 30 1c 61    	sbb    BYTE PTR [rcx+0x611c3039],ah
    8553:	48                   	rex.W
    8554:	f3 1e                	repz (bad)
    8556:	a1 4c 40 34 61 50 f0 	movabs eax,ds:0xa16af0506134404c
    855d:	6a a1 
    855f:	51                   	push   rcx
    8560:	4f 6f                	rex.WRXB outs dx,DWORD PTR ds:[rsi]
    8562:	21 52 9d             	and    DWORD PTR [rdx-0x63],edx
    8565:	bc a1 52 00 cf       	mov    esp,0xcf0052a1
    856a:	61                   	(bad)
    856b:	53                   	push   rbx
    856c:	65 d1 a1 53 00 da 21 	shl    DWORD PTR gs:[rcx+0x21da0053],1
    8573:	54                   	push   rsp
    8574:	00 e0                	add    al,ah
    8576:	e1 55                	loope  0x85cd
    8578:	ae                   	scas   al,BYTE PTR es:[rdi]
    8579:	e2 61                	loop   0x85dc
    857b:	57                   	push   rdi
    857c:	ec                   	in     al,dx
    857d:	e4 21                	in     al,0x21
    857f:	59                   	pop    rcx
    8580:	d0 e8                	shr    al,1
    8582:	a1 59 20 00 ee 59 f0 	movabs eax,ds:0x7f01f059ee002059
    8589:	01 7f 
    858b:	5a                   	pop    rdx
    858c:	00 70 00             	add    BYTE PTR [rax+0x0],dh
    858f:	07                   	(bad)
    8590:	00 2d 01 01 01 02    	add    BYTE PTR [rip+0x2010101],ch        # 0x2018697
    8596:	01 02                	add    DWORD PTR [rdx],eax
    8598:	01 01                	add    DWORD PTR [rcx],eax
    859a:	48 0b 30             	or     rsi,QWORD PTR [rax]
    859d:	15 10 01 65 07       	adc    eax,0x7650110
    85a2:	02 06                	add    al,BYTE PTR [rsi]
    85a4:	02 02                	add    al,BYTE PTR [rdx]
    85a6:	01 04 23             	add    DWORD PTR [rbx+riz*1],eax
    85a9:	01 1e                	add    DWORD PTR [rsi],ebx
    85ab:	1b 5b 0b             	sbb    ebx,DWORD PTR [rbx+0xb]
    85ae:	3a 09                	cmp    cl,BYTE PTR [rcx]
    85b0:	09 01                	or     DWORD PTR [rcx],eax
    85b2:	18 04 01             	sbb    BYTE PTR [rcx+rax*1],al
    85b5:	09 01                	or     DWORD PTR [rcx],eax
    85b7:	03 01                	add    eax,DWORD PTR [rcx]
    85b9:	05 2b 03 3c 08       	add    eax,0x83c032b
    85be:	2a 18                	sub    bl,BYTE PTR [rax]
    85c0:	01 20                	add    DWORD PTR [rax],esp
    85c2:	37                   	(bad)
    85c3:	01 01                	add    DWORD PTR [rcx],eax
    85c5:	01 04 08             	add    DWORD PTR [rax+rcx*1],eax
    85c8:	04 01                	add    al,0x1
    85ca:	03 07                	add    eax,DWORD PTR [rdi]
    85cc:	0a 02                	or     al,BYTE PTR [rdx]
    85ce:	1d 01 3a 01 01       	sbb    eax,0x1013a01
    85d3:	01 02                	add    DWORD PTR [rdx],eax
    85d5:	04 08                	add    al,0x8
    85d7:	01 09                	add    DWORD PTR [rcx],ecx
    85d9:	01 0a                	add    DWORD PTR [rdx],ecx
    85db:	02 1a                	add    bl,BYTE PTR [rdx]
    85dd:	01 02                	add    DWORD PTR [rdx],eax
    85df:	02 39                	add    bh,BYTE PTR [rcx]
    85e1:	01 04 02             	add    DWORD PTR [rdx+rax*1],eax
    85e4:	04 02                	add    al,0x2
    85e6:	02 03                	add    al,BYTE PTR [rbx]
    85e8:	03 01                	add    eax,DWORD PTR [rcx]
    85ea:	1e                   	(bad)
    85eb:	02 03                	add    al,BYTE PTR [rbx]
    85ed:	01 0b                	add    DWORD PTR [rbx],ecx
    85ef:	02 39                	add    bh,BYTE PTR [rcx]
    85f1:	01 04 05 01 02 04 01 	add    DWORD PTR [rax*1+0x1040201],eax
    85f8:	14 02                	adc    al,0x2
    85fa:	16                   	(bad)
    85fb:	06                   	(bad)
    85fc:	01 01                	add    DWORD PTR [rcx],eax
    85fe:	3a 01                	cmp    al,BYTE PTR [rcx]
    8600:	01 02                	add    DWORD PTR [rdx],eax
    8602:	01 04 08             	add    DWORD PTR [rax+rcx*1],eax
    8605:	01 07                	add    DWORD PTR [rdi],eax
    8607:	03 0a                	add    ecx,DWORD PTR [rdx]
    8609:	02 1e                	add    bl,BYTE PTR [rsi]
    860b:	01 3b                	add    DWORD PTR [rbx],edi
    860d:	01 01                	add    DWORD PTR [rcx],eax
    860f:	01 0c 01             	add    DWORD PTR [rcx+rax*1],ecx
    8612:	09 01                	or     DWORD PTR [rcx],eax
    8614:	28 01                	sub    BYTE PTR [rcx],al
    8616:	03 01                	add    eax,DWORD PTR [rcx]
    8618:	37                   	(bad)
    8619:	01 01                	add    DWORD PTR [rcx],eax
    861b:	03 05 03 01 04 07    	add    eax,DWORD PTR [rip+0x7040103]        # 0x7048724
    8621:	02 0b                	add    cl,BYTE PTR [rbx]
    8623:	02 1d 01 3a 01 02    	add    bl,BYTE PTR [rip+0x2013a01]        # 0x201c02a
    8629:	01 02                	add    DWORD PTR [rdx],eax
    862b:	01 03                	add    DWORD PTR [rbx],eax
    862d:	01 05 02 07 02 0b    	add    DWORD PTR [rip+0xb020702],eax        # 0xb028d35
    8633:	02 1c 02             	add    bl,BYTE PTR [rdx+rax*1]
    8636:	39 02                	cmp    DWORD PTR [rdx],eax
    8638:	01 01                	add    DWORD PTR [rcx],eax
    863a:	02 04 08             	add    al,BYTE PTR [rax+rcx*1]
    863d:	01 09                	add    DWORD PTR [rcx],ecx
    863f:	01 0a                	add    DWORD PTR [rdx],ecx
    8641:	02 1d 01 48 01 04    	add    bl,BYTE PTR [rip+0x4014801]        # 0x401ce48
    8647:	01 02                	add    DWORD PTR [rdx],eax
    8649:	03 01                	add    eax,DWORD PTR [rcx]
    864b:	01 08                	add    DWORD PTR [rax],ecx
    864d:	01 51 01             	add    DWORD PTR [rcx+0x1],edx
    8650:	02 07                	add    al,BYTE PTR [rdi]
    8652:	0c 08                	or     al,0x8
    8654:	62 01                	(bad)
    8656:	02 09                	add    cl,BYTE PTR [rcx]
    8658:	0b 07                	or     eax,DWORD PTR [rdi]
    865a:	49 02 1b             	rex.WB add bl,BYTE PTR [r11]
    865d:	01 01                	add    DWORD PTR [rcx],eax
    865f:	01 01                	add    DWORD PTR [rcx],eax
    8661:	01 37                	add    DWORD PTR [rdi],esi
    8663:	0e                   	(bad)
    8664:	01 05 01 02 05 0b    	add    DWORD PTR [rip+0xb050201],eax        # 0xb05886b
    866a:	01 24 09             	add    DWORD PTR [rcx+rcx*1],esp
    866d:	01 66 04             	add    DWORD PTR [rsi+0x4],esp
    8670:	01 06                	add    DWORD PTR [rsi],eax
    8672:	01 02                	add    DWORD PTR [rdx],eax
    8674:	02 02                	add    al,BYTE PTR [rdx]
    8676:	19 02                	sbb    DWORD PTR [rdx],eax
    8678:	04 03                	add    al,0x3
    867a:	10 04 0d 01 02 02 06 	adc    BYTE PTR [rcx*1+0x6020201],al
    8681:	01 0f                	add    DWORD PTR [rdi],ecx
    8683:	01 00                	add    DWORD PTR [rax],eax
    8685:	03 00                	add    eax,DWORD PTR [rax]
    8687:	03 1d 02 1e 02 1e    	add    ebx,DWORD PTR [rip+0x1e021e02]        # 0x1e02a48f
    868d:	02 40 02             	add    al,BYTE PTR [rax+0x2]
    8690:	01 07                	add    DWORD PTR [rdi],eax
    8692:	08 01                	or     BYTE PTR [rcx],al
    8694:	02 0b                	add    cl,BYTE PTR [rbx]
    8696:	09 01                	or     DWORD PTR [rcx],eax
    8698:	2d 03 01 01 75       	sub    eax,0x75010103
    869d:	02 22                	add    ah,BYTE PTR [rdx]
    869f:	01 76 03             	add    DWORD PTR [rsi+0x3],esi
    86a2:	04 02                	add    al,0x2
    86a4:	09 01                	or     DWORD PTR [rcx],eax
    86a6:	06                   	(bad)
    86a7:	03 db                	add    ebx,ebx
    86a9:	02 02                	add    al,BYTE PTR [rdx]
    86ab:	01 3a                	add    DWORD PTR [rdx],edi
    86ad:	01 01                	add    DWORD PTR [rcx],eax
    86af:	07                   	(bad)
    86b0:	01 01                	add    DWORD PTR [rcx],eax
    86b2:	01 01                	add    DWORD PTR [rcx],eax
    86b4:	02 08                	add    cl,BYTE PTR [rax]
    86b6:	06                   	(bad)
    86b7:	0a 02                	or     al,BYTE PTR [rdx]
    86b9:	01 30                	add    DWORD PTR [rax],esi
    86bb:	1f                   	(bad)
    86bc:	31 04 30             	xor    DWORD PTR [rax+rsi*1],eax
    86bf:	07                   	(bad)
    86c0:	01 01                	add    DWORD PTR [rcx],eax
    86c2:	05 01 28 09 0c       	add    eax,0xc092801
    86c7:	02 20                	add    ah,BYTE PTR [rax]
    86c9:	04 02                	add    al,0x2
    86cb:	02 01                	add    al,BYTE PTR [rcx]
    86cd:	03 38                	add    edi,DWORD PTR [rax]
    86cf:	01 01                	add    DWORD PTR [rcx],eax
    86d1:	02 03                	add    al,BYTE PTR [rbx]
    86d3:	01 01                	add    DWORD PTR [rcx],eax
    86d5:	03 3a                	add    edi,DWORD PTR [rdx]
    86d7:	08 02                	or     BYTE PTR [rdx],al
    86d9:	02 98 03 01 0d 01    	add    bl,BYTE PTR [rax+0x10d0103]
    86df:	07                   	(bad)
    86e0:	04 01                	add    al,0x1
    86e2:	06                   	(bad)
    86e3:	01 03                	add    DWORD PTR [rbx],eax
    86e5:	02 c6                	add    al,dh
    86e7:	40 00 01             	rex add BYTE PTR [rcx],al
    86ea:	c3                   	ret
    86eb:	21 00                	and    DWORD PTR [rax],eax
    86ed:	03 8d 01 60 20 00    	add    ecx,DWORD PTR [rbp+0x206001]
    86f3:	06                   	(bad)
    86f4:	69 02 00 04 01 0a    	imul   eax,DWORD PTR [rdx],0xa010400
    86fa:	20 02                	and    BYTE PTR [rdx],al
    86fc:	50                   	push   rax
    86fd:	02 00                	add    al,BYTE PTR [rax]
    86ff:	01 03                	add    DWORD PTR [rbx],eax
    8701:	01 04 01             	add    DWORD PTR [rcx+rax*1],eax
    8704:	19 02                	sbb    DWORD PTR [rdx],eax
    8706:	05 01 97 02 1a       	add    eax,0x1a029701
    870b:	12 0d 01 26 08 19    	adc    cl,BYTE PTR [rip+0x19082601]        # 0x1908ad12
    8711:	0b 2e                	or     ebp,DWORD PTR [rsi]
    8713:	03 30                	add    esi,DWORD PTR [rax]
    8715:	01 02                	add    DWORD PTR [rdx],eax
    8717:	04 02                	add    al,0x2
    8719:	02 27                	add    ah,BYTE PTR [rdi]
    871b:	01 43 06             	add    DWORD PTR [rbx+0x6],eax
    871e:	02 02                	add    al,BYTE PTR [rdx]
    8720:	02 02                	add    al,BYTE PTR [rdx]
    8722:	0c 01                	or     al,0x1
    8724:	08 01                	or     BYTE PTR [rcx],al
    8726:	2f                   	(bad)
    8727:	01 33                	add    DWORD PTR [rbx],esi
    8729:	01 01                	add    DWORD PTR [rcx],eax
    872b:	03 02                	add    eax,DWORD PTR [rdx]
    872d:	02 05 02 01 01 2a    	add    al,BYTE PTR [rip+0x2a010102]        # 0x2a018835
    8733:	02 08                	add    cl,BYTE PTR [rax]
    8735:	01 ee                	add    esi,ebp
    8737:	01 02                	add    DWORD PTR [rdx],eax
    8739:	01 04 01             	add    DWORD PTR [rcx+rax*1],eax
    873c:	00 01                	add    BYTE PTR [rcx],al
    873e:	00 10                	add    BYTE PTR [rax],dl
    8740:	10 10                	adc    BYTE PTR [rax],dl
    8742:	00 02                	add    BYTE PTR [rdx],al
    8744:	00 01                	add    BYTE PTR [rcx],al
    8746:	e2 01                	loop   0x8749
    8748:	95                   	xchg   ebp,eax
    8749:	05 00 03 01 02       	add    eax,0x2010300
    874e:	05 04 28 03 04       	add    eax,0x4032804
    8753:	01 a5 02 00 04 00    	add    DWORD PTR [rbp+0x40002],esp
    8759:	02 50 03             	add    dl,BYTE PTR [rax+0x3]
    875c:	46 0b 31             	rex.RX or r14d,DWORD PTR [rcx]
    875f:	04 7b                	add    al,0x7b
    8761:	01 36                	add    DWORD PTR [rsi],esi
    8763:	0f 29 01             	movaps XMMWORD PTR [rcx],xmm0
    8766:	02 02                	add    al,BYTE PTR [rdx]
    8768:	0a 03                	or     al,BYTE PTR [rbx]
    876a:	31 04 02             	xor    DWORD PTR [rdx+rax*1],eax
    876d:	02 07                	add    al,BYTE PTR [rdi]
    876f:	01 3d 03 24 05 01    	add    DWORD PTR [rip+0x1052403],edi        # 0x105ab78
    8775:	08 3e                	or     BYTE PTR [rsi],bh
    8777:	01 0c 02             	add    DWORD PTR [rdx+rax*1],ecx
    877a:	34 09                	xor    al,0x9
    877c:	0a 04 02             	or     al,BYTE PTR [rdx+rax*1]
    877f:	01 5f 03             	add    DWORD PTR [rdi+0x3],ebx
    8782:	02 01                	add    al,BYTE PTR [rcx]
    8784:	01 02                	add    DWORD PTR [rdx],eax
    8786:	06                   	(bad)
    8787:	01 02                	add    DWORD PTR [rdx],eax
    8789:	01 9d 01 03 08 15    	add    DWORD PTR [rbp+0x15080301],ebx
    878f:	02 39                	add    bh,BYTE PTR [rcx]
    8791:	02 01                	add    al,BYTE PTR [rcx]
    8793:	01 01                	add    DWORD PTR [rcx],eax
    8795:	01 16                	add    DWORD PTR [rsi],edx
    8797:	01 0e                	add    DWORD PTR [rsi],ecx
    8799:	07                   	(bad)
    879a:	03 05 c3 08 02 03    	add    eax,DWORD PTR [rip+0x30208c3]        # 0x3029063
    87a0:	01 01                	add    DWORD PTR [rcx],eax
    87a2:	17                   	(bad)
    87a3:	01 51 01             	add    DWORD PTR [rcx+0x1],edx
    87a6:	02 06                	add    al,BYTE PTR [rsi]
    87a8:	01 01                	add    DWORD PTR [rcx],eax
    87aa:	02 01                	add    al,BYTE PTR [rcx]
    87ac:	01 02                	add    DWORD PTR [rdx],eax
    87ae:	01 02                	add    DWORD PTR [rdx],eax
    87b0:	eb 01                	jmp    0x87b3
    87b2:	02 04 06             	add    al,BYTE PTR [rsi+rax*1]
    87b5:	02 01                	add    al,BYTE PTR [rcx]
    87b7:	02 1b                	add    bl,BYTE PTR [rbx]
    87b9:	02 55 08             	add    dl,BYTE PTR [rbp+0x8]
    87bc:	02 01                	add    al,BYTE PTR [rcx]
    87be:	01 02                	add    DWORD PTR [rdx],eax
    87c0:	6a 01                	push   0x1
    87c2:	01 01                	add    DWORD PTR [rcx],eax
    87c4:	02 06                	add    al,BYTE PTR [rsi]
    87c6:	01 01                	add    DWORD PTR [rcx],eax
    87c8:	65 03 02             	add    eax,DWORD PTR gs:[rdx]
    87cb:	04 01                	add    al,0x1
    87cd:	05 00 09 01 02       	add    eax,0x2010900
    87d2:	f5                   	cmc
    87d3:	01 0a                	add    DWORD PTR [rdx],ecx
    87d5:	02 01                	add    al,BYTE PTR [rcx]
    87d7:	01 04 01             	add    DWORD PTR [rcx+rax*1],eax
    87da:	90                   	nop
    87db:	04 02                	add    al,0x2
    87dd:	02 04 01             	add    al,BYTE PTR [rcx+rax*1]
    87e0:	20 0a                	and    BYTE PTR [rdx],cl
    87e2:	28 06                	sub    BYTE PTR [rsi],al
    87e4:	02 04 08             	add    al,BYTE PTR [rax+rcx*1]
    87e7:	01 09                	add    DWORD PTR [rcx],ecx
    87e9:	06                   	(bad)
    87ea:	02 03                	add    al,BYTE PTR [rbx]
    87ec:	2e 0d 01 02 00 07    	cs or  eax,0x7000201
    87f2:	01 06                	add    DWORD PTR [rsi],eax
    87f4:	01 01                	add    DWORD PTR [rcx],eax
    87f6:	52                   	push   rdx
    87f7:	16                   	(bad)
    87f8:	02 07                	add    al,BYTE PTR [rdi]
    87fa:	01 02                	add    DWORD PTR [rdx],eax
    87fc:	01 02                	add    DWORD PTR [rdx],eax
    87fe:	7a 06                	jp     0x8806
    8800:	03 01                	add    eax,DWORD PTR [rcx]
    8802:	01 02                	add    DWORD PTR [rdx],eax
    8804:	01 07                	add    DWORD PTR [rdi],eax
    8806:	01 01                	add    DWORD PTR [rcx],eax
    8808:	48 02 03             	rex.W add al,BYTE PTR [rbx]
    880b:	01 01                	add    DWORD PTR [rcx],eax
    880d:	01 00                	add    DWORD PTR [rax],eax
    880f:	02 0b                	add    cl,BYTE PTR [rbx]
    8811:	02 34 05 05 01 01 01 	add    dh,BYTE PTR [rax*1+0x1010105]
    8818:	00 01                	add    BYTE PTR [rcx],al
    881a:	06                   	(bad)
    881b:	0f 00 05 3b 07 00 01 	sldt   WORD PTR [rip+0x100073b]        # 0x1008f5d
    8822:	3f                   	(bad)
    8823:	04 51                	add    al,0x51
    8825:	01 00                	add    DWORD PTR [rax],eax
    8827:	02 00                	add    al,BYTE PTR [rax]
    8829:	2e 02 17             	cs add dl,BYTE PTR [rdi]
    882c:	00 01                	add    BYTE PTR [rcx],al
    882e:	01 03                	add    DWORD PTR [rbx],eax
    8830:	04 05                	add    al,0x5
    8832:	08 08                	or     BYTE PTR [rax],cl
    8834:	02 07                	add    al,BYTE PTR [rdi]
    8836:	1e                   	(bad)
    8837:	04 94                	add    al,0x94
    8839:	03 00                	add    eax,DWORD PTR [rax]
    883b:	37                   	(bad)
    883c:	04 32                	add    al,0x32
    883e:	08 01                	or     BYTE PTR [rcx],al
    8840:	0e                   	(bad)
    8841:	01 16                	add    DWORD PTR [rsi],edx
    8843:	05 01 0f 00 07       	add    eax,0x7000f01
    8848:	01 11                	add    DWORD PTR [rcx],edx
    884a:	02 07                	add    al,BYTE PTR [rdi]
    884c:	01 02                	add    DWORD PTR [rdx],eax
    884e:	01 05 64 01 a0 07    	add    DWORD PTR [rip+0x7a00164],eax        # 0x7a089b8
    8854:	00 01                	add    BYTE PTR [rcx],al
    8856:	3d 04 00 04 00       	cmp    eax,0x40004
    885b:	07                   	(bad)
    885c:	6d                   	ins    DWORD PTR es:[rdi],dx
    885d:	07                   	(bad)
    885e:	00 60 80             	add    BYTE PTR [rax-0x80],ah
    8861:	f0 00 00             	lock add BYTE PTR [rax],al
    8864:	00 00                	add    BYTE PTR [rax],al
    8866:	00 00                	add    BYTE PTR [rax],al
    8868:	50                   	push   rax
    8869:	52                   	push   rdx
    886a:	4f 54                	rex.WRXB push r12
    886c:	45                   	rex.RB
    886d:	43 54                	rex.XB push r12
    886f:	49                   	rex.WB
    8870:	4f                   	rex.WRXB
    8871:	4e 5f                	rex.WRX pop rdi
    8873:	4b                   	rex.WXB
    8874:	45 59                	rex.RB pop r9
    8876:	50                   	push   rax
    8877:	52                   	push   rdx
    8878:	4f 54                	rex.WRXB push r12
    887a:	45                   	rex.RB
    887b:	43 54                	rex.XB push r12
    887d:	49                   	rex.WB
    887e:	4f                   	rex.WRXB
    887f:	4e 5f                	rex.WRX pop rdi
    8881:	56                   	push   rsi
    8882:	49                   	rex.WB
    8883:	4f                   	rex.WRXB
    8884:	4c                   	rex.WR
    8885:	41 54                	push   r12
    8887:	49                   	rex.WB
    8888:	4f                   	rex.WRXB
    8889:	4e                   	rex.WRX
    888a:	43                   	rex.XB
    888b:	41 55                	push   r13
    888d:	53                   	push   rbx
    888e:	45                   	rex.RB
    888f:	44 5f                	rex.R pop rdi
    8891:	42 59                	rex.X pop rcx
    8893:	5f                   	pop    rdi
    8894:	57                   	push   rdi
    8895:	52                   	push   rdx
    8896:	49 54                	rex.WB push r12
    8898:	45 55                	rex.RB push r13
    889a:	53                   	push   rbx
    889b:	45 52                	rex.RB push r10
    889d:	5f                   	pop    rdi
    889e:	4d                   	rex.WRB
    889f:	4f                   	rex.WRXB
    88a0:	44                   	rex.R
    88a1:	45                   	rex.RB
    88a2:	4d                   	rex.WRB
    88a3:	41                   	rex.B
    88a4:	4c                   	rex.WR
    88a5:	46                   	rex.RX
    88a6:	4f 52                	rex.WRXB push r10
    88a8:	4d                   	rex.WRB
    88a9:	45                   	rex.RB
    88aa:	44 5f                	rex.R pop rdi
    88ac:	54                   	push   rsp
    88ad:	41                   	rex.B
    88ae:	42                   	rex.X
    88af:	4c                   	rex.WR
    88b0:	45                   	rex.RB
    88b1:	49                   	rex.WB
    88b2:	4e 53                	rex.WRX push rbx
    88b4:	54                   	push   rsp
    88b5:	52                   	push   rdx
    88b6:	55                   	push   rbp
    88b7:	43 54                	rex.XB push r12
    88b9:	49                   	rex.WB
    88ba:	4f                   	rex.WRXB
    88bb:	4e 5f                	rex.WRX pop rdi
    88bd:	46                   	rex.RX
    88be:	45 54                	rex.RB push r12
    88c0:	43                   	rex.XB
    88c1:	48 53                	rex.W push rbx
    88c3:	48                   	rex.W
    88c4:	41                   	rex.B
    88c5:	44                   	rex.R
    88c6:	4f 57                	rex.WRXB push r15
    88c8:	5f                   	pop    rdi
    88c9:	53                   	push   rbx
    88ca:	54                   	push   rsp
    88cb:	41                   	rex.B
    88cc:	43                   	rex.XB
    88cd:	4b 53                	rex.WXB push r11
    88cf:	47 58                	rex.RXB pop r8
    88d1:	52                   	push   rdx
    88d2:	4d 50                	rex.WRB push r8
    88d4:	00 00                	add    BYTE PTR [rax],al
    88d6:	00 00                	add    BYTE PTR [rax],al
    88d8:	76 88                	jbe    0x8862
    88da:	00 00                	add    BYTE PTR [rax],al
    88dc:	00 00                	add    BYTE PTR [rax],al
    88de:	00 00                	add    BYTE PTR [rax],al
    88e0:	14 00                	adc    al,0x0
    88e2:	00 00                	add    BYTE PTR [rax],al
    88e4:	00 00                	add    BYTE PTR [rax],al
    88e6:	00 00                	add    BYTE PTR [rax],al
    88e8:	01 00                	add    DWORD PTR [rax],eax
    88ea:	00 00                	add    BYTE PTR [rax],al
    88ec:	00 00                	add    BYTE PTR [rax],al
    88ee:	00 00                	add    BYTE PTR [rax],al
    88f0:	8a 88 00 00 00 00    	mov    cl,BYTE PTR [rax+0x0]
    88f6:	00 00                	add    BYTE PTR [rax],al
    88f8:	0f 00 00             	sldt   WORD PTR [rax]
    88fb:	00 00                	add    BYTE PTR [rax],al
    88fd:	00 00                	add    BYTE PTR [rax],al
    88ff:	00 02                	add    BYTE PTR [rdx],al
    8901:	00 00                	add    BYTE PTR [rax],al
    8903:	00 00                	add    BYTE PTR [rax],al
    8905:	00 00                	add    BYTE PTR [rax],al
    8907:	00 99 88 00 00 00    	add    BYTE PTR [rcx+0x88],bl
    890d:	00 00                	add    BYTE PTR [rax],al
    890f:	00 09                	add    BYTE PTR [rcx],cl
    8911:	00 00                	add    BYTE PTR [rax],al
    8913:	00 00                	add    BYTE PTR [rax],al
    8915:	00 00                	add    BYTE PTR [rax],al
    8917:	00 04 00             	add    BYTE PTR [rax+rax*1],al
    891a:	00 00                	add    BYTE PTR [rax],al
    891c:	00 00                	add    BYTE PTR [rax],al
    891e:	00 00                	add    BYTE PTR [rax],al
    8920:	a2 88 00 00 00 00 00 	movabs ds:0xf00000000000088,al
    8927:	00 0f 
    8929:	00 00                	add    BYTE PTR [rax],al
    892b:	00 00                	add    BYTE PTR [rax],al
    892d:	00 00                	add    BYTE PTR [rax],al
    892f:	00 08                	add    BYTE PTR [rax],cl
    8931:	00 00                	add    BYTE PTR [rax],al
    8933:	00 00                	add    BYTE PTR [rax],al
    8935:	00 00                	add    BYTE PTR [rax],al
    8937:	00 b1 88 00 00 00    	add    BYTE PTR [rcx+0x88],dh
    893d:	00 00                	add    BYTE PTR [rax],al
    893f:	00 11                	add    BYTE PTR [rcx],dl
    8941:	00 00                	add    BYTE PTR [rax],al
    8943:	00 00                	add    BYTE PTR [rax],al
    8945:	00 00                	add    BYTE PTR [rax],al
    8947:	00 10                	add    BYTE PTR [rax],dl
    8949:	00 00                	add    BYTE PTR [rax],al
    894b:	00 00                	add    BYTE PTR [rax],al
    894d:	00 00                	add    BYTE PTR [rax],al
    894f:	00 68 88             	add    BYTE PTR [rax-0x78],ch
    8952:	00 00                	add    BYTE PTR [rax],al
    8954:	00 00                	add    BYTE PTR [rax],al
    8956:	00 00                	add    BYTE PTR [rax],al
    8958:	0e                   	(bad)
    8959:	00 00                	add    BYTE PTR [rax],al
    895b:	00 00                	add    BYTE PTR [rax],al
    895d:	00 00                	add    BYTE PTR [rax],al
    895f:	00 20                	add    BYTE PTR [rax],ah
    8961:	00 00                	add    BYTE PTR [rax],al
    8963:	00 00                	add    BYTE PTR [rax],al
    8965:	00 00                	add    BYTE PTR [rax],al
    8967:	00 c2                	add    dl,al
    8969:	88 00                	mov    BYTE PTR [rax],al
    896b:	00 00                	add    BYTE PTR [rax],al
    896d:	00 00                	add    BYTE PTR [rax],al
    896f:	00 0c 00             	add    BYTE PTR [rax+rax*1],cl
    8972:	00 00                	add    BYTE PTR [rax],al
    8974:	00 00                	add    BYTE PTR [rax],al
    8976:	00 00                	add    BYTE PTR [rax],al
    8978:	40 00 00             	rex add BYTE PTR [rax],al
    897b:	00 00                	add    BYTE PTR [rax],al
    897d:	00 00                	add    BYTE PTR [rax],al
    897f:	00 ce                	add    dh,cl
    8981:	88 00                	mov    BYTE PTR [rax],al
    8983:	00 00                	add    BYTE PTR [rax],al
    8985:	00 00                	add    BYTE PTR [rax],al
    8987:	00 03                	add    BYTE PTR [rbx],al
	...
    8991:	80 00 00             	add    BYTE PTR [rax],0x0
    8994:	00 00                	add    BYTE PTR [rax],al
    8996:	00 00                	add    BYTE PTR [rax],al
    8998:	d1 88 00 00 00 00    	ror    DWORD PTR [rax+0x0],1
    899e:	00 00                	add    BYTE PTR [rax],al
    89a0:	03 00                	add    eax,DWORD PTR [rax]
	...
    89aa:	00 80 00 00 00 00    	add    BYTE PTR [rax+0x0],al
    89b0:	30 78 20             	xor    BYTE PTR [rax+0x20],bh
    89b3:	7c 20                	jl     0x89d5
    89b5:	00 00                	add    BYTE PTR [rax],al
    89b7:	00 68 88             	add    BYTE PTR [rax-0x78],ch
	...
    89c6:	00 00                	add    BYTE PTR [rax],al
    89c8:	2f                   	(bad)
    89c9:	68 6f 6d 65 2f       	push   0x2f656d6f
    89ce:	65 63 32             	movsxd esi,DWORD PTR gs:[rdx]
    89d1:	2d 75 73 65 72       	sub    eax,0x72657375
    89d6:	2f                   	(bad)
    89d7:	2e 63 61 72          	cs movsxd esp,DWORD PTR [rcx+0x72]
    89db:	67 6f                	outs   dx,DWORD PTR ds:[esi]
    89dd:	2f                   	(bad)
    89de:	72 65                	jb     0x8a45
    89e0:	67 69 73 74 72 79 2f 	imul   esi,DWORD PTR [ebx+0x74],0x732f7972
    89e7:	73 
    89e8:	72 63                	jb     0x8a4d
    89ea:	2f                   	(bad)
    89eb:	69 6e 64 65 78 2e 63 	imul   ebp,DWORD PTR [rsi+0x64],0x632e7865
    89f2:	72 61                	jb     0x8a55
    89f4:	74 65                	je     0x8a5b
    89f6:	73 2e                	jae    0x8a26
    89f8:	69 6f 2d 36 66 31 37 	imul   ebp,DWORD PTR [rdi+0x2d],0x37316636
    89ff:	64 32 32             	xor    dh,BYTE PTR fs:[rdx]
    8a02:	62 62                	(bad)
    8a04:	61                   	(bad)
    8a05:	31 35 30 30 31 66    	xor    DWORD PTR [rip+0x66313030],esi        # 0x6631ba3b
    8a0b:	2f                   	(bad)
    8a0c:	78 38                	js     0x8a46
    8a0e:	36 5f                	ss pop rdi
    8a10:	36 34 2d             	ss xor al,0x2d
    8a13:	30 2e                	xor    BYTE PTR [rsi],ch
    8a15:	31 34 2e             	xor    DWORD PTR [rsi+rbp*1],esi
    8a18:	31 31                	xor    DWORD PTR [rcx],esi
    8a1a:	2f                   	(bad)
    8a1b:	73 72                	jae    0x8a8f
    8a1d:	63 2f                	movsxd ebp,DWORD PTR [rdi]
    8a1f:	61                   	(bad)
    8a20:	64 64 72 2e          	fs fs jb 0x8a52
    8a24:	72 73                	jb     0x8a99
    8a26:	61                   	(bad)
    8a27:	64 64 72 65          	fs fs jb 0x8a90
    8a2b:	73 73                	jae    0x8aa0
    8a2d:	20 70 61             	and    BYTE PTR [rax+0x61],dh
    8a30:	73 73                	jae    0x8aa5
    8a32:	65 64 20 74 6f 20    	gs and BYTE PTR fs:[rdi+rbp*2+0x20],dh
    8a38:	56                   	push   rsi
    8a39:	69 72 74 41 64 64 72 	imul   esi,DWORD PTR [rdx+0x74],0x72646441
    8a40:	3a 3a                	cmp    bh,BYTE PTR [rdx]
    8a42:	6e                   	outs   dx,BYTE PTR ds:[rsi]
    8a43:	65 77 20             	gs ja  0x8a66
    8a46:	6d                   	ins    DWORD PTR es:[rdi],dx
    8a47:	75 73                	jne    0x8abc
    8a49:	74 20                	je     0x8a6b
    8a4b:	6e                   	outs   dx,BYTE PTR ds:[rsi]
    8a4c:	6f                   	outs   dx,DWORD PTR ds:[rsi]
    8a4d:	74 20                	je     0x8a6f
    8a4f:	63 6f 6e             	movsxd ebp,DWORD PTR [rdi+0x6e]
    8a52:	74 61                	je     0x8ab5
    8a54:	69 6e 20 61 6e 79 20 	imul   ebp,DWORD PTR [rsi+0x20],0x20796e61
    8a5b:	64 61                	fs (bad)
    8a5d:	74 61                	je     0x8ac0
    8a5f:	20 69 6e             	and    BYTE PTR [rcx+0x6e],ch
    8a62:	20 62 69             	and    BYTE PTR [rdx+0x69],ah
    8a65:	74 73                	je     0x8ada
    8a67:	20 34 38             	and    BYTE PTR [rax+rdi*1],dh
    8a6a:	20 74 6f 20          	and    BYTE PTR [rdi+rbp*2+0x20],dh
    8a6e:	36 34 d0             	ss xor al,0xd0
    8a71:	13 00                	adc    eax,DWORD PTR [rax]
    8a73:	00 00                	add    BYTE PTR [rax],al
    8a75:	00 00                	add    BYTE PTR [rax],al
    8a77:	00 08                	add    BYTE PTR [rax],cl
    8a79:	00 00                	add    BYTE PTR [rax],al
    8a7b:	00 00                	add    BYTE PTR [rax],al
    8a7d:	00 00                	add    BYTE PTR [rax],al
    8a7f:	00 08                	add    BYTE PTR [rax],cl
    8a81:	00 00                	add    BYTE PTR [rax],al
    8a83:	00 00                	add    BYTE PTR [rax],al
    8a85:	00 00                	add    BYTE PTR [rax],al
    8a87:	00 d0                	add    al,dl
    8a89:	5a                   	pop    rdx
    8a8a:	00 00                	add    BYTE PTR [rax],al
    8a8c:	00 00                	add    BYTE PTR [rax],al
    8a8e:	00 00                	add    BYTE PTR [rax],al
    8a90:	c8 89 00 00          	enter  0x89,0x0
    8a94:	00 00                	add    BYTE PTR [rax],al
    8a96:	00 00                	add    BYTE PTR [rax],al
    8a98:	5e                   	pop    rsi
    8a99:	00 00                	add    BYTE PTR [rax],al
    8a9b:	00 00                	add    BYTE PTR [rax],al
    8a9d:	00 00                	add    BYTE PTR [rax],al
    8a9f:	00 46 00             	add    BYTE PTR [rsi+0x0],al
    8aa2:	00 00                	add    BYTE PTR [rax],al
    8aa4:	1d 00 00 00 49       	sbb    eax,0x49000000
    8aa9:	6e                   	outs   dx,BYTE PTR ds:[rsi]
    8aaa:	74 65                	je     0x8b11
    8aac:	72 72                	jb     0x8b20
    8aae:	75 70                	jne    0x8b20
    8ab0:	74 53                	je     0x8b05
    8ab2:	74 61                	je     0x8b15
    8ab4:	63 6b 46             	movsxd ebp,DWORD PTR [rbx+0x46]
    8ab7:	72 61                	jb     0x8b1a
    8ab9:	6d                   	ins    DWORD PTR es:[rdi],dx
    8aba:	65 69 6e 73 74 72 75 	imul   ebp,DWORD PTR gs:[rsi+0x73],0x63757274
    8ac1:	63 
    8ac2:	74 69                	je     0x8b2d
    8ac4:	6f                   	outs   dx,DWORD PTR ds:[rsi]
    8ac5:	6e                   	outs   dx,BYTE PTR ds:[rsi]
    8ac6:	5f                   	pop    rdi
    8ac7:	70 6f                	jo     0x8b38
    8ac9:	69 6e 74 65 72 63 6f 	imul   ebp,DWORD PTR [rsi+0x74],0x6f637265
    8ad0:	64 65 5f             	fs gs pop rdi
    8ad3:	73 65                	jae    0x8b3a
    8ad5:	67 6d                	ins    DWORD PTR es:[edi],dx
    8ad7:	65 6e                	outs   dx,BYTE PTR gs:[rsi]
    8ad9:	74 63                	je     0x8b3e
    8adb:	70 75                	jo     0x8b52
    8add:	5f                   	pop    rdi
    8ade:	66 6c                	data16 ins BYTE PTR es:[rdi],dx
    8ae0:	61                   	(bad)
    8ae1:	67 73 73             	addr32 jae 0x8b57
    8ae4:	74 61                	je     0x8b47
    8ae6:	63 6b 5f             	movsxd ebp,DWORD PTR [rbx+0x5f]
    8ae9:	70 6f                	jo     0x8b5a
    8aeb:	69 6e 74 65 72 73 74 	imul   ebp,DWORD PTR [rsi+0x74],0x74737265
    8af2:	61                   	(bad)
    8af3:	63 6b 5f             	movsxd ebp,DWORD PTR [rbx+0x5f]
    8af6:	73 65                	jae    0x8b5d
    8af8:	67 6d                	ins    DWORD PTR es:[edi],dx
    8afa:	65 6e                	outs   dx,BYTE PTR gs:[rsi]
    8afc:	74                   	.byte 0x74
